uc:_glClearStencil
wsh:_UInt16_System_IConvertible_ToChar_m2096055221_AdjustorThunk
Zbh:_Array_TrueForAll_TisRuntimeObject_m1084992726_gshared
K7j:__ZN6il2cpp2vm5Array13GetByteLengthEP11Il2CppArray
LFi:_Array_InternalArray__set_Item_TisDateTime_t3738529785_m1331437427_gshared
bij:_KeyBuilder_get_Rng_m3373220441
rBe:__ZL102Image_t2670269651_CustomAttributesCacheGenerator_Image_t2670269651____eventAlphaThreshold_PropertyInfoP21CustomAttributesCache
Dya:__Z30GetIntermediateRendererManagerv
mSa:__Z21SourceMipLevelForBlitiiii
wEa:__ZN31CanvasBatchIntermediateRenderer15AddAsRenderNodeER15RenderNodeQueueRK20DeprecatedSourceData
Lph:_TimeSpan_get_Hours_m550761902
Lic:__ZN9ShaderLab9SubShader15FindNamedPassesERKN4core12basic_stringIcNS1_20StringStorageDefaultIcEEEER13dynamic_arrayIPNS_4PassELj0EE
Ene:__ZL63PlayableOutputHandle_t4208053793_CustomAttributesCacheGeneratorP21CustomAttributesCache
F_:__ZN11UnityEngine15CloudWebService26CloudServiceEventWithParam12ToJsonStringER9JSONWrite
dpc:__Z59Register_UnityEngine_PlayerConnectionInternal_DisconnectAllv
qjj:_AnalyticsEventTracker_SendEvent_m1365958832
bs:__ZN11UnityEngine9Animation28GenericAnimationBindingCacheD2Ev
J7i:_X509Store_LoadCrl_m1881903843
kIi:_Array_Sort_TisUICharInfo_t75501106_TisUICharInfo_t75501106_m722747892_gshared
F8b:__Z18RestoreRenderStateR20CameraRenderOldStateR17ShaderPassContext
Wyb:__Z18Transfer_BlittableI18StreamedBinaryReadILb1EELb1E5RectTIfEEvRK29SerializationCommandArgumentsR31RuntimeSerializationCommandInfo
Jub:__Z18Transfer_BlittableI24GenerateTypeTreeTransferLb0E11ColorRGBA32EvRK29SerializationCommandArgumentsR31RuntimeSerializationCommandInfo
ODb:__Z25scripting_class_from_name17ScriptingImagePtrPKcS1_
$Ei:_Array_InternalArray__Insert_TisSingle_t1397266774_m3161726127_gshared
kUj:__ZN14dense_hash_mapI10KeyWrapperINSt3__24pairIPK12PropertyInfoP11Il2CppClassEEEj17ReflectionMapHashIS8_ENS9_14EqualsComparerINS1_8equal_toIS8_EEEENS1_9allocatorINS2_IKS9_jEEEEE15set_deleted_keyERSH_
GFb:__Z29scripting_class_enum_basetype17ScriptingClassPtr
pJc:__ZN6IDList10BeginOnGUIEv
h0j:__ZN6il2cpp2vm9Exception25RaiseOutOfMemoryExceptionERKNS_5utils10StringViewIDsEEP19Il2CppSequencePoint
Eka:__ZL43__ManagedRegistrationHelperFunction_TexturePv
EMf:_InternalEnumerator_1_get_Current_m1477715453_gshared
wcb:__ZNK20LocalFileSystemPosix6ParentERK13FileEntryDataRN4core12basic_stringIcNS3_20StringStorageDefaultIcEEEE
Lhe:__ZL118TouchScreenKeyboard_t731888065_CustomAttributesCacheGenerator_TouchScreenKeyboard_Open_m3609399077____textPlaceholder6P21CustomAttributesCache
C0i:_Collection_1_System_Collections_IList_Remove_m1476284619_gshared
b0f:_MonoType_IsPrimitiveImpl_m2401722705
qOg:_SHA1CryptoServiceProvider__ctor_m4195188793
Sna:__ZN9Scripting11UnityEngine9Profiling8Recorder12CleanupProxyEv
WCb:__ZN18StreamedBinaryReadILb0EE21TransferSTLStyleArrayI13dynamic_arrayI11ColorRGBA32Lj0EEEEvRT_17TransferMetaFlags
YCd:_Dropdown_Hide_m504034854
r2f:_NumberFormatter_NumberToString_m264078176
_ah:_Array_InternalArray__ICollection_Remove_TisLink_t3209266973_m897088622_gshared
S9e:_Vector2_get_up_m2647420593
vPb:__ZN7ApiGLES17CopyBufferSubDataEjjlll
Xhh:_Array_InternalArray__ICollection_CopyTo_TisUInt64_t4134040092_m691431926_gshared
Gcg:_IPAddress_ToString_m1181734207
qlh:_StringBuilder_Append_m1965104174
qLc:__ZN5Unity9rapidjson15GenericDocumentINS0_4UTF8IcEE13JSONAllocatorS4_E11ParseStreamILj1ES3_NS0_25GenericInsituStringStreamIS3_EEEERS5_RT1_
FBh:_EqualityComparer_1__cctor_m3766928733_gshared
Y$b:__ZN25CameraStackRenderingState20GetOrCreateBuiltinRTE24BuiltinRenderTextureTypeii17DepthBufferFormat19RenderTextureFormatj22RenderTextureReadWrite14VRTextureUsagei
D9h:_UnityAction_1_Invoke_m610765085_gshared
xpg:_Array_GetValue_m116098292
npf:_Kernel_modInverse_m652700340
Ewe:__ZL57CanvasRenderer_t2598313366_CustomAttributesCacheGeneratorP21CustomAttributesCache
xKc:__ZN5IMGUI18RepaintModalWindowER8GUIState
qBa:__ZNK15dense_hashtableINSt3__24pairIKN9ShaderLab7Program23ShaderKeywordSetAndHashEPKNS2_10SubProgramEEES4_NS3_24ShaderKeywordHashFunctorEN14dense_hash_mapIS4_S8_SA_NS0_8equal_toIS4_EE13stl_allocatorIS9_L18MemLabelIdentifier67ELi16EEE9SelectKeyESD_SG_E23find_position_with_hashERS5_j
MAg:_CompareInfo_Finalize_m404687489
gXa:__Z23SetSpriteMeshIndexCountP14SharedMeshDataj
mnh:_UTF8Decoder_GetChars_m1236346907
ybk:__ZN6il2cpp8metadata13GenericMethod9GetMethodEPK19Il2CppGenericMethod
Nq:__ZNSt3__26vectorIN4core12basic_stringIcNS1_20StringStorageDefaultIcEEEENS_9allocatorIS5_EEE7reserveEj
G4f:_Default_SelectProperty_m1220817815
XJe:_RemotingConfiguration_IsRemotelyActivatedClientType_m4117048589
R8e:_Transform_TransformPoint_m226827784
uLb:__ZN13GfxDeviceGLES11SetViewportERK5RectTIiE
gGc:__Z24Time_Get_Custom_PropTimev
Nd:_emscripten_glDepthRange
h2i:_SslStreamBase_BeginNegotiateHandshake_m4180435790
RWc:__ZN9Scripting11UnityEngine10UILineInfo12CleanupProxyEv
Yac:__ZNSt3__26vectorINS_4pairIN4core12basic_stringIcNS2_20StringStorageDefaultIcEEEES6_EE13stl_allocatorIS7_L18MemLabelIdentifier38ELi16EEE12__move_rangeEPS7_SC_SC_
kfc:__Z14resize_trimmedINSt3__26vectorIN9ShaderLab20SerializedSubProgram12UAVParameterENS0_9allocatorIS4_EEEEEvRT_j
wLc:__ZN5Unity9rapidjson13GenericReaderINS0_4UTF8IcEES3_13JSONAllocatorE11ParseObjectILj1ENS0_25GenericInsituStringStreamIS3_EENS0_15GenericDocumentIS3_S4_S4_EEEEvRT0_RT1_
wxd:_StandaloneInputModule_GetRawMoveVector_m2737091079
aDe:__ZL62Selectable_t3250028441_CustomAttributesCacheGenerator_m_ColorsP21CustomAttributesCache
S_g:_Convert_ToDateTime_m2616935982
HNb:__ZThn10632_N13GfxDeviceGLES22SetScissorRectPlatformERK5RectTIiE
R2i:_SslStreamBase_EndWrite_m4073224031
yaa:__ZNSt3__218__insertion_sort_3IRNS_6__lessI14ObjectLoadDataS2_EEPS2_EEvT0_S6_T_
_ka:__ZL50__ManagedRegistrationHelperFunction_PostLateUpdatePv
PRa:__ZN4crndL20crnd_default_reallocEPvjPjbS0_
oYa:__ZN18SpriteAtlasManager19AddRequestingSpriteE4PPtrI6SpriteE
UZf:_UnmanagedMemoryStream_Write_m930787521
K7b:__ZN23ScriptableRenderContextC2Ev
NFd:_GridLayoutGroup_get_spacing_m2409263614
FLh:_List_1_CheckIndex_m581273900_gshared
n7c:_UNITY_FT_Stream_GetChar
vzb:__Z18Transfer_BlittableI18StreamedBinaryReadILb1EELb1EdEvRK29SerializationCommandArgumentsR31RuntimeSerializationCommandInfo
NFb:__Z26BuildSerializationCacheFor17ScriptingClassPtrRb
qRb:__ZN7ApiGLES15BlitFramebufferEN2gl6HandleILNS0_10ObjectTypeE9EEENS0_15FramebufferReadES3_S3_iiiiiiiiNS0_15FramebufferTypeE
Ioi:__Z112RuntimeInvoker_RuntimeObject_RuntimeObject_RuntimeObject_RuntimeObject_RuntimeObject_RuntimeObject_RuntimeObjectPFvvEPK10MethodInfoPvPS4_
TLf:_InternalEnumerator_1_System_Collections_IEnumerator_get_Current_m3553395619_AdjustorThunk
opg:_Array_SetValue_m3998268557
xDh:_EqualityComparer_1__cctor_m818408565_gshared
RRc:__ZN8JSONRead8TransferI8Vector4fEEvRT_PKc17TransferMetaFlagsb
fAd:_ColorBlock_set_highlightedColor_m2089444414_AdjustorThunk
v5e:_RectTransform_INTERNAL_set_anchoredPosition_m939517950
lxf:_Context_EndSwitchingSecurityParameters_m4148956166
y2c:_otv_PairPos_validate
qy:__ZN7mecanim9animation14CopyHumanPosesEPKNS0_18AnimationNodeStateEPS1_RKNS_6bitsetILj83EEE
rMj:__ZN6il2cpp6icalls8mscorlib6SystemL8IsStaticEPK12PropertyInfo
SGb:__Z9InitInputv
s4c:_UNITY_tt_face_build_cmaps
IPj:__ZN6il2cpp2gc19AppendOnlyGCHashMapINSt3__24pairIPK10MethodInfoP11Il2CppClassEEP22Il2CppReflectionMethod17ReflectionMapHashIS9_ENS2_8equal_toIS9_EEE3AddERKS9_SB_
vgb:__ZN16MemoryFileSystem6DeleteER13FileEntryDatab
rji:__Z81RuntimeInvoker_Void_t1185182177_RuntimeObject_Int64_t3736567304_Int32_t2950945753PFvvEPK10MethodInfoPvPS4_
YMi:_List_1_set_Item_m1979164443_gshared
kgh:_Array_InternalArray__ICollection_Add_TisLink_t3209266973_m77922316_gshared
XOa:__ZL21BlitScaleStbImageImplRK14ImageReferenceRS_NS_10ColorSpaceE
Drg:_Boolean_System_IConvertible_ToUInt16_m3465173538_AdjustorThunk
Is:__ZL48__ManagedRegistrationHelperFunction_SkeletonBonePv
jcf:_InputField_get_keyboardType_m1248105267
zqb:__Z29Transfer_Blittable_ArrayFieldI14SafeBinaryReadyEvRT_R9ArrayInfoRK23StaticTransferFieldInfo
HQ:__ZN20SoundChannelInstance15setChannelGroupEPN4FMOD12ChannelGroupE
h9i:_Match__ctor_m2425511580
uRh:_KeyPairPersistence_Remove_m1876145547
ic:invoke_vifffii
Peb:__ZNK25MultiBlocksMemoryFileData5CloneEv
jhk:_GC_add_ext_descriptor
ZNj:__ZNK15dense_hashtableINSt3__24pairIK10KeyWrapperINS1_IPK14Il2CppAssemblyP11Il2CppClassEEEjEES9_17ReflectionMapHashIS8_EN14dense_hash_mapIS9_jSD_NS9_14EqualsComparerINS0_8equal_toIS8_EEEENS0_9allocatorISB_EEE9SelectKeyESI_SK_E23find_position_with_hashERSA_j
hKi:_LayoutGroup_SetProperty_TisSingle_t1397266774_m793506911_gshared
zPe:_CryptoConfig_CreateFromName_m1538277313
Brk:dynCall_iiiiiiiiiiii
op:__ZN9Scripting11UnityEngine2AI18NavMeshBuildSource9InitProxyEv
ucf:_InputField_set_caretPositionInternal_m3823580651
jjd:__ZN18UnityConnectClient16IsServiceEnabledEv
Fqa:__ZN9Scripting11UnityEngine10ColorGamut9InitProxyEv
Vgb:__ZN22VertexDeclarationCacheD0Ev
qmf:_Selectable_set_interactable_m3105888815
LEa:__ZL26KeywordSetToStringDontSortRKNSt3__26vectorIN4core12basic_stringIcNS1_20StringStorageDefaultIcEEEENS_9allocatorIS5_EEEERS5_
tha:__ZN6prcoreL17RemapGenericFloatI16TexFormatRGFloat17TexFormatRGBAHalfEEvPKNS_9InnerInfoE
IS:__ZN12AudioManager22CreateFMODSoundFromWWWEP10IWWWStream15FMOD_SOUND_TYPE17FMOD_SOUND_FORMATjjbbP10SampleClip
bxc:__ZNK32RendererMaterialAnimationBinding15GenerateBindingERKN4core12basic_stringIcNS0_20StringStorageDefaultIcEEEEbRN11UnityEngine9Animation14GenericBindingE
FNd:_TargetException__ctor_m4172127019
vQi:_List_1_CheckCollection_m274117203_gshared
Dxe:__ZL70EventSystem_t1003666588_CustomAttributesCacheGenerator_m_FirstSelectedP21CustomAttributesCache
L8:__ZN8Remapper23GetOrGenerateInstanceIDERK26SerializedObjectIdentifier
TAd:_ColorTween_get_startColor_m3792586410_AdjustorThunk
glb:__ZN11TextureData17GetImageReferenceEii
L2f:_CustomInfo__ctor_m426096741
Ttd:_EventSystem_ToString_m3779610692
yXa:__ZN6Sprite8TransferI24GenerateTypeTreeTransferEEvRT_
Iqc:__Z48Register_UnityEngine_Transform_SetAsFirstSiblingv
tHf:_InternalEnumerator_1_System_Collections_IEnumerator_get_Current_m694606607_gshared
DXa:__ZN7SubMesh8TransferI24GenerateTypeTreeTransferEEvRT_
Xzj:_NativeTypeAttribute__ctor_m133676646
EUh:_Collection_1_System_Collections_IList_Contains_m296643274_gshared
kJg:_DirectoryInfo__ctor_m126519516
XJd:_MethodBase_GetMethodFromIntPtr_m3014201362
nqc:__ZN9Transform23SetSiblingIndexInternalEib
xOc:__ZN9JSONWrite8TransferI13dynamic_arrayIaLj0EEEEvRT_PKc17TransferMetaFlags
qYg:_Enumerator_MoveNext_m635366482
img:_X509Extension_Equals_m1222951829
Gw:__ZN7mecanim5human12HumanPoseSubERNS0_9HumanPoseERKS1_S4_
d5j:__ZN6il2cpp8metadata15GenericMetadata15GetGenericClassEiPK17Il2CppGenericInst
_ob:__Z18Transfer_BlittableI14SafeBinaryReadLb0E10Matrix4x4fEvRK29SerializationCommandArgumentsR31RuntimeSerializationCommandInfo
cFb:__Z24GetFixedBehaviourManagerv
WKj:__ZN6il2cpp2vm10ThreadPool4WaitEP17Il2CppAsyncResultPPv
Elg:_PKCS12_Encrypt_m2617413749
t7i:_X509Crl_VerifySignature_m1377612461
Pmk:_vfprintf
ZKc:__ZN10GUIManager12AddGUIScriptER8ListNodeI13MonoBehaviourE
nma:__ZL53__ManagedRegistrationHelperFunction_StackTraceUtilityPv
GYg:_Stack_Clear_m2010200235
i$c:_cf2_getVStore
Jvd:_PointerEventData_set_pointerPressRaycast_m1363193059
JZb:__ZN20DynamicPropertySheetD0Ev
eQd:_SafeHandle_Dispose_m4229010569
abc:__ZN14SafeBinaryRead17RegisterConverterEPKcS1_PFbPvRS_E
pge:__ZL77RuntimePlatform_t4159857903_CustomAttributesCacheGenerator_OSXDashboardPlayerP21CustomAttributesCache
$0:__ZN35RegisterRuntimeInitializeAndCleanup8RegisterEPFvPvES2_iS0_
jQb:__ZN7ApiGLES20DrawElementsIndirectE16GfxPrimitiveTypejjj
H7f:_FieldBuilder_SetValue_m828035213
z5h:__ZN28GenericInterfaceFuncInvoker0IfE6InvokeEPK10MethodInfoP12Il2CppObject
uGc:__Z21Object_CUSTOM_DestroyP12Il2CppObjectf
sWb:__ZN8Material26ResetAllCachedMaterialDataEP6Shader
kni:__Z63RuntimeInvoker_Void_t1185182177_RuntimeObject_Int16_t2552820387PFvvEPK10MethodInfoPvPS4_
z7c:_UNITY_TT_Get_MM_Var
WMe:_ObjectManager_AddFixup_m2154325362
aOf:_Comparer_1__cctor_m3761458313_gshared
L4g:_DateTimeOffset_CompareTo_m1350732322_AdjustorThunk
aa:invoke_diddi
kcd:__ZNK2UI6Canvas13GetRenderModeEv
mXe:_PersistentCall__ctor_m1217622171
$dh:_Array_compare_TisCustomAttributeTypedArgument_t2723150157_m1384644047_gshared
vkg:_StrongName_get_TokenAlgorithm_m1794722022
job:__Z18Transfer_BlittableI14SafeBinaryReadLb0EiEvRK29SerializationCommandArgumentsR31RuntimeSerializationCommandInfo
IIj:__ZN6il2cpp2vm13MetadataCache30GetPropertyDefinitionFromIndexEi
jij:_SymmetricTransform_Transform_m1683494363
smd:__ZN22BaseUnityConnectClient17InitializeSessionERKN4core12basic_stringIcNS0_20StringStorageDefaultIcEEEES6_N19CloudServiceHandler13InitModeFlagsE
TZd:__ZL56KeyCollection_t4251528776_CustomAttributesCacheGeneratorP21CustomAttributesCache
rti:__Z74RuntimeInvoker_RuntimeObject_Int32_t2950945753_RuntimeObject_RuntimeObjectPFvvEPK10MethodInfoPvPS4_
jWi:_List_1_get_Item_m200663048_gshared
sxk:_emscripten_glDeleteBuffers__wrapper
kDc:__ZN13MonoBehaviour34StopCoroutineFromEnumeratorManagedE18ScriptingObjectPtr
Rs:__ZN9Scripting11UnityEngine9HumanBone12CleanupProxyEv
qTc:__ZN11UnityEngine9Analytics18SceneLoadTimeEvent12SetSceneLoadERKN4core12basic_stringIcNS2_20StringStorageDefaultIcEEEEiyyyy
C4a:__ZN30RuntimeInitializeOnLoadManager8TransferI18StreamedBinaryReadILb0EEEEvRT_
z_g:_DateTimeOffset__ctor_m2084804982
V3c:_UNITY_tt_face_load_pclt
$mc:__ZL34GetComponentsImplementationRecurseILb1ELi0ELi2EEbR10GameObjectbRK17CompareParametersRK39GetComponentsImplementation_ReturnValue
Qpg:_Array_Sort_m3698291233
g_e:_Material_GetTexture_m3545614349
bei:__Z64RuntimeInvoker_RuntimeObject_Int32_t2950945753_Int16_t2552820387PFvvEPK10MethodInfoPvPS4_
wCh:_EqualityComparer_1__cctor_m4244842342_gshared
cZb:__ZNK6Camera18WorldToScreenPointERK8Vector3fPb
I6e:_SendMouseEvents_DoSendMouseEvents_m2140870850
Xgd:__ZN14UnityAnalyticsD0Ev
haj:_PatternCompiler_EmitJump_m3915926156
RKb:__Z18IsCompressedFormat14GraphicsFormat
_w:__ZN7mecanim9animation19AdjustPoseForMotionERKNS0_14AvatarConstantERKNS0_14SkeletonTQSMapERKN4math4trsXERNS_10ValueArrayERNS_8skeleton13SkeletonPoseTIS8_EESG_
KLd:_MonoMethod_GetBaseDefinition_m2844667474
_ph:__Z33il2cpp_codegen_check_add_overflowxx
P6:__ZNSt3__227__insertion_sort_incompleteIRPFbRKN18AwakeFromLoadQueue4ItemES4_EPS2_EEbT0_S9_T_
xge:__ZL73RuntimePlatform_t4159857903_CustomAttributesCacheGenerator_MetroPlayerARMP21CustomAttributesCache
EIg:_InvalidOperationException__ctor_m1685032583
IGj:__ZN14dense_hash_mapI10KeyWrapperIN6il2cpp5utils13dynamic_arrayIPK10Il2CppTypeLj4EEEEPFvvENS1_8metadata19Il2CppSignatureHashENS8_14EqualsComparerINSB_22Il2CppSignatureCompareEEENSt3__29allocatorINSG_4pairIKS8_SA_EEEEE15set_deleted_keyERSJ_
Gqh:_TimeSpan_op_Subtraction_m3592306516
uEh:_EqualityComparer_1_System_Collections_IEqualityComparer_GetHashCode_m1517903420_gshared
fWa:__ZN26EnlightenSystemInformation8TransferI14SafeBinaryReadEEvRT_
q5a:__ZN24GenerateTypeTreeTransfer8TransferINSt3__26vectorIN15ResourceManager10DependencyE13stl_allocatorIS4_L18MemLabelIdentifier52ELi16EEEEEEvRT_PKc17TransferMetaFlags
iwj:_CanvasRenderer_SplitUIVertexStreams_m2753637362
Sui:__Z119RuntimeInvoker_Void_t1185182177_RuntimeObject_Single_t1397266774_Single_t1397266774_SByte_t1669577662_Int32_t2950945753PFvvEPK10MethodInfoPvPS4_
bAa:__ZN27PerObjectLightCullingOutputD2Ev
V0a:__ZN12MeshRendererD0Ev
TT:__ZN12AudioManager35GetCurrentSpatializerDefinitionNameEv
Cma:__ZN9Scripting11UnityEngine14WaitForSeconds9InitProxyEv
yh:_utime
zne:__ZL56PlayableGraph_t3515989261_CustomAttributesCacheGeneratorP21CustomAttributesCache
Acj:_BalancingGroup_Compile_m2575117193
uVj:__ZNSt3__26vectorIN6il2cpp2vm17TypeNameParseInfoENS_9allocatorIS3_EEE8allocateEj
Ws:__ZN9Scripting11UnityEngine22AnimatorTransitionInfo9InitProxyEv
c9i:_Mark_get_Index_m3048692661_AdjustorThunk
on:FUNCTION_TABLE_viiiiif
CNf:_DefaultComparer_Compare_m3931992727_gshared
tn:FUNCTION_TABLE_viiiiii
vMf:_InternalEnumerator_1_System_Collections_IEnumerator_get_Current_m1847780851_AdjustorThunk
$gj:_GUILayoutUtility_get_spaceStyle_m3392862907
yGg:_Int32_System_IConvertible_ToType_m3009233912_AdjustorThunk
A_g:_DateTimeOffset__ctor_m74032857
xmg:_SmallXmlParser_Error_m3899025466
ZF:__ZN7mecanim9animation22DestroyAvatarWorkspaceEPNS0_15AvatarWorkspaceERNS_6memory9AllocatorE
zrh:_Type_type_is_assignable_from_m76737532
YHc:__ZN9Scripting11UnityEngine14GUILayoutGroup12CleanupProxyEv
fOa:__ZN14PlayableOutput17SetSourcePlayableEP8Playable
u4a:__ZNSt3__26vectorIN4core12basic_stringIcNS1_20StringStorageDefaultIcEEEE13stl_allocatorIS5_L18MemLabelIdentifier13ELi16EEE8__appendEj
AF:__ZN7mecanim9animation29MotionOutputGetDeltaTransformEPKNS0_12MotionOutputE
pTc:__ZN27PerformanceReportingManager21OnSceneTimingCallbackERK15SceneLoadTimingRKN4core12basic_stringIcNS3_20StringStorageDefaultIcEEEE
Upc:__Z43Transform_CUSTOM_INTERNAL_get_localRotationP12Il2CppObjectP11Quaternionf
sBg:_CultureInfo_get_Parent_m672689885
Ghk:__ZN6il2cpp6icalls8mscorlib6System10Reflection4Emit13ModuleBuilder13RegisterTokenEP29Il2CppReflectionModuleBuilderP12Il2CppObjecti
xvk:_glGetShaderInfoLog__wrapper
Toe:__ZL63SpriteBone_t303320096_CustomAttributesCacheGenerator_m_ParentIdP21CustomAttributesCache
bi:_emscripten_glGetTexParameteriv
Aka:__ZL49__ManagedRegistrationHelperFunction_ComputeBufferPv
xjd:__ZN11UnityEngine7Connect15DeviceInfoEvent7GFXInfoD2Ev
Vwk:_glGenTextures__wrapper
Hfc:__ZN9ShaderLab20SerializedSubProgram14ConstantBufferaSERKS1_
cLa:__ZN8PlayableD0Ev
vg:emscriptenWebGLGetBufferBinding
gM:__ZN12AudioManager8TransferI19StreamedBinaryWriteILb0EEEEvRT_
Tmf:_Slider_UpdateCachedReferences_m3259451627
Fli:__Z50RuntimeInvoker_Double_t594665363_Double_t594665363PFvvEPK10MethodInfoPvPS4_
c_j:__ZN15dense_hashtableINSt3__24pairIK10KeyWrapperINS1_IP11Il2CppClassjEEES4_EES6_N6il2cpp8metadata14ArrayClassHashEN14dense_hash_mapIS6_S4_SB_NS6_14EqualsComparerINSA_17ArrayClassCompareEEENS0_9allocatorIS8_EEE9SelectKeyESF_SH_E6insertERKS8_
tDd:_U3CShowU3Ec__AnonStorey1_U3CU3Em__0_m2340880019
vmd:__ZN22BaseUnityConnectClient38PrepareConfigRequestOnMainThreadStaticEPS_
m4i:_TlsStream_Flush_m3793197834
ibb:__ZN22LocalFileSystemHandler9MakeLocalER13FileEntryDatab
$ck:__ZN6il2cpp2vm8Profiler10AllocationEP12Il2CppObjectP11Il2CppClass
VAe:__ZL61Graphic_t1660335611_CustomAttributesCacheGenerator_m_MaterialP21CustomAttributesCache
Kga:__Z13FormatOrderedPKcz
OMj:__ZN6il2cpp2vm8basepathEPKc
xKf:_InternalEnumerator_1_get_Current_m1506120701_AdjustorThunk
dgg:_X509Chain_GetAuthorityKeyIdentifier_m614536199
mXc:__ZN14SafeBinaryRead21TransferSTLStyleArrayI10vector_mapINSt3__24pairIttEEfN20TextRenderingPrivate8FontImpl14KerningCompareENS2_9allocatorINS3_IS4_fEEEEEEEvRT_17TransferMetaFlags
_vf:_TlsServerFinished__ctor_m1445633918
D2f:_NumberFormatter_FastIntegerToString_m390846811
yge:__ZL68RuntimePlatform_t4159857903_CustomAttributesCacheGenerator_WP8PlayerP21CustomAttributesCache
m0a:__ZN14CompressedMesh10GetQualityE15MeshCompression
A4b:__ZN25DeferredRenderLoopScratchD0Ev
gz:__ZN27AnimationLayerMixerPlayable14SetInputWeightEif
bri:__Z83RuntimeInvoker_Void_t1185182177_RuntimeObject_Single_t1397266774_Single_t1397266774PFvvEPK10MethodInfoPvPS4_
mvd:_PhysicsRaycaster_Raycast_m776323695
r9e:_UnityException__ctor_m1456865679
Cw:__ZN7mecanim9animation17EvaluateHumanPoseERKNS0_18ClipMuscleConstantERKNS0_15ClipMuscleInputEPKfRKNS0_12MotionOutputERNS_5human9HumanPoseE
Sec:__ZN15dense_hashtableINSt3__24pairIKiN4core17string_with_labelILi1EEEEEi18SInt32HashFunctionN14dense_hash_mapIiS5_S7_NS0_8equal_toIiEE13stl_allocatorIS6_L18MemLabelIdentifier1ELi16EEE9SelectKeyESA_SD_E9copy_fromERKSG_j
d5f:_CustomAttributeNamedArgument_GetHashCode_m2317130892
N4a:__ZN15ResourceManagerD0Ev
$Ke:_WellKnownClientTypeEntry_ToString_m1119458503
DBa:__ZN22CreateGpuProgramOutputD2Ev
nVi:_List_1_get_Item_m1378751541_gshared
sOg:_SHA1CryptoServiceProvider_Finalize_m1793183797
FZg:_Convert_ToByte_m4146281512
bGh:_HashSet_1_System_Collections_Generic_ICollectionU3CTU3E_CopyTo_m408073502_gshared
jsf:_EncryptedPrivateKeyInfo_get_EncryptedData_m491452551
xbb:__ZN12HandlerChain4OpenER13FileEntryData14FilePermission16FileAutoBehavior
Xgh:_Array_InternalArray__ICollection_Add_TisPlayerLoopSystem_t105772105_m1930641144_gshared
TAi:__Z72RuntimeInvoker_Void_t1185182177_Int32_t2950945753_RaycastHit_t1056001966PFvvEPK10MethodInfoPvPS4_
MPj:__ZN15dense_hashtableINSt3__24pairIK10KeyWrapperINS1_IPK10MethodInfoP11Il2CppClassEEEjEES9_17ReflectionMapHashIS8_EN14dense_hash_mapIS9_jSD_NS9_14EqualsComparerINS0_8equal_toIS8_EEEENS0_9allocatorISB_EEE9SelectKeyESI_SK_E6insertERKSB_
VK:__ZL55__ManagedRegistrationHelperFunction_AudioPlayableOutputPv
BTc:__ZN27PerformanceReportingManager29OnSceneLoadedAfterAwakeStaticEPS_iR18AwakeFromLoadQueueN19RuntimeSceneManager11LoadingModeE
mpg:_Array_SetValue_m394135409
T9:__ZN14FileCacherReadD2Ev
H7a:__ZN13RendererScene23UpdatePreviousFrameDataEii
j0e:_MonoBehaviour_StopCoroutine_m615723318
Jmc:__Z50Register_UnityEngine_CullingGroup_FinalizerFailurev
fRg:_SecurityPermission_IsSubsetOf_m545000671
Jjc:__ZN12ShaderErrors11ShaderErrorC2EOS0_
zpk:__ZNKSt3__221__basic_string_commonILb1EE20__throw_out_of_rangeEv
PVe:_Cursor_get_lockState_m2828192107
$Jj:_UpdatedEventHandler_Invoke_m1320302085
XVg:_String_Format_m630303134
vS:__ZN9AudioClip23VirtualRedirectTransferER18StreamedBinaryReadILb0EE
VG:__ZN26AnimatorOverrideController23VirtualRedirectTransferER24GenerateTypeTreeTransfer
KVi:_List_1_AddEnumerable_m2724989594_gshared
Kti:__Z82RuntimeInvoker_Vector2_t2156229523_Vector2_t2156229523_RuntimeObject_RuntimeObjectPFvvEPK10MethodInfoPvPS4_
XEc:__Z70Register_UnityEngine_Playables_PlayableHandle_GetPlayableType_Injectedv
pP:__ZN5audio5mixer22UpdateAudioMixerMemoryERKNS0_18AudioMixerConstantERNS0_16AudioMixerMemoryEfPN4FMOD6SystemEf
Cj:_glCopyTexSubImage2D
w9e:_UnitySynchronizationContext_ExecuteTasks_m1310741010
_Mg:_RIPEMD160Managed_CompressFinal_m497690796
xGb:__ZN18ScreenManagerWebGL13SetShowCursorEb
uUb:__ZN13DrawImmediateC2ER9GfxDevice
bEa:__ZN18VertexChannelsInfoC2ERA12_K11ChannelInfo
Wob:__Z18Transfer_BlittableI14SafeBinaryReadLb0E5RectTIfEEvRK29SerializationCommandArgumentsR31RuntimeSerializationCommandInfo
H2f:_NumberFormatter_NumberToString_m2562899600
G2c:_otv_u_C_x_Ox
pVc:__ZL44__ManagedRegistrationHelperFunction_ColliderPv
Jxk:_emscripten_glGenVertexArrays__wrapper
Svh:_Version_Clone_m1749041863
xPa:__ZN6prcoreL21CreateRemapAnyBlitterE13TextureFormatS0_
Nsf:_RSAManaged_ExportParameters_m1754454264
EBc:__ZN17AnimationCurveTplIfE16StripInvalidKeysEv
Prg:_Boolean_Equals_m535526264_AdjustorThunk
ddd:__ZNK2UI6Canvas17GetSortingLayerIDEv
zCc:__ZL12HashLen0to16PKcj
sXj:_il2cpp_method_has_attribute
AVa:__ZN8Renderer24SetupNewRendererForSceneEv
urh:_Type_internal_from_name_m1721940673
LXj:_il2cpp_type_get_class_or_element_class
Cyg:_Environment_get_TickCount_m2088073110
yKe:_RemotingServices_GetMethodBaseFromName_m3194612939
$Pc:__Z35Transfer_Blittable_FixedBufferFieldI8JSONReadtEvRK29SerializationCommandArgumentsR31RuntimeSerializationCommandInfo
Dzc:__ZN14PlayableOutput6HandleEv
MWa:__ZNK6Sprite22GetTypeVirtualInternalEv
Rpa:__ZN9Scripting11UnityEngine12Experimental9Playables22MaterialEffectPlayable9InitProxyEv
nn:FUNCTION_TABLE_iiiiiiiiiiiiii
Tzj:_NativePropertyAttribute__ctor_m2033094153
x3c:_UNITY_tt_get_cmap_info
hAf:_SslClientStream_RaiseServerCertificateValidation_m3477149273
Kvb:__Z29Transfer_Blittable_ArrayFieldI24GenerateTypeTreeTransfer5RectTIiEEvRT_R9ArrayInfoRK23StaticTransferFieldInfo
AGa:__ZN16ReflectionProbes8ScheduleEN18ReflectionProbeJob7JobTypeEP15ReflectionProbei
cwf:_ClientSessionInfo_KeepAlive_m1020179566
$aa:__ZN16MessageForwarder13HandleMessageEPviR11MessageData
Ycb:__Z18IsDirectoryCreatedRKN4core12basic_stringIcNS_20StringStorageDefaultIcEEEE
UQg:_String_FormatHelper_m3913915042
bbd:__ZN2UI13CanvasManagerD2Ev
K4f:_ConstructorInfo__cctor_m1016079270
uDj:__ZN15dense_hashtableINSt3__24pairIK10KeyWrapperIPKcEP11Il2CppClassEES5_N6il2cpp5utils11StringUtils12StringHasherIS4_EEN14dense_hash_mapIS5_S8_SE_NS5_14EqualsComparerINSB_13VmStringUtils21CaseSensitiveComparerEEENS0_9allocatorIS9_EEE9SelectKeyESJ_SL_E15set_deleted_keyERKS9_
jng:_AttrListImpl_get_Names_m977594476
b5f:_CustomAttributeData_GetHashCode_m3727773664
EZc:_UNITY_FT_GlyphLoader_Done
lga:__ZNSt3__23mapIiN11TypeManager18TypeCallbackStructENS_4lessIiEENS_9allocatorINS_4pairIKiS2_EEEEEixERS7_
xNd:_Pointer_Box_m389276611
tnb:__ZNK17InstancingBatcher15RenderInstancesERK19ShaderPropertySheetRKNS_22RenderInstancesConfigsERK11MeshBuffersRK16DrawBuffersRange16VertexInputMasks
D7g:_StackTrace_get_FrameCount_m344690939
H9:__ZN13dynamic_arrayIcLj0EE6insertEPcPKcS3_
GZf:_UnexceptionalStreamWriter_Write_m363195622
x4c:_tt_cmap14_char_var_index
hdf:_Selectable_OnPointerDown_m1086067264
C8c:_psh_globals_new
NCd:_Dropdown_SetupTemplate_m628218778
snh:_Thread_GetCompressedStack_m2923422412
Y_e:_Matrix4x4_MultiplyPoint3x4_m4145063176
seg:_X509BasicConstraintsExtension_ToString_m1809935297
chb:__ZN9GfxDevice20SetMaxBufferedFramesEi
Kxj:_TweenRunner_1_StartTween_m1055628540_gshared
a_h:_ReadOnlyCollection_1_System_Collections_IList_Remove_m4129318771_gshared
VJi:_GameObject_GetComponents_TisRuntimeObject_m1246177135_gshared
Rrk:dynCall_vdd
u_f:_MethodAccessException__ctor_m3542088436
vcc:__Z23ConvertIntegerToTypePtrIsEbPvR14SafeBinaryRead
ut:__ZN9Scripting11UnityEngine10Animations26AnimatorControllerPlayable9InitProxyEv
Emd:__ZN11UnityEngine7Connect13ConfigHandler13ConfigChangedERKN4core12basic_stringIcNS2_20StringStorageDefaultIcEEEEb
QBh:_EqualityComparer_1_System_Collections_IEqualityComparer_GetHashCode_m2230215241_gshared
aEe:__ZL60ContentSizeFitter_t3850442145_CustomAttributesCacheGeneratorP21CustomAttributesCache
lyg:_Hashtable_Contains_m2145146412
Dja:__ZN6prcoreL29inner_stretch_rgb565_bilinearEPKNS_9InnerInfoE
nDa:__Z26TransformVerticesInnerLoopILb0ELb0ELb1EEvPhRK10Matrix4x4fRK10Matrix3x3fjPKhiS8_ii25GfxTransformVerticesFlagsj
PFg:_Int32_FindCurrency_m3541026887
jkg:_Interval_CompareTo_m3282557545
Hyk:_pthread_cond_wait__wrapper
H3b:__ZNK14RenderSettings19GetFlatAmbientColorEv
ICa:__ZN8DrawUtil24DrawMeshRawFromNodeQueueERK15RenderNodeQueuej16VertexInputMasksi
E3a:__ZN18StreamedBinaryReadILb0EE21TransferSTLStyleArrayI10vector_mapIPKN5Unity4TypeE7Hash128NSt3__24lessIS6_EENS8_9allocatorINS8_4pairIS6_S7_EEEEEEEvRT_17TransferMetaFlags
dB:__ZNK27StateMachineBehaviourPlayer15IsSenderEnabledEv
nQj:__ZN6il2cpp2gc19AppendOnlyGCHashMapINSt3__24pairIPK11Il2CppImageP11Il2CppClassEEP22Il2CppReflectionModule17ReflectionMapHashIS9_ENS2_8equal_toIS9_EEE11TryGetValueERKS9_PSB_
q8i:_RijndaelManagedTransform_TransformBlock_m1610137419
Cqc:__Z40Register_UnityEngine_Transform_SetParentv
OOa:__ZN14Texture2DArray17UploadToGfxDeviceEv
dO:__Z14FMODMemoryFreePvjPKc
Kpa:__ZN9Scripting11UnityEngine12Experimental10PlayerLoop11FixedUpdate12CleanupProxyEv
cLj:_NetFxCoreExtensions_GetMethodInfo_m444570327
lrh:_Type_get_IsSystemType_m624798880
z$e:_Mesh_SetNormals_m2521889643
P$c:_cf2_glyphpath_moveTo
eEc:__Z51Register_UnityEngine_Texture_get_texelSize_Injectedv
q7e:_StackTraceUtility_SetProjectFolder_m830524047
Dx:__ZN7mecanim23TransformValueArrayLoopEiiiRKN4math4trsXES3_RNS_10ValueArrayEf
rwf:_ClientSessionInfo_Finalize_m2165787049
yKc:__ZN5IMGUI14GUIWindowStateD2Ev
ovf:_ClientContext_Clear_m1774063253
XAc:__ZN4Mesh17SetIndicesComplexEPKvjj16GfxPrimitiveTypeij
X3g:_DateTime_AddSeconds_m332574389_AdjustorThunk
d9e:_RequestAtlasCallback_Invoke_m378128467
qsg:_Byte_System_IConvertible_ToSByte_m1869482168
Gji:__Z99RuntimeInvoker_RuntimeObject_RuntimeObject_RuntimeObject_StreamingContext_t3711869237_RuntimeObjectPFvvEPK10MethodInfoPvPS4_
zjj:_AnalyticsEventTracker_Awake_m2780522130
FE:__ZN7mecanim5human10RetargetToEPKNS0_5HumanEPKNS0_9HumanPoseES6_RKN4math4trsXEPS4_PNS_8skeleton13SkeletonPoseTIS8_EESF_
wx:__ZN7mecanim9animation8SeekClipERKNS0_12StreamedClipERNS0_18StreamedClipMemoryEf
SYe:_GameObject_Internal_AddComponentWithType_m3797731663
lm:_emscripten_glIsTexture
Sk:_emscripten_glHint
Dij:_Check_SourceAndPredicate_m2332465641
l7c:_ft_var_readpackeddeltas
Syb:__Z35Transfer_Blittable_FixedBufferFieldI18StreamedBinaryReadILb1EEtEvRK29SerializationCommandArgumentsR31RuntimeSerializationCommandInfo
Eth:_UInt32_System_IConvertible_ToInt64_m2261037378
om:_SDL_UpperBlit
vGa:__Z35GetTextureDecodeValuesWithIntensity16TextureUsageMode17TextureColorSpace10ColorSpacef
lbj:_Parser_ParseRepetitionBounds_m1246581246
Yah:_Array_InternalArray__ICollection_Remove_TisChar_t3634460470_m4143749387_gshared
IUb:__ZN15dense_hashtableINSt3__24pairIK9TextureIDiEES2_14GfxGenericHashIS2_EN14GfxDoubleCacheIS2_iS6_NS0_8equal_toIS2_EEN31GfxDoubleCacheConcurrencyPolicy11LocklessGetE42GfxDoubleCacheDefaultEmptyDeletedGeneratorIS2_EE9SelectKeyES9_13stl_allocatorIS4_L18MemLabelIdentifier24ELi16EEE14squash_deletedEv
dsc:__Z13RegisterClassI14Texture2DArrayEvPKc
Xjh:_Encoding_GetBytes_m3823106599
EAg:_GregorianCalendar__ctor_m979779718
Izf:_SslClientStream__ctor_m2402546929
gUe:_Camera_get_pixelRect_Injected_m2326986893
Aag:_DictionaryNodeEnumerator_get_Entry_m2309234501
X9:__ZN14FileCacherRead16UnlockCacheBlockEj
uH:__ZN26AnimatorOverrideController8TransferI24GenerateTypeTreeTransferEEvRT_
c4:__ZN10InstancingL21OnGraphicsCapsChangedEv
Qle:__ZL101SystemInfo_t3561985952_CustomAttributesCacheGenerator_SystemInfo_GetOperatingSystemFamily_m1440411909P21CustomAttributesCache
tph:_WaitHandle_get_Handle_m3260446580
pJh:_Enumerator_VerifyState_m1745883925_AdjustorThunk
Gc:_emscripten_glUniform1f
LXg:_SortedList__ctor_m1261191695
GYj:__ZN6il2cpp2vm6Thread28GetThreadStaticDataForThreadEiP12Il2CppThread
p_c:__Z20ParseImageParametersR11UTF16StringRiRN20TextRenderingPrivate16TextFormatChangeE
RDe:__ZL55CanvasScaler_t2767979955_CustomAttributesCacheGeneratorP21CustomAttributesCache
Lc:_emscripten_glUniform1i
fub:__Z18Transfer_BlittableI24GenerateTypeTreeTransferLb1EN4math12int3_storageEEvRK29SerializationCommandArgumentsR31RuntimeSerializationCommandInfo
ujf:__Z14bankers_roundff
uY:__ZN11UnityEngine15CloudWebService16SessionContainer20RestoreSessionHeaderERKN4core12basic_stringIcNS2_20StringStorageDefaultIcEEEES8_RNS0_13SessionHeaderE
yjk:__ZN6il2cpp2os12Cryptography23GetCryptographyProviderEv
pu:__ZN11UnityEngine9Animation27CreateAvatarBindingConstantER9TransformPKN7mecanim9animation14AvatarConstantERNS3_6memory9AllocatorE
Wii:__Z151RuntimeInvoker_RuntimeObject_Int32_t2950945753_RuntimeObject_ObjectU5BU5DU26_t712384779_RuntimeObject_RuntimeObject_RuntimeObject_ObjectU26_t2146539884PFvvEPK10MethodInfoPvPS4_
ihd:__ZN8JSONRead19TransferSTLStyleMapINSt3__23mapIN4core12basic_stringIcNS3_20StringStorageDefaultIcEEEEN11UnityEngine9Analytics16LimitEventConfigENS1_4lessIS7_EE13stl_allocatorINS1_4pairIKS7_SA_EEL18MemLabelIdentifier6ELi16EEEEEEvRT_17TransferMetaFlags
vDc:__ZN9BlobWriteC2ER13dynamic_arrayIhLj16EE24TransferInstructionFlags19BuildTargetPlatform
wzd:_CanvasUpdateRegistry__ctor_m2005397069
d8:__ZN14MessageHandler3GetEv
OKd:_MonoMethodInfo_GetCallingConvention_m3156036493
BYe:_SupportedRenderingFeatures_FallbackMixedLightingModeByRef_m3859171964
_c:_emscripten_glAttachShader
c2:__Z40DebugStringToFilePostprocessedStacktraceRK21DebugStringToFileData
oHd:_Image__cctor_m1927508576
_gc:__ZNSt3__26vectorIN4core12basic_stringIcNS1_20StringStorageDefaultIcEEEENS_9allocatorIS5_EEE6assignIPS5_EENS_9enable_ifIXaasr21__is_forward_iteratorIT_EE5valuesr16is_constructibleIS5_NS_15iterator_traitsISC_E9referenceEEE5valueEvE4typeESC_SC_
OUa:__ZThn32_N8Renderer15AddAsRenderNodeER15RenderNodeQueueRK20DeprecatedSourceData
eRb:__ZN13dynamic_arrayIN18GlslGpuProgramGLES9GLProgramELj0EE6insertEPS1_jRKS1_
zMf:_InternalEnumerator_1_get_Current_m3331252162_AdjustorThunk
Dob:__Z18Transfer_BlittableI14SafeBinaryReadLb0E11QuaternionfEvRK29SerializationCommandArgumentsR31RuntimeSerializationCommandInfo
$Bb:__Z18Transfer_BlittableI18StreamedBinaryReadILb0EELb1E12PropertyNameEvRK29SerializationCommandArgumentsR31RuntimeSerializationCommandInfo
M1:_tlsf_walk_heap
Lii:__Z49RuntimeInvoker_Void_t1185182177_OpCode_t123070264PFvvEPK10MethodInfoPvPS4_
cse:__ZL59AnimatorClipInfo_t3156717155_CustomAttributesCacheGeneratorP21CustomAttributesCache
d2g:_Convert_ToUInt32_m3592050311
gb:invoke_vif
KJi:_Component_GetComponents_TisRuntimeObject_m2416546752_gshared
hb:invoke_vid
Rpk:__ZNSt3__212basic_stringIcNS_11char_traitsIcEENS_9allocatorIcEEE6insertEjPKc
jb:invoke_vii
GYb:__ZNK12ImageFilters8DoRenderER17ShaderPassContextP13RenderTextureS3_RKNSt3__26vectorI11ImageFilterNS4_9allocatorIS6_EEEE
Pua:__ZN12TLSAllocatorI14StackAllocatorE16ThreadInitializeEP13BaseAllocator
jki:__Z82RuntimeInvoker_Boolean_t97287965_SByte_t1669577662_RuntimeObject_SByte_t1669577662PFvvEPK10MethodInfoPvPS4_
nhb:__ZN9GfxDevice32UpdateStereoViewProjectionMatrixE21MonoOrStereoscopicEye
M_:__Z29GetCloudWebServicesModuleSpecv
_dd:__Z41CanvasRenderer_CUSTOM_DisableRectClippingP12Il2CppObject
G$f:_MonoType_GetConstructorImpl_m441167626
Cka:__ZL45__ManagedRegistrationHelperFunction_CoroutinePv
$_i:_Collection_1_IsFixedSize_m3709118201_gshared
Afb:__ZN25SingleBlockMemoryFileDataD0Ev
lK:__ZNSt3__26vectorI14ConstantStringNS_9allocatorIS1_EEE6assignINS_11__wrap_iterIPS1_EEEENS_9enable_ifIXaasr21__is_forward_iteratorIT_EE5valuesr16is_constructibleIS1_NS_15iterator_traitsISA_E9referenceEEE5valueEvE4typeESA_SA_
pY:__ZN11UnityEngine15CloudWebService16SessionContainer21ConvertFromFolderTimeERKN4core12basic_stringIcNS2_20StringStorageDefaultIcEEEEPjPt
fPe:_CodeAccessPermission_Equals_m1555575992
nqb:__ZNSt3__26vectorI8GUIStyle13stl_allocatorIS1_L18MemLabelIdentifier1ELi16EEE7reserveEj
p$j:__ZN6il2cpp6icalls8mscorlib6System9Threading6Thread27GetSerializedCurrentCultureEP12Il2CppThread
Owf:_Context_set_ReadSequenceNumber_m2154909392
l8i:_RijndaelTransform_SubByte_m3037693507
Etc:__Z31CalculateHierarchyTransformType23TransformAccessReadOnly
FN:__ZN4FMOD8ChannelI11setPositionEjj
wZe:_Input_INTERNAL_CALL_GetTouch_m3481893561
mfk:_GC_set_fl_marks
h4a:__ZNSt3__26vectorIN30RuntimeInitializeOnLoadManager15ClassMethodInfoE13stl_allocatorIS2_L18MemLabelIdentifier13ELi16EEE7reserveEj
qhb:__ZN9GfxDevice17SetStereoViewportE15StereoscopicEyeRK5RectTIiE
bga:__ZN17BaseObjectManager13StaticDestroyEPv
F0:__GLOBAL__sub_I_Runtime_Graphics_Mesh_1_cpp
Vvj:_CanvasRenderer_INTERNAL_CALL_GetColor_m597074473
Mmh:_UTF7Decoder_GetChars_m3413809261
nT:__ZN12AudioManager14UpdateListenerERK8Vector3fS2_S2_S2_
e7f:_EnumBuilder_GetEvent_m4074915332
B8e:_Vector3_get_forward_m3100859705
HL:__ZN4FMOD6Reverb13setPropertiesEPK22FMOD_REVERB_PROPERTIES
s_b:__ZN9DepthPass13PrepareSubsetEjRK10RenderNodeifRK17ShaderReplaceData
TUg:_String_IndexOf_m3406607758
Qfc:__ZN9ShaderLab20SerializedSubProgram16TextureParameter8TransferI14SafeBinaryReadEEvRT_
l3c:_otv_BaseCoord_validate
dBc:__Z35SetMeshComponentFromArrayFromScriptR4Mesh30InternalScriptingShaderChannel34InternalScriptingVertexChannelTypei17ScriptingArrayPtri
Agh:_Array_InternalArray__ICollection_Add_TisCustomAttributeNamedArgument_t287865710_m4157175270_gshared
Gq:__ZN4core20StringStorageDefaultIcE6assignEPKcj
Juh:_UInt64_System_IConvertible_ToUInt64_m2135047981_AdjustorThunk
Gpf:_BigInteger_ModPow_m3776562770
G6j:__ZN15dense_hashtableINSt3__24pairIK10KeyWrapperIP12Il2CppObjectEN6il2cpp2gc9CachedCCWEEES5_NS7_5utils11PointerHashIS3_EEN14dense_hash_mapIS5_S9_SD_NS5_14EqualsComparerINS0_8equal_toIS4_EEEENS0_9allocatorISA_EEE9SelectKeyESI_SK_E3endEv
wld:__ZNSt3__26__treeINS_12__value_typeIN4core12basic_stringIcNS2_20StringStorageDefaultIcEEEE14CallbackArray3IRKS6_R8JSONReadbEEENS_19__map_value_compareIS6_SD_NS_4lessIS6_EELb1EEE13stl_allocatorISD_L18MemLabelIdentifier6ELi16EEE25__emplace_unique_key_argsIS6_JNS_4pairIS6_SC_EEEEENSN_INS_15__tree_iteratorISD_PNS_11__tree_nodeISD_PvEEiEEbEERKT_DpOT0_
Pyf:_RecordProtocol_ProcessChangeCipherSpec_m15839975
Aug:_ArrayList_IndexOf_m305368842
r8b:__ZN6Camera6SetFarEf
uLe:_FormatterConverter_ToBoolean_m1680758923
nja:__ZN6prcoreL12RemapGenericI17TexFormatABGR888817TexFormatARGB8888EEvPKNS_9InnerInfoE
mva:__ZN11GameManager17MainThreadCleanupEv
_Xh:_ReadOnlyCollection_1__ctor_m1345363288_gshared
Hdd:__Z50Register_UnityEngine_UISystemProfilerApi_EndSamplev
vMe:_SerializationCallbacks_GetSerializationCallbacks_m2939476649
Z5c:_UNITY_tt_slot_init
aWb:__ZZ23InitPlayerLoopCallbacksvEN41PostLateUpdateUpdateResolutionRegistrator7ForwardEv
QDb:__Z25scripting_array_class_get17ScriptingClassPtrj
aOc:__ZL22Transfer_ManagedObjectI9JSONWriteLb1EEvRK29SerializationCommandArgumentsR31RuntimeSerializationCommandInfo
gS:__ZNK10SampleClip22GetTypeVirtualInternalEv
iib:__ZN9GfxDevice20DestroyRenderSurfaceER12ObjectHandleI17RenderSurface_TagP17RenderSurfaceBaseE
AYg:_Stack__ctor_m2602729586
fqg:_Array_slow_swapper_m4116724811
j7b:__ZN12_GLOBAL__N_15qAsinEff
xEf:_InternalEnumerator_1_System_Collections_IEnumerator_get_Current_m2629988057_AdjustorThunk
Qua:__ZN12TLSAllocatorI14StackAllocatorE13ThreadCleanupEv
JZa:__ZN14SafeBinaryRead21TransferSTLStyleArrayI13dynamic_arrayI8Vector4fLj0EEEEvRT_17TransferMetaFlags
Sck:__ZThn4_N6il2cpp2vm13ComObjectBase16MarshalInterfaceEP13Il2CppIStreamRK10Il2CppGuidPvjS7_j
Q$g:_Convert_ToDouble_m996590115
Hdc:__Z27FindActiveTransformWithPathPKc
w0h:_ReadOnlyCollection_1_System_Collections_IList_Remove_m4169110229_gshared
ith:_UInt16_ToString_m3020002356
_ff:_LayoutRebuilder_LayoutComplete_m68578143
Ngj:_GUIStyle_get_fixedWidth_m2576616348
$Xg:_SortedList_Find_m3363512987
z0b:__ZNK6Camera7GetNearEv
O7f:_GenericTypeParameterBuilder_GetConstructorImpl_m863833310
ZRf:_Enumerator_get_Current_m3687673883_AdjustorThunk
wcd:__ZN2UI13CanvasManager8SortListEv
NQb:__ZN7ApiGLES11UnmapBufferEjN2gl12BufferTargetE
hdk:__ZN6il2cpp5utilsL24Utf32CharToSurrogatePairEjRA2_Ds
CRa:__Z25GetNextAllowedTextureSizeib13TextureFormat
HGb:__ZN20LocalFileSystemWebGL4CopyER13FileEntryDataS1_
v$:__ZN19CloudServiceHandler6RetainEv
QYh:_ReadOnlyCollection_1_System_Collections_IList_IndexOf_m198887188_gshared
Tui:__Z71RuntimeInvoker_Vector2_t2156229523_Vector2_t2156229523_Rect_t2360479859PFvvEPK10MethodInfoPvPS4_
xIc:__Z36Event_CUSTOM_Internal_SetNativeEventPv
cmh:_UTF32Encoding_GetBytes_m3180303867
B_h:_ReadOnlyCollection_1_System_Collections_IList_Clear_m2007013334_gshared
I8a:__Z34scripting_liveness_calculation_endPv
Usg:_Char_GetDataTablePointers_m754571594
x9j:__ZN6il2cpp2os6ThreadC2Ev
Ovc:__ZN28ReflectionProbeAnchorManager7CleanupEv
Z4g:_DateTimeOffset_get_UtcDateTime_m1021718282_AdjustorThunk
Rw:__ZN21AnimationClipPlayable22ProcessAnimationNoClipEPK35AnimationPlayableEvaluationConstantPK32AnimationPlayableEvaluationInputP33AnimationPlayableEvaluationOutput
X9f:_HybridDictionary_get_Count_m1166314536
h4i:_TlsStream_Write_m1412844442
DPc:__Z18Transfer_BlittableI8JSONReadLb0E8Vector3fEvRK29SerializationCommandArgumentsR31RuntimeSerializationCommandInfo
hYj:__ZN6il2cpp2vm6Thread6DetachEP12Il2CppThread
K4i:_GeneralNames_get_DNSNames_m3788548987
R8c:_Render_Single_Pass
Ftj:_Hacker_OnUserInput_m1095014035
Vka:__ZL56__ManagedRegistrationHelperFunction_TextureMixerPlayablePv
Du:__ZN7mecanim8skeleton30SkeletonBuildReverseIndexArrayEPiPKiPKNS0_8SkeletonES6_
UIc:__Z19GetGUIBlendMaterialv
k_f:_Math_Round_m3018379666
nak:__ZN6il2cpp2os10ThreadImpl5SleepEjb
SYh:_ReadOnlyCollection_1_System_Collections_IList_Remove_m1965826685_gshared
pmd:__ZN22BaseUnityConnectClient12IsNewSessionEv
sue:__ZL82LayoutCache_t78309876_CustomAttributesCacheGenerator_LayoutCache__ctor_m3885940174P21CustomAttributesCache
Y6g:_Delegate_CreateDelegate_m1051651521
ech:_PlayableHandle_IsPlayableOfType_TisRuntimeObject_m503495943_AdjustorThunk
jxk:_glBindSampler__wrapper
iVb:__ZNSt3__26vectorIN20ArchiveStorageHeader12StorageBlockE13stl_allocatorIS2_L18MemLabelIdentifier55ELi16EEE8__appendEj
Gf:_emscripten_set_mouseup_callback
G_e:_Mathf_Clamp_m3350697880
wki:__Z165RuntimeInvoker_Void_t1185182177_UInt32U26_t3735378166_Int32_t2950945753_UInt32U26_t3735378166_Int32_t2950945753_Int32_t2950945753_Int32_t2950945753_Int32_t2950945753PFvvEPK10MethodInfoPvPS4_
$Og:_SHA384Managed_processWord_m3832940157
uhg:_X509ChainElementCollection_System_Collections_IEnumerable_GetEnumerator_m3829089536
AGb:__ZNK18ScreenManagerWebGL8GetWidthEv
Vph:_TimeSpan_get_TotalHours_m306507525_AdjustorThunk
dS:__ZN10SampleClipD2Ev
i7h:_Predicate_1_Invoke_m2389850270_gshared
a8a:__Z13GetGISettingsv
f$:__ZN11UnityEngine15CloudWebService20WebRequestRestClientC2Ev
y1c:_cff_cmap_unicode_init
iah:_Array_InternalArray__ICollection_Contains_TisRuntimeObject_m4067783231_gshared
ika:__ZL60__ManagedRegistrationHelperFunction_AssemblyIsEditorAssemblyPv
EZi:_Collection_1_IsValidItem_m3080586124_gshared
Yzd:_ClipperRegistry_Register_m2407166513
rok:_readlink
HRj:__ZN15dense_hashtableINSt3__24pairIK10KeyWrapperINS1_IPK9EventInfoP11Il2CppClassEEEjEES9_17ReflectionMapHashIS8_EN14dense_hash_mapIS9_jSD_NS9_14EqualsComparerINS0_8equal_toIS8_EEEENS0_9allocatorISB_EEE9SelectKeyESI_SK_E12resize_deltaEjj
JKd:_MonoCMethod_Invoke_m2700167622
pXg:_KeyMarker__cctor_m2590194914
zkk:__ZN6il2cpp2os13SemaphoreImplC2Eii
V_a:__ZNK6Sprite9GetBoundsE8Vector2fbb
Qza:__ZNK19RenderEventsContext21CleanupCommandBuffersEv
avj:_TextGenerator_PopulateWithErrors_m1222498386
D$h:_ReadOnlyCollection_1_System_Collections_Generic_ICollectionU3CTU3E_Clear_m2102011098_gshared
mOb:__ZN11ContextGLES6CreateEi
JPi:_List_1_set_Capacity_m3382070520_gshared
yef:_U3CMouseDragOutsideRectU3Ec__Iterator1_Dispose_m267465418
z6g:_Decimal_CompareTo_m3502307243_AdjustorThunk
QCb:__Z19TransferField_ArrayI18StreamedBinaryReadILb0EE27Converter_SimpleNativeClassI17AnimationCurveTplIfEEEvRK23StaticTransferFieldInfoR31RuntimeSerializationCommandInfoRT0_
iva:__ZN14StackAllocator16FrameMaintenanceEb
fUa:__Z18ReadStringFromFilePN4core17string_with_labelILi1EEERKNS_12basic_stringIcNS_20StringStorageDefaultIcEEEE
wOc:__ZN9JSONWrite8TransferI13dynamic_arrayIjLj0EEEEvRT_PKc17TransferMetaFlags
Iaa:__ZNK10GameObject20QueryComponentByTypeEPKN5Unity4TypeE
S5g:_Decimal_System_IConvertible_ToInt32_m1488426794_AdjustorThunk
M_f:_MonoCustomAttrs_IsUserCattrProvider_m2878058089
BBe:__ZL71InputField_t3762917431_CustomAttributesCacheGenerator_m_HideMobileInputP21CustomAttributesCache
lQa:__ZN11TextureData5ResetEv
Nnc:__Z53Register_UnityEngine_GameObject_get_activeInHierarchyv
eQg:_ToBase64Transform_InternalTransformFinalBlock_m360524956
qng:_ActivationContext_Dispose_m2038725770
O5:__ZL30InitializeCoreScriptingClassesv
aGa:__ZN15SerializeTraitsI12fixed_bitsetILi28EjEE8TransferI18StreamedBinaryReadILb0EEEEvRS1_RT_
Dg:_glBlitFramebuffer
csb:__Z35Transfer_Blittable_SingleValueFieldI14SafeBinaryReadhEvRT_R17GeneralMonoObjectRK23StaticTransferFieldInfo
Dkc:__ZN12CachedWriter15CompleteWritingEv
tQa:__ZNK12CubemapArray22GetTypeVirtualInternalEv
Kn:FUNCTION_TABLE_vif
Ln:FUNCTION_TABLE_vid
Nn:FUNCTION_TABLE_vii
T8a:__Z40scripting_liveness_calculation_from_root18ScriptingObjectPtrPv
NKa:__ZN7Texture23VirtualRedirectTransferER24GenerateTypeTreeTransfer
JYc:_UNITY_FT_Set_Transform
s5j:__ZN6il2cpp8metadata15GenericMetadata20RegisterGenericClassEP18Il2CppGenericClass
Owk:_glDeleteFramebuffers__wrapper
Ugi:__Z220RuntimeInvoker_Boolean_t97287965_RuntimeObject_Int32U26_t1369213839_Int32_t2950945753_Int32_t2950945753_Int32_t2950945753_RuntimeObject_SByte_t1669577662_Int32_t2950945753_ContractionU26_t961830454_ContextU26_t3937453398PFvvEPK10MethodInfoPvPS4_
eoc:__Z36Register_UnityEngine_RectOffset_Initv
cQh:_BitConverterLE_GetUIntBytes_m949779219
I$c:_cff_blend_build_vector
wdg:_WebHeaderCollection_ToString_m1263025316
RMd:_GetterAdapter_Invoke_m3767885970
KQi:_List_1__ctor_m747758800_gshared
rWg:_String_CreateString_m2818852475
rwj:_CanvasRenderer_get_hasMoved_m2236392341
N0e:_MessageEvent__ctor_m1231650089
Tab:__ZNK15Lz4Decompressor16DecompressMemoryEPKvPjPvS2_
nza:__Z11IsCoroutine18ScriptingMethodPtrRK22CommonScriptingClasses
okc:__ZN4core8hash_mapINS_12basic_stringIcNS_20StringStorageDefaultIcEEEE10vector_setI4PPtrI11SpriteAtlasENSt3__24lessIS8_EE13stl_allocatorIS8_L18MemLabelIdentifier81ELi16EEENS_4hashIS4_EENS9_8equal_toIS4_EEEixERKS4_
yNa:__Z35UnityPropertySheet_MakeSortedColorsRKNSt3__23mapIN9ShaderLab16FastPropertyNameE10ColorRGBAfNS_4lessIS2_EENS_9allocatorINS_4pairIKS2_S3_EEEEEER10vector_mapIS2_S3_S5_NS6_INS7_IS2_S3_EEEEE
An:FUNCTION_TABLE_iiiiiiffiiiiiiiiiffffiii
P3c:_UNITY_tt_face_load_os2
hih:_Array_InternalArray__ICollection_CopyTo_TisUICharInfo_t75501106_m4268526610_gshared
xrb:__Z29Transfer_Blittable_ArrayFieldI14SafeBinaryRead8Vector4fEvRT_R9ArrayInfoRK23StaticTransferFieldInfo
g8j:__GLOBAL__sub_I_BoehmGC_cpp
RG:__ZNK26AnimatorOverrideController22GetTypeVirtualInternalEv
y4f:_Default_check_arguments_m3882727959
enh:_UTF8Encoding_GetMaxCharCount_m3762459613
F5f:_ModuleBuilder_RegisterToken_m4166846047
TVb:__ZZ23InitPlayerLoopCallbacksvEN51PostLateUpdateUpdateCustomRenderTexturesRegistrator7ForwardEv
hif:_RawImage_OnPopulateMesh_m1115858855
eJj:__ZN6il2cpp2vm13MetadataCache25GetStringLiteralFromIndexEi
Rng:_Hashtable_ToPrime_m33531354
ox:__ZN7mecanim9animation12EvaluateClipEPKNS0_4ClipEPKNS0_9ClipInputEPNS0_10ClipMemoryEPNS0_10ClipOutputE
iVh:_Collection_1_IsSynchronized_m1117613618_gshared
uV:__ZN11AudioModule6UpdateEv
ESf:_KeyCollection_System_Collections_Generic_ICollectionU3CTKeyU3E_Remove_m2555909644_gshared
auj:_Keyboard_WarnIfTerminalNotConneced_m1063217717
nsh:_TypeInitializationException__ctor_m3546444694
Vpc:__ZNK9Transform16GetLocalRotationEv
h_:__ZN11UnityEngine15CloudWebService23WebRequestUploadHandler17ConsumeUploadDataEj
ALg:_MemoryStream_set_Position_m3169779190
l7b:__ZN13RenderManager29SetCurrentCameraAndStackStateEP6CameraP25CameraStackRenderingState
Sud:_ExecuteEvents_get_scrollHandler_m2659345019
Jva:__ZNSt3__26__treeINS_12__value_typeIjN4core12basic_stringIcNS2_20StringStorageDefaultIcEEEEEENS_19__map_value_compareIjS7_NS_4lessIjEELb1EEE13stl_allocatorIS7_L18MemLabelIdentifier7ELi16EEE7destroyEPNS_11__tree_nodeIS7_PvEE
k_j:__ZN15dense_hashtableINSt3__24pairIK10KeyWrapperINS1_IP11Il2CppClassjEEES4_EES6_N6il2cpp8metadata14ArrayClassHashEN14dense_hash_mapIS6_S4_SB_NS6_14EqualsComparerINSA_17ArrayClassCompareEEENS0_9allocatorIS8_EEE9SelectKeyESF_SH_E12resize_deltaEjj
Sh:_JS_WebRequest_Release
_le:__ZL85Time_t2420636075_CustomAttributesCacheGenerator_Time_t2420636075____time_PropertyInfoP21CustomAttributesCache
RY:__ZN11UnityEngine15CloudWebService14DataErrorEventD0Ev
w1j:__ZN6il2cpp6icalls8mscorlib6System4Type20internal_from_handleEi
iSd:_Context__ctor_m254302079
Ppa:__ZN9Scripting11UnityEngine12Experimental9Playables20TextureMixerPlayable9InitProxyEv
nTa:__ZN19ShaderPropertySheet16SetArrayPropertyEN9ShaderLab16FastPropertyNameENS_12PropertyTypeEPKvj
bkf:_Selectable_FindSelectable_m2348614027
ejh:_DecoderReplacementFallbackBuffer_GetNextChar_m2858228391
vDd:_DropdownItem_OnPointerEnter_m1492957598
kbd:__ZN2UI11CanvasGroup23VirtualRedirectTransferER19StreamedBinaryWriteILb0EE
Tqa:__ZN9Scripting11UnityEngine9BoundsInt9InitProxyEv
Bkd:__ZN11UnityEngine15PlatformWrapper16GetApplicationIdEv
e6c:_UNITY_TT_Get_VMetrics
dhg:_X509Chain__cctor_m993507223
Pvg:_SimpleEnumerator__cctor_m2844299657
WZf:_LocalDataStoreSlot__ctor_m4104083971
P0h:_ReadOnlyCollection_1_System_Collections_Generic_IListU3CTU3E_RemoveAt_m3849058645_gshared
Gmj:_AudioSource_ReadExtensionName_m725112169
K6i:_X509CertificateEnumerator_System_Collections_IEnumerator_Reset_m2039524926
Gni:__Z128RuntimeInvoker_Void_t1185182177_RuntimeObject_BooleanU26_t4125257963_SByte_t1669577662_Int32U26_t1369213839_Int32U26_t1369213839PFvvEPK10MethodInfoPvPS4_
kLa:__ZN7Texture21GetMasterTextureLimitEv
S1a:__ZN13dynamic_arrayI9InputAxisLj0EE18resize_initializedEj12ResizePolicy
d9b:__Z12CanAddScriptR10GameObject17ScriptingClassPtrPS1_S2_
GUj:__ZN6il2cpp2vm10Reflection12HasAttributeEP12Il2CppObjectP11Il2CppClass
T3h:_Comparison_1_BeginInvoke_m3263247262_gshared
I4:__ZN9ShaderLabL25StaticInitializeShaderLabEPv
U:Math_max
kEe:__ZL64HorizontalLayoutGroup_t2586782146_CustomAttributesCacheGeneratorP21CustomAttributesCache
yWj:_il2cpp_class_get_methods
QSc:__GLOBAL__sub_I_artifacts_WebGL_codegenerator_0_cpp_3495
iub:__Z18Transfer_BlittableI24GenerateTypeTreeTransferLb0EN4math12int2_storageEEvRK29SerializationCommandArgumentsR31RuntimeSerializationCommandInfo
C7g:_StackTrace_get_trace_m1194606084
STg:_Single_CompareTo_m2785801815_AdjustorThunk
F9j:__ZN6il2cpp2os6Thread16GetCurrentThreadEv
Yld:__ZN11UnityEngine7Connect20RemoteConfigSettings10UnregisterEv
rFi:_Array_InternalArray__Insert_TisUILineInfo_t4195266810_m3191124053_gshared
dlc:__ZN10GameObject13ComponentPair15SetComponentPtrEPN5Unity9ComponentE
fvk:_glBlitFramebuffer__wrapper
Pva:__ZN10TagManager8TransferI19StreamedBinaryWriteILb0EEEEvRT_
n8a:__ZN11PreloadData23VirtualRedirectTransferER18StreamedBinaryReadILb0EE
ora:__ZN9Scripting11UnityEngine24AssemblyIsEditorAssembly12CleanupProxyEv
atg:_Char_System_IConvertible_ToDateTime_m3564102661
MK:__ZN13RuntimeStaticINSt3__26vectorI12WebCamDeviceNS0_9allocatorIS2_EEEELb0EE13StaticDestroyEPv
KWa:__ZN6Sprite17MainThreadCleanupEv
ovk:_glBlendFuncSeparate__wrapper
FP:__ZN10AudioMixer14UpdateMuteSoloEv
RAa:__ZN12BaseRenderer25FlattenSharedMaterialDataILb0EEEbRKS_R22PerThreadPageAllocatorR10RenderNode
fxa:__ZN9Transform35SetLocalPositionWithoutNotificationERKN4math7_float3Ey
oie:__ZL101MonoBehaviour_t3962482529_CustomAttributesCacheGenerator_MonoBehaviour_StartCoroutine_Auto_m594129169P21CustomAttributesCache
Ti:_JS_Eval_ClearTimeout
Vif:_Raycast2DCallback_Invoke_m1500574149
Kmb:__ZN7ApiGLES16SetPatchVerticesEi
Wcj:_CharacterClass_Compile_m3296067317
h9j:__ZN6il2cpp2gc16GarbageCollector16InvokeFinalizersEv
psg:_Byte_System_IConvertible_ToInt64_m285584218_AdjustorThunk
r4e:_Rect_get_size_m477575021_AdjustorThunk
VAj:__ZN6il2cpp2vm5Class20FromGenericParameterEPK22Il2CppGenericParameter
S$:__ZN19CloudServiceHandler11FlushEventsEv
wfa:__ZN15GlobalCallbacksC2Ev
Cgh:_Array_InternalArray__ICollection_Add_TisLabelData_t360167391_m1648183135_gshared
hPf:_Comparer_1_System_Collections_IComparer_Compare_m2016223770_gshared
q_h:_ReadOnlyCollection_1_System_Collections_Generic_ICollectionU3CTU3E_Add_m1738170497_gshared
Dmi:__Z74RuntimeInvoker_DateTime_t3738529785_DateTime_t3738529785_Int32_t2950945753PFvvEPK10MethodInfoPvPS4_
v_c:_UNITY_FT_New_Memory_Face
A0i:_Collection_1_System_Collections_IList_IndexOf_m3271188411_gshared
lLg:_MonoIO_GetFileStat_m678141354
e2c:_UNITY_FT_Load_Sfnt_Table
_Bd:__Z15CastclassSealedP12Il2CppObjectP11Il2CppClass
o6g:_Decimal_IsZero_m4250358244_AdjustorThunk
HZf:_UnmanagedMemoryStream_get_CanRead_m3770815400
T7b:__ZN16ReflectionProbes40UpdateRealtimeReflectionProbesTimeslicedEv
_Wa:__ZN14SafeBinaryRead21TransferSTLStyleArrayI13dynamic_arrayI8Vector2fLj0EEEEvRT_17TransferMetaFlags
BZg:_Decimal_u64_m3374804932
Gsh:_UInt16_System_IConvertible_ToInt32_m1950778303_AdjustorThunk
S3a:__ZNK30RuntimeInitializeOnLoadManager22GetTypeVirtualInternalEv
aGj:__ZN15dense_hashtableINSt3__24pairIK10KeyWrapperIN6il2cpp5utils13dynamic_arrayIPK10Il2CppTypeLj4EEEEPFvvEEESA_NS3_8metadata19Il2CppSignatureHashEN14dense_hash_mapISA_SD_SG_NSA_14EqualsComparerINSF_22Il2CppSignatureCompareEEENS0_9allocatorISE_EEE9SelectKeyESK_SM_E12resize_deltaEjj
vwc:__ZN16ReflectionProbes15InitializeClassEv
$Y:__ZN13dynamic_arrayIN11UnityEngine15CloudWebService14DataErrorEvent15FileErrorDetailELj0EE18resize_initializedEj12ResizePolicy
y_h:_ReadOnlyCollection_1_System_Collections_ICollection_CopyTo_m2527663815_gshared
X2j:__ZN6il2cpp2vm5Image9GetCorlibEv
naf:_Vector3_get_left_m2428419009
g7j:__ZN6il2cpp2vm11MethodStack17GetStackFramesRawEv
bgk:_GC_reclaim_uninit
Fud:_ExecuteEvents_Execute_m113814934
Sba:__ZN13RuntimeStaticINSt3__23mapIN4core12basic_stringIcNS2_20StringStorageDefaultIcEEEES6_NS0_4lessIS6_EE13stl_allocatorINS0_4pairIKS6_S6_EEL18MemLabelIdentifier13ELi16EEEELb0EE13StaticDestroyEPv
zVe:_Coroutine_ReleaseCoroutine_m947702340
oPf:_Enumerator_System_Collections_IEnumerator_get_Current_m2979767597_AdjustorThunk
q9h:__ZN30GenericInterfaceActionInvoker1I17Color_t2555686324E6InvokeEPK10MethodInfoP12Il2CppObjectS0_
eSe:_MD5CryptoServiceProvider_ProcessFinalBlock_m2241588515
llf:_ScrollRect_GetBounds_m449872505
Rj:_glIsVertexArray
Dmg:_SmallXmlParser_Read_m3485223434
FFg:_Int16_Parse_m2276856944
Zad:__ZL42__ManagedRegistrationHelperFunction_CanvasPv
ea:invoke_fff
gok:_mbsinit
Ztk:b14
$Dc:__Z34RenderTexture_Get_Custom_PropWidthP12Il2CppObject
Qbd:__ZN2UI6Canvas17MainThreadCleanupEv
gja:__ZN6prcoreL12RemapGenericI17TexFormatARGB155517TexFormatRGBA8888EEvPKNS_9InnerInfoE
OCj:__ZN13Il2CppHashMapIPK19Il2CppGenericMethodPK26Il2CppGenericMethodIndicesN6il2cpp8metadata23Il2CppGenericMethodHashENS7_26Il2CppGenericMethodCompareENSt3__29allocatorINSA_4pairIK10KeyWrapperIS2_ES5_EEEEEC2EjRKS8_RKS9_
LId:_TypeBuilder_HasElementTypeImpl_m1871001960
XSg:_SecurityFrame__ctor_m2140076703_AdjustorThunk
AHi:_Array_Resize_TisVector2_t2156229523_m3382835435_gshared
mBh:_DefaultComparer_Equals_m2458578172_gshared
dnb:__ZN7ApiGLES13CreateProgramEv
aIa:__ZN11HaloManager7AddHaloEv
PPf:_Enumerator_VerifyState_m4003066746_gshared
ORa:__ZN4crnd12crn_unpackerD2Ev
aL:__ZN9Scripting11UnityEngine12Experimental5Audio19AudioSampleProvider9InitProxyEv
fk:_emscripten_glTexImage2D
bOf:_Comparer_1_System_Collections_IComparer_Compare_m2537217645_gshared
QCa:__ZN16MeshVertexFormat20GetVertexDeclarationER9GfxDevice16VertexInputMasksPKS_
D5:__ZN18ScriptingArguments9AddStringEPKc
vgk:_setup_header
Utg:_Char_ToString_m3588025615
BQh:_CryptoConvert_ToCapiKeyBlob_m3371450375
fPa:__ZL23stbir__resize_arbitraryPvPKviiiS_iiiffffPfiij14stbir_datatype12stbir_filterS4_10stbir_edgeS5_16stbir_colorspace
Cub:__Z18Transfer_BlittableI24GenerateTypeTreeTransferLb1E8Vector4fEvRK29SerializationCommandArgumentsR31RuntimeSerializationCommandInfo
buk:b18
qk:_pthread_detach
gKj:__ZN6il2cpp2vm19SocketPollingThread7RunLoopEv
bEd:_FontUpdateTracker_UntrackText_m1981515690
DFe:__ZL64AnalyticsEventTracker_t2285229262_CustomAttributesCacheGeneratorP21CustomAttributesCache
Izc:__ZN15DirectorManager20ScheduleGraphDestroyERK14HPlayableGraph
FDb:__ZNSt3__213__stable_sortIRN10vector_mapI17ScriptingClassPtrPKN5Unity4TypeENS_4lessIS2_EENS_9allocatorINS_4pairIS2_S6_EEEEE13value_compareENS_11__wrap_iterIPSB_EEEEvT0_SJ_T_NS_15iterator_traitsISJ_E15difference_typeEPNSM_10value_typeEi
iNh:_SimpleCollator_FillSurrogateSortKeyRaw_m725998232
WSi:_List_1_AddEnumerable_m1284696147_gshared
Jcg:_IPAddress_Equals_m1823478787
USd:_Context_CreateNewContext_m3053563976
zhc:__ZN9ShaderLab25SerializedTextureProperty8TransferI24GenerateTypeTreeTransferEEvRT_
ySj:__ZN6il2cpp2gc19AppendOnlyGCHashMapINSt3__24pairIPK14Il2CppAssemblyP11Il2CppClassEEP24Il2CppReflectionAssembly17ReflectionMapHashIS9_ENS2_8equal_toIS9_EEEC2Ev
oxb:__Z18Transfer_BlittableI19StreamedBinaryWriteILb0EELb0EdEvRK29SerializationCommandArgumentsR31RuntimeSerializationCommandInfo
v0:__GLOBAL__sub_I_Runtime_Camera_RenderLoops_2_cpp
lua:__ZN11NamedObject8TransferI18StreamedBinaryReadILb0EEEEvRT_
cXe:_InvokableCall_remove_Delegate_m1376110510
kyg:_Hashtable_Clear_m3112193608
Omh:_UTF8Encoding_InternalGetByteCount_m771565606
BQc:__Z18Transfer_BlittableI8JSONReadLb1EyEvRK29SerializationCommandArgumentsR31RuntimeSerializationCommandInfo
dOi:_List_1_System_Collections_IList_Remove_m3654336679_gshared
Tpe:__ZL51GUILayer_t2783472903_CustomAttributesCacheGeneratorP21CustomAttributesCache
SCa:__ZN9GfxDevice20GetVertexDeclarationERK18VertexChannelsInfoNS_30VertexDeclarationMRUCacheIndexE
Nk:_emscripten_glMatrixMode
uhf:_MaskableGraphic_UnityEngine_UI_IClippable_get_gameObject_m1739855597
Yu:__ZN8Animator23VirtualRedirectTransferER18StreamedBinaryReadILb0EE
sEg:_Guid__ctor_m3562600567_AdjustorThunk
h3g:_DateTime_System_IConvertible_ToInt16_m3239820399
jY:__ZN11UnityEngine15CloudWebService14DataDispatcher16PrepareDataBlockERNS0_16SessionContainerE
VTb:__ZN18GfxFramebufferGLES5ClearE13GfxClearFlagsRK10ColorRGBAffib
cgh:_MonoProperty_StaticGetterAdapterFrame_TisRuntimeObject_m4131530968_gshared
eCb:__ZL26Transfer_SimpleNativeClassI18StreamedBinaryReadILb0EE10RectOffsetLb0EEvRK29SerializationCommandArgumentsR31RuntimeSerializationCommandInfo
kHf:_InternalEnumerator_1_get_Current_m2316281569_gshared
c_b:__ZL12DepthPassJobPN21GfxDeviceAsyncCommand10ArgScratchEPKNS_3ArgE
Sfc:__ZNSt3__26vectorIN9ShaderLab20SerializedSubProgram16TextureParameterENS_9allocatorIS3_EEE6assignINS_11__wrap_iterIPS3_EEEENS_9enable_ifIXaasr21__is_forward_iteratorIT_EE5valuesr16is_constructibleIS3_NS_15iterator_traitsISC_E9referenceEEE5valueEvE4typeESC_SC_
b0e:_MonoBehaviour_IsInvoking_m3285132449
SLc:__ZN5Unity9rapidjson6WriterI16TempBufferWriterNS0_4UTF8IcEES4_13JSONAllocatorE11WriteDoubleEd
vjd:__ZThn1172_N18UnityConnectClientD0Ev
uoh:_Thread_SetCachedCurrentUICulture_m1729523031
olb:__ZN14GfxDeviceStats16CopyAllDrawStatsERKS_
nvf:_ClientContext_set_ClientHelloProtocol_m4189379912
Om:FUNCTION_TABLE_iiiiiiiiiiii
zSi:_List_1_get_Item_m1686506901_gshared
XEa:__ZN16GraphicsSettingsD0Ev
v2:__Z12FormatBufferPciPKcz
Old:__ZNSt3__26__treeINS_12__value_typeIN4core12basic_stringIcNS2_20StringStorageDefaultIcEEEE14CallbackArray3IRKS6_R8JSONReadbEEENS_19__map_value_compareIS6_SD_NS_4lessIS6_EELb1EEE13stl_allocatorISD_L18MemLabelIdentifier6ELi16EEE7destroyEPNS_11__tree_nodeISD_PvEE
n:cttz_i8
w$c:_UNITY_FT_GlyphLoader_Add
Xod:__ZN9Scripting11UnityEngine10Networking29UnityWebRequestAsyncOperation9InitProxyEv
anj:_AudioListener_INTERNAL_CALL_ReadExtensionPropertyName_m330480156
J1g:_Convert_ToUInt16_m867476252
Kl:_emscripten_glViewport
Zck:__ZN6il2cpp6icalls8mscorlib6System15MonoCustomAttrs17IsDefinedInternalEP12Il2CppObjectP20Il2CppReflectionType
Fxj:_SkeletonBone_t4134054672_marshal_pinvoke_back
Pqa:__ZN9Scripting11UnityEngine10CacheIndex9InitProxyEv
T0c:_cff_parse_font_bbox
rMh:_MSCompatUnicodeTable_Category_m1834196420
g2a:__ZN14PlayerSettings23VirtualRedirectTransferER18StreamedBinaryReadILb0EE
pgi:__Z85RuntimeInvoker_Void_t1185182177_Int32_t2950945753_Int32_t2950945753_Int32_t2950945753PFvvEPK10MethodInfoPvPS4_
p8g:_Double_CompareTo_m3151899116
Flk:__ZN6il2cpp2os5Event5ResetEv
g4c:_tt_name_ascii_from_other
Blj:_ToggleGroup__ctor_m3308114662
a5j:__ZN6il2cpp8metadata15GenericMetadata17InflateParametersEPK13ParameterInfohPK20Il2CppGenericContextb
VNg:_RSAParameters_t1728406613_marshal_pinvoke_back
oIi:_Array_Sort_TisUILineInfo_t4195266810_m3737783007_gshared
Mqc:__ZNK17AnimationCurveTplIfE8EvaluateEfPNS0_5CacheE
ly:__ZNK17AnimationPlayable27GetNextCompatibleDescendantEj
w_c:__ZN13dynamic_arrayIN4core17string_with_labelILi35EEELj0EE6insertEPS2_jRKS2_
kve:__ZL64GUIUtility_t1868551600_CustomAttributesCacheGenerator_s_SkinModeP21CustomAttributesCache
q4i:_TlsStream_Write_m188217214
c3c:_otv_LigatureSubst_validate
nHb:__Z25SetNeedToPerformRenderingb
qEc:__Z45MonoBehaviour_CUSTOM_Internal_CancelInvokeAllP12Il2CppObject
khd:__ZN8JSONRead12TransferPairINSt3__24pairIN4core12basic_stringIcNS3_20StringStorageDefaultIcEEEEN11UnityEngine9Analytics16LimitEventConfigEEEEEvRT_17TransferMetaFlagsPKN5Unity9rapidjson12GenericValueINSG_4UTF8IcEE13JSONAllocatorEE
pwa:__ZN10GameObjectD2Ev
q_b:__ZN14qsort_internal30FindAndMovePivotToLastPositionIP15RODataDepthPassi17ROSorterDepthPassEEvT_S4_T0_T1_
R6b:__ZN12CullingGroup10SendEventsEPK17CullingGroupEventj
fwd:_PointerInputModule__ctor_m3728889932
PUa:__ZThn32_NK8Renderer8GetLayerEv
NIh:_Enumerator_System_Collections_IEnumerator_Reset_m2915500989_gshared
Y0c:_cff_parse_vsindex
QFg:_Int32_ValidDigit_m1059003769
yzk:_emscripten_glTexParameterfv__wrapper
x5e:_RectTransform_INTERNAL_get_sizeDelta_m2173368204
iff:_LayoutGroup_get_rectTransform_m442863741
Kob:__Z18Transfer_BlittableI14SafeBinaryReadLb1E9BoundsIntEvRK29SerializationCommandArgumentsR31RuntimeSerializationCommandInfo
ftc:__ZN2UI13RectTransform17GetLocalPositionZEv
Gwk:b63
pXj:_il2cpp_method_get_param_count
uba:__ZNK5Unity4Type21FindAllDerivedClassesER13dynamic_arrayIPKS0_Lj0EENS0_17TypeFilterOptionsE
Apc:__ZN10systeminfo19ISOToSystemLanguageERN4core12basic_stringIcNS0_20StringStorageDefaultIcEEEE
rRj:__ZNK15dense_hashtableINSt3__24pairIK10KeyWrapperINS1_IPK12PropertyInfoP11Il2CppClassEEEjEES9_17ReflectionMapHashIS8_EN14dense_hash_mapIS9_jSD_NS9_14EqualsComparerINS0_8equal_toIS8_EEEENS0_9allocatorISB_EEE9SelectKeyESI_SK_E3endEv
jvh:_UnauthorizedAccessException__ctor_m40101894
iod:__ZN22BaseUnityConnectClient14AppRunningTickEj
c8c:_ps_dimension_done
G9c:__Z46Register_UnityEngine_TextGenerator_Dispose_cppv
t8g:_Double_Parse_m4153729520
tbi:_IndexedSet_1_AddUnique_m861843892_gshared
OVa:__ZN16LightmapSettings8TransferI14SafeBinaryReadEEvRT_
hOb:__ZN17BufferManagerGLES13ReleaseBufferEP14DataBufferGLES
muf:_CipherSuite_Write_m1172814058
RYf:_SynchronizedWriter_Write_m301917713
j3:__ZN9profiling6MarkerC2EPKc13ProfilerGroupNS0_5FlagsE
yQc:__Z18Transfer_BlittableI8JSONReadLb1EjEvRK29SerializationCommandArgumentsR31RuntimeSerializationCommandInfo
J5f:_ConstructorBuilder_get_IsCompilerContext_m3364441562
dWe:_Debug_LogWarning_m3752629331
nsc:__Z13RegisterClassIN2UI13RectTransformEEvPKc
vqa:__ZN9Scripting11UnityEngine7Texture9InitProxyEv
$2h:_ReadOnlyCollection_1_System_Collections_Generic_IListU3CTU3E_RemoveAt_m4037795630_gshared
Oki:__Z117RuntimeInvoker_Void_t1185182177_RuntimeObject_Int32_t2950945753_Int32_t2950945753_Int32_t2950945753_Int32_t2950945753PFvvEPK10MethodInfoPvPS4_
$Ya:__ZNK13ScreenManager17GetFullscreenModeEv
fR:__Z30GetAudioSpatializerDefinitionsR13dynamic_arrayIP29AudioEffectInternalDefinitionLj0EE31UnityAudioEffectDefinitionFlags
Syd:_U3COnFinishSubmitU3Ec__Iterator0_Reset_m3632769946
Zo:stackSave
J_:__ZN5Unity9rapidjson15GenericDocumentINS0_4UTF8IcEE13JSONAllocatorNS0_12CrtAllocatorEE6StringEPKcjb
VAd:_ColorTween_get_targetColor_m1724075482_AdjustorThunk
x8c:_ps_dimension_end
JFc:__Z41Register_UnityEngine_Mesh_Internal_Createv
_4j:__ZNK15dense_hashtableI10KeyWrapperIP18Il2CppGenericClassES3_N6il2cpp8metadata22Il2CppGenericClassHashEN14dense_hash_setIS3_S6_NS3_14EqualsComparerINS5_25Il2CppGenericClassCompareEEENSt3__29allocatorIS3_EEE8IdentityESA_SD_E12test_deletedERK30dense_hashtable_const_iteratorIS3_S3_S6_SF_SA_SD_E
XYg:_Console_Open_m3077673205
R6i:_X509StoreManager_get_CurrentUser_m4040993045
y8b:__ZN6Camera9SetAspectEf
bfh:_Array_InternalArray__IndexOf_TisDateTime_t3738529785_m2463359116_gshared
va:invoke_viiffiii
ktj:_Display_Start_m3623905221
PAk:_emscripten_glBindVertexArray__wrapper
B7j:__ZN6il2cpp6icalls8mscorlib6System4Enum19get_underlying_typeEP20Il2CppReflectionType
Edj:_Parser_IsECMAScript_m674158805
mxa:__ZN9Transform37InitializeTransformHierarchyRecursiveER18TransformHierarchyRii
onb:__ZN26SinglePassStereoSupportExt23SetupStereoMatrixParamsE21MonoOrStereoscopicEye24BuiltinShaderMatrixParamRK10Matrix4x4f
Xjb:__ZN9GfxDevice23CreateAsyncReadbackDataEv
jpd:__ZNK25UnityWebRequestJavaScript16GetUploadedBytesEv
cU:__Z46AudioListener_CUSTOM_GetNumExtensionPropertiesP12Il2CppObject
KLj:__ZN6il2cpp6icalls8mscorlib6SystemL16CheckMemberMatchI9FieldInfoNS_5utils10functional6FilterINSt3__212basic_stringIcNS8_11char_traitsIcEENS8_9allocatorIcEEEENS5_13VmStringUtils23CaseInsensitiveComparerEEEEEbPKT_PK11Il2CppClassSN_iRKT0_
ofh:_Array_InternalArray__IndexOf_TisMonoResource_t4103430009_m1351751258_gshared
dw:__ZN17AnimationPlayable34CollectAnimatorControllerPlayablesER13dynamic_arrayIP26AnimatorControllerPlayableLj0EE
Jzg:_FieldAccessException__ctor_m3583219052
N5g:_Decimal_System_IConvertible_ToDouble_m3125524987
uqc:__Z57Register_UnityEngine_Transform_INTERNAL_set_localPositionv
YMb:__ZN13GfxDeviceGLES26SetRandomWriteTargetBufferEi15ComputeBufferID
ugk:_GC_split_block
uHi:_Array_Resize_TisUICharInfo_t75501106_m3903846016_gshared
HVb:__ZZ23InitPlayerLoopCallbacksvEN49EarlyUpdateResetFrameStatsAfterPresentRegistrator7ForwardEv
Dok:_poll
L$h:_ReadOnlyCollection_1_System_Collections_IEnumerable_GetEnumerator_m1671097018_gshared
Wuh:_UInt64_ToString_m1529093114_AdjustorThunk
hQd:_TypeLibImportClassAttribute__ctor_m2302178978
SNh:_Escape_t3294788190_marshal_pinvoke
Edf:_InputField_OnUpdateSelected_m1118869681
$2j:__ZN6il2cpp2vmL36AddNestedTypesToNametoClassHashTableEP40Il2CppNameToTypeDefinitionIndexHashTablePKcRKNSt3__212basic_stringIcNS5_11char_traitsIcEENS5_9allocatorIcEEEEP11Il2CppClass
XRa:__ZN4crnd12crn_unpacker11unpack_dxt1EPPhjjj
ITj:__ZN15dense_hashtableINSt3__24pairIK10KeyWrapperIPK10Il2CppTypeEjEES6_N6il2cpp8metadata14Il2CppTypeHashEN14dense_hash_mapIS6_jSB_NS6_14EqualsComparerINSA_26Il2CppTypeEqualityComparerEEENS0_9allocatorIS8_EEE9SelectKeyESF_SH_E14squash_deletedEv
HJ:__ZL55__ManagedRegistrationHelperFunction_CoordinateFramePairPv
ekc:__ZNK11ICallString6ToUTF8Ev
$Aj:__ZN15dense_hashtableINSt3__24pairIK10KeyWrapperIPK22Il2CppGenericParameterEP11Il2CppClassEES6_N6il2cpp5utils11PointerHashIS4_EEN14dense_hash_mapIS6_S9_SE_NS6_14EqualsComparerINS0_8equal_toIS5_EEEENS0_9allocatorISA_EEE9SelectKeyESJ_SL_E15insert_noresizeERKSA_
xUf:_Transform_1_Invoke_m2468053724_gshared
qX:__ZL60__ManagedRegistrationHelperFunction_ClothSkinningCoefficientPv
r_b:__ZNSt3__211__sift_downIR17ROSorterDepthPassP15RODataDepthPassEEvT0_S5_T_NS_15iterator_traitsIS5_E15difference_typeES5_
MMa:__ZN18UnityPropertySheet11UnityTexEnvC2Ev
mog:_ArgumentException__ctor_m3200406061
uD:__ZN8Animator17ApplyOnAnimatorIKEiRNS_11AnimatorJobE
gaa:__ZN12FileAccessor4ReadEyyPvPy
pUi:_List_1_set_Capacity_m2777925136_gshared
a8b:__ZN13RenderTexture9SetHeightEi
yw:__ZN7mecanim9animation17ClearMotionOutputEPNS0_18AnimationNodeStateE
_uf:_CipherSuiteCollection_get_IsFixedSize_m3127823890
DMf:_InternalEnumerator_1_System_Collections_IEnumerator_get_Current_m3537550566_gshared
sjf:_Scrollbar_UpdateVisuals_m2492252165
H5i:_PKCS12_get_Keys_m2165478388
C$j:__ZN6il2cpp6icalls8mscorlib6System2IO6MonoIO17GetFileAttributesEP12Il2CppStringPi
vRe:_HMACMD5__ctor_m3008609295
u4g:_DateTime_ToString_m2992030064_AdjustorThunk
_4c:_tt_cmap8_char_index
a6:__Z24scripting_class_get_name17ScriptingClassPtr
Udg:_Oid__ctor_m911618594
_lj:_VerticalLayoutGroup_CalculateLayoutInputHorizontal_m1404590745
oca:__ZN13RuntimeStaticI15GUIEventManagerLb0EE13StaticDestroyEPv
z$f:_ShortComparer_Compare_m1881262465
Aqb:__Z29Transfer_Blittable_ArrayFieldI14SafeBinaryReadjEvRT_R9ArrayInfoRK23StaticTransferFieldInfo
de:_emscripten_set_keydown_callback
vjh:_EncoderReplacementFallback__ctor_m1483565116
vjg:_Interpreter_IsWordChar_m2858055765
iyg:_Hashtable_CopyTo_m2905447224
qqa:__ZN9Scripting11UnityEngine29CustomRenderTextureUpdateZone12CleanupProxyEv
oaa:__ZN12FileAccessorC2Ev
$Ua:__ZNK8Renderer29FlattenPerMaterialCustomPropsER22PerThreadPageAllocatorR10RenderNode
GA:__ZThn152_NK26AnimatorControllerPlayable25GetStateMachineBehavioursEv
jbi:_EventFunction_1_Invoke_m2429482587_gshared
EJj:_CertificateHandler_Dispose_m2100863831
nVd:__ZL51Attribute_t861562559_CustomAttributesCacheGeneratorP21CustomAttributesCache
ZMj:__ZN6il2cpp2vm7Runtime12GetConfigDirEv
lIh:_Enumerator_MoveNext_m1177880931_AdjustorThunk
G6e:_SendMouseEvents_SetMouseMoved_m2822596724
_uj:_TextGenerator_Populate_m194003733
G6f:_DerivedType_get_FullName_m1025358827
BPe:_CryptoConfig_MapNameToOID_m2044758263
mma:__ZL50__ManagedRegistrationHelperFunction_SetupCoroutinePv
zr:__ZN13ConstraintJob23ConstraintComponentDataC2ERKS0_
FBe:__ZL70InputField_t3762917431_CustomAttributesCacheGenerator_m_OnValueChangedP21CustomAttributesCache
QFb:__Z39WriteQueueForTransferSignatureIntoCacheRK31TransferFunctionScriptingTraitsRK24TransferRequestSignature17ScriptingClassPtrR23CachedSerializationDataRb
U6a:__ZN13RenderManager18UpdateAllRenderersEv
Hkh:_Encoding_get_UTF8UnmarkedUnsafe_m320312322
Doh:_Thread_Thread_free_internal_m333849022
lNc:__Z35Transfer_Blittable_FixedBufferFieldI9JSONWritexEvRK29SerializationCommandArgumentsR31RuntimeSerializationCommandInfo
S8i:_CostDelegate_BeginInvoke_m2828452701
njd:__ZN22BaseUnityConnectClient30OnEnteringStatePausedOrStoppedEv
KTh:_Collection_1_ConvertItem_m1556170494_gshared
Mw:__ZN7mecanim5human12HumanPoseAddERNS0_9HumanPoseERKS1_S4_
D_g:_DateTime_ToUniversalTime_m1945318289
Oug:_ArrayList_ToArray_m3827492363
knf:_Slider_get_stepSize_m1423227661
Ruh:_UInt64_Parse_m819899889
KPg:_SymmetricAlgorithm_set_IV_m3196220308
B8f:_GenericTypeParameterBuilder_GetHashCode_m852224381
$1g:_Convert_ToUInt32_m1453583008
PAg:_CompareInfo_Compare_m894311506
Vwa:__Z24MergeTransformComponentsR9TransformS0_b
tFj:__ZNK15dense_hashtableI10KeyWrapperIPK19Il2CppGenericMethodES4_N6il2cpp8metadata23Il2CppGenericMethodHashEN14dense_hash_setIS4_S7_NS4_14EqualsComparerINS6_26Il2CppGenericMethodCompareEEENSt3__29allocatorIS4_EEE8IdentityESB_SE_E10test_emptyEj
Qsd:_EventSystem_UpdateModules_m3643806022
exj:_AnimationOffsetPlayable__cctor_m1029460816
Hck:__ZN6il2cpp2vm13ComObjectBase19GetRuntimeClassNameEPP15Il2CppHString__
SDa:__Z37GetBarycentricCoordinatesForOuterCellPPK8Vector3fRK13dynamic_arrayIS_Lj0EERS0_RK11TetrahedronR8Vector4f
Pj:_emscripten_glVertexAttribPointer
DIb:__ZN14PreloadManager26UpdatePreloadingSingleStepENS_21UpdatePreloadingFlagsEi
_lf:_ScrollRect_SetLayoutHorizontal_m3078869633
WYg:_Console_OpenStandardInput_m3262421490
HMh:_SimpleCollator__ctor_m1587210019
cmc:__Z57Register_UnityEngine_RectTransform_INTERNAL_set_anchorMinv
S1g:_Convert_ToUInt16_m1480956416
Cja:__ZN6prcoreL25inner_stretch_i8_bilinearEPKNS_9InnerInfoE
A8a:__ZL30RegisterFilteredObjectCallbackPP12Il2CppObjectiPv
x2h:_ReadOnlyCollection_1_System_Collections_Generic_IListU3CTU3E_RemoveAt_m3317217538_gshared
qte:__ZL54AudioSource_t3935305588_CustomAttributesCacheGeneratorP21CustomAttributesCache
ZIb:__Z19InitializeGfxDevicev
GY:__ZN11UnityEngine15CloudWebService16SessionContainer24GetSessionHeaderJsonDataERKN4core12basic_stringIcNS2_20StringStorageDefaultIcEEEERNS2_13StringBuilderE
j6f:_DerivedType_GetEvent_m4157575360
Gba:__ZN13RuntimeStaticI21AssetReferenceStorageLb0EE13StaticDestroyEPv
QPb:__ZN7ApiGLES5ClearEjRK10ColorRGBAfbfi
sXh:_Collection_1_ConvertItem_m618594517_gshared
tvi:__Z72RuntimeInvoker_Bounds_t2266837910_RuntimeObject_Matrix4x4U26_t3606180965PFvvEPK10MethodInfoPvPS4_
o9j:__ZN6il2cpp6icalls8mscorlib6System9AppDomain22InternalGetProcessGuidEP12Il2CppString
st:__ZN9Scripting11UnityEngine10Animations16ConstraintSource9InitProxyEv
kEc:__Z34Quaternion_CUSTOM_Inverse_InjectedRK11QuaternionfRS_
Zub:__Z18Transfer_BlittableI24GenerateTypeTreeTransferLb1EjEvRK29SerializationCommandArgumentsR31RuntimeSerializationCommandInfo
ZAj:__ZN6il2cpp2os12FastAutoLockD2Ev
FGa:__ZN11ColorRGBA328TransferI14SafeBinaryReadEEvRT_
k1c:_cff_vstore_done
Rpi:__Z68RuntimeInvoker_Void_t1185182177_UInt16_t2177724958_SByte_t1669577662PFvvEPK10MethodInfoPvPS4_
rEf:_InternalEnumerator_1_get_Current_m3008260692_AdjustorThunk
URe:_MACTripleDES_HashFinal_m3613553534
luh:_UInt64_System_IConvertible_ToChar_m2074245892
Smh:_UTF8Encoding_InternalGetBytes_m1965760031
If:_emscripten_glClearDepth
Xtc:__ZNK8GUILayer22GetTypeVirtualInternalEv
DTa:__ZN14SafeBinaryRead21TransferSTLStyleArrayINSt3__26vectorIN15QualitySettings14QualitySettingENS1_9allocatorIS4_EEEEEEvRT_17TransferMetaFlags
mSf:_KeyCollection__ctor_m2388548663_gshared
z3a:__ZNSt3__26vectorINS_4pairIPKN5Unity4TypeE7Hash128EENS_9allocatorIS7_EEE8__appendEj
lRc:__ZN8JSONRead21TransferSTLStyleArrayI13dynamic_arrayIaLj0EEEEvRT_17TransferMetaFlags
n1c:_cff_font_load
V9j:__GLOBAL__sub_I_LibraryLoader_cpp
qCc:__Z13IsPathCreatedRKN4core12basic_stringIcNS_20StringStorageDefaultIcEEEE
fWe:_Debug_LogWarningFormat_m2535776735
lPa:__ZL22stbir__encode_scanlineP11stbir__infoiPvPfiii
tPd:_ExternalException__ctor_m2877839282
bWc:__ZN20QuadTreeNodeRenderer13StaticDestroyEPv
CZ:__ZN11UnityEngine15CloudWebService20WebRequestRestClient5AbortEv
Qbj:_Regex_Matches_m2080913806
ttc:__ZN9Transform12CleanupClassEv
GAe:__ZL57FontData_t746620069_CustomAttributesCacheGenerator_m_FontP21CustomAttributesCache
p_e:_Mathf_Sin_m3411839043
y_c:_UNITY_FT_Set_Pixel_Sizes
Z2f:_OperatingSystem_Clone_m1122165140
ALi:_GameObject_AddComponent_TisRuntimeObject_m3469369570_gshared
UC:__ZN11UnityEngine9Animation33SetGenericTransformPropertyValuesERKNS0_30AnimatorGenericBindingConstantERKN7mecanim10ValueArrayEP9Transformy
gYj:__ZN6il2cpp2vmL24thread_cleanup_on_cancelEPv
xQi:_List_1_RemoveAll_m3165362277_gshared
mrh:_Type_type_is_subtype_of_m1406623598
qma:__ZL54__ManagedRegistrationHelperFunction_SpriteAtlasManagerPv
rnh:_Thread_get_CurrentThread_m4142136012
eDa:__Z30ProcessDynamicBatchGeometryJobP25DynamicVBOGeometryJobDataj
U_b:__ZNSt3__27__sort4IRNS_6__lessI11CulledLightS2_EEPS2_EEjT0_S6_S6_S6_T_
RUj:__ZN6il2cpp2vm14TypeNameParser26ParseArrayModifierOptionalEv
u7:__Z26scripting_object_get_class18ScriptingObjectPtr
F_j:__ZN6il2cpp6icalls8mscorlib6System10Reflection8Assembly13get_code_baseEP24Il2CppReflectionAssemblyb
s4a:__ZNSt3__26vectorIN4core12basic_stringIcNS1_20StringStorageDefaultIcEEEE13stl_allocatorIS5_L18MemLabelIdentifier13ELi16EEE7reserveEj
JQe:_DSASignatureDeformatter__ctor_m2889130126
Uuc:__ZNK28MonoBehaviourPropertyBinding15GenerateBindingERKN4core12basic_stringIcNS0_20StringStorageDefaultIcEEEEbRN11UnityEngine9Animation14GenericBindingE
D5e:_RectTransform_INTERNAL_set_pivot_m1160676233
oVi:_List_1_set_Item_m35836043_gshared
ahg:_X509ChainElementCollection__ctor_m3424079155
tFc:__Z58Register_UnityEngine_Camera_ScreenToViewportPoint_Injectedv
Z8i:_LinkStack_Push_m3081279930
_Qf:_Enumerator_MoveNext_m1107569389_gshared
Mak:__ZN6il2cpp6icalls8mscorlib6System11Environment15internalGetHomeEv
R_e:_Matrix4x4_GetHashCode_m4034747639_AdjustorThunk
wOd:_ResourceCacheItem_t51292791_marshal_pinvoke_cleanup
gsa:__ZNK5Unity9Component7GetNameEv
Z8b:__Z23FindMonoScriptFromClass17ScriptingClassPtr
Nff:_U3CDelayedSetDirtyU3Ec__Iterator0_Reset_m160466733
Llb:__ZN21ScalableBufferManager23UnregisterRenderSurfaceEP17RenderSurfaceBaseb
HTi:_List_1_System_Collections_IList_Remove_m1070694895_gshared
kgj:_LayoutCache__ctor_m3885940174
mE:__ZN7mecanim8skeleton26SkeletonPoseComputeGlobalQEPKNS0_8SkeletonEPKNS0_13SkeletonPoseTIN4math4trsXEEEPS7_ii
kuh:_UInt64_System_IConvertible_ToByte_m1501504925_AdjustorThunk
Muj:_TextGenerator_Invalidate_m1072346986
Kxf:_TlsClientHello_ProcessAsTls1_m2549285167
EDi:__Z74RuntimeInvoker_Boolean_t97287965_UIVertex_t4057497605_UIVertex_t4057497605PFvvEPK10MethodInfoPvPS4_
s0h:_ReadOnlyCollection_1_System_Collections_IList_Clear_m3591436538_gshared
OD:__ZN9BlobWrite8TransferI22OffsetPtrArrayTransferIiEEEvRT_PKc17TransferMetaFlags
kjh:_EncoderExceptionFallback_Equals_m2760188920
WMg:_RIPEMD160Managed_HashCore_m2350629432
H6b:__ZNK15LODGroupManager17CalculateLODMasksERK13LODParametersfPhPf
tO:__ZN4FMOD6System7releaseEv
Irg:_Boolean_CompareTo_m3665076258
QUg:_String_Split_m3580120853
XRh:_PrivateKeyInfo__ctor_m2811023496
L9:__Z18PathToAbsolutePathRKN4core12basic_stringIcNS_20StringStorageDefaultIcEEEE
EHd:_PropertyBuilder_GetCustomAttributes_m2917594003
ghj:_GUILayoutUtility_LayoutFromEditorWindow_m2914699782
Dpa:__ZN9Scripting11UnityEngine12Experimental10PlayerLoop13PreLateUpdate9InitProxyEv
uhd:__ZN21UnityAnalyticsManager15ThreadedCleanupEv
ROa:__ZL13BlitImageImplR14ImageReferenceiiRKS_NS_10ColorSpaceENS_8BlitModeEb
Ezc:__ZN15DirectorManager17AcquireOutputNodeEv
ZWa:__Z14resize_trimmedINSt3__26vectorI13dynamic_arrayI8Vector2fLj0EENS0_9allocatorIS4_EEEEEvRT_j
mGi:_Array_InternalArray__set_Item_TisColor32_t2600501292_m1891325855_gshared
DLi:_GameObject_GetComponentInChildren_TisRuntimeObject_m1310240902_gshared
Q9f:_Locale_GetText_m2640320736
Fme:__ZL69PersistentCall_t3407714124_CustomAttributesCacheGenerator_m_ArgumentsP21CustomAttributesCache
gHa:__ZN16ReflectionProbes28GetMinBakedCubemapResolutionEv
sck:__GLOBAL__sub_I_String_cpp
YAj:__ZN15dense_hashtableINSt3__24pairIK10KeyWrapperIPK22Il2CppGenericParameterEP11Il2CppClassEES6_N6il2cpp5utils11PointerHashIS4_EEN14dense_hash_mapIS6_S9_SE_NS6_14EqualsComparerINS0_8equal_toIS5_EEEENS0_9allocatorISA_EEE9SelectKeyESJ_SL_E6insertERKSA_
Ndf:_InputField_GenerateCaret_m1459647218
z5i:_X509CertificateEnumerator__ctor_m85694331
bOb:__ZN14DataBufferGLES16RecreateWithDataEjPKv
Esa:__Z29GetGlobalAllowNameConversionsv
oih:_Array_InternalArray__Insert_TisTableRange_t3332867892_m558285859_gshared
P9b:__ZN8Material8SetColorEN9ShaderLab16FastPropertyNameERK10ColorRGBAf
TJh:_Enumerator_System_Collections_IEnumerator_Reset_m3754523291_gshared
amd:__ZN11UnityEngine7Connect20RemoteConfigSettings19ConfigUpdatedStaticEPS1_bbi
oQ:__ZN11AudioSource23VirtualRedirectTransferER18StreamedBinaryReadILb0EE
B3e:_RangeInt_get_end_m4128831787
Lnd:__Z25GetUnityConnectModuleSpecv
ASi:_List_1_set_Item_m2082115010_gshared
Zjh:_Encoding_GetBytes_m3735967069
sRb:__ZN14GfxContextGLES43AddRenderSurfaceToDeferredFBOInvalidateListEPK17RenderSurfaceGLES
f$j:__ZN6il2cpp6icalls8mscorlib6System9Threading6Thread15Thread_internalEP12Il2CppThreadP14Il2CppDelegate
Eua:__ZN11NamedObject23VirtualRedirectTransferER14SafeBinaryRead
eof:_Text_get_resizeTextMinSize_m1002355407
m_c:__ZNSt3__26vectorIN20TextRenderingPrivate8FontImpl13CharacterInfoE13stl_allocatorIS3_L18MemLabelIdentifier1ELi16EEE6insertENS_11__wrap_iterIPKS3_EERS9_
A5a:__ZN23PreloadManagerOperation6IsDoneEv
wpg:_Array_CreateInstance_m1027597705
iNj:__ZN6il2cpp2vm7Runtime15InvokeWithThrowEPK10MethodInfoPvPS5_
Vbk:__ZN6il2cpp5utils11StringUtils11Utf16ToUtf8ERKNSt3__212basic_stringIDsNS2_11char_traitsIDsEENS2_9allocatorIDsEEEE
Erf:_MD4Managed_Decode_m4273685594
G7a:__ZN21LightProbeProxyVolume18HasHardwareSupportEv
e2b:__ZN26LightProbeProxyVolumeCacheC2ER13BatchRendererR15RenderLoopStats
fIg:_IntPtr__ctor_m620280096
Bja:__ZN6prcoreL31inner_stretch_argb8888_bilinearEPKNS_9InnerInfoE
czb:__Z18Transfer_BlittableI18StreamedBinaryReadILb1EELb1E8BitFieldEvRK29SerializationCommandArgumentsR31RuntimeSerializationCommandInfo
E5c:_UNITY_FT_Outline_Decompose
fHg:_Int64_System_IConvertible_ToChar_m1509243576_AdjustorThunk
ySb:__ZNK12GraphicsCaps24GetFallbackSampledFormatE14GraphicsFormat
L4i:_GeneralNames_get_IPAddresses_m4242915644
A$g:_Decimal_op_Implicit_m3873897383
Mgk:_GC_init_size_map
Hza:__Z20scripting_object_new17ScriptingClassPtr
Cra:__ZN9Scripting5Unity11Collections39NativeMatchesParallelForLengthAttribute12CleanupProxyEv
iSh:_KeyGeneratedEventHandler_Invoke_m2527485594
x5g:_Decimal__ctor_m1925875020_AdjustorThunk
CMe:_SerializationCallbacks__ctor_m3863304525
VEa:__ZN18ShadowMapJobHeaderD0Ev
P:Math_exp
tIa:__Z19GetMaxBytesPerPixel13TextureFormat
Ao:FUNCTION_TABLE_iiifi
v7j:__ZN6il2cpp2os5posix13PosixAutoLockD2Ev
mij:_SymmetricTransform_OFB_m3690147804
R_c:_cff_get_advances
kFb:__ZN13MonoBehaviour9SetScriptERK4PPtrI10MonoScriptE18ScriptingObjectPtr
cYj:_RaycastHit2D_get_collider_m1549426026
adb:__ZNK10FileSystem16LastErrorMessageEv
vFi:_Array_InternalArray__Insert_TisVector3_t3722313464_m3862657277_gshared
tXa:__ZN15SerializeTraitsI13dynamic_arrayI12SpriteVertexLj0EEE19ResizeSTLStyleArrayERS2_i
$Rg:_SecurityException__ctor_m1631242336
ZCj:__ZN15dense_hashtableINSt3__24pairIK10KeyWrapperIPK11Il2CppClassEPKcEES6_N6il2cpp5utils11PointerHashIS3_EEN14dense_hash_mapIS6_S9_SE_NS6_14EqualsComparerINS0_8equal_toIS5_EEEENS0_9allocatorISA_EEE9SelectKeyESJ_SL_E14squash_deletedEv
Rtd:_EventSystem_Update_m1662072334
Iga:__ZN13sorted_vectorIN4core12basic_stringIcNS0_20StringStorageDefaultIcEEEENSt3__24lessIS4_EE13stl_allocatorIS4_L18MemLabelIdentifier81ELi16EEE21sort_clear_duplicatesEv
uqd:__ZN22UnityWebRequestManager10InitializeEv
o5a:__ZNSt3__26__treeINS_12__value_typeIN4core12basic_stringIcNS2_20StringStorageDefaultIcEEEE4PPtrI6ObjectEEENS_19__map_value_compareIS6_SA_NS_4lessIS6_EELb1EEE13stl_allocatorISA_L18MemLabelIdentifier52ELi16EEE15__emplace_multiIJRNS_4pairIS6_S9_EEEEENS_15__tree_iteratorISA_PNS_11__tree_nodeISA_PvEEiEEDpOT_
JZc:_raccess_guess_darwin_newvfs
etb:__ZL26Transfer_SimpleNativeClassI17RemapPPtrTransfer8GradientLb1EEvRK29SerializationCommandArgumentsR31RuntimeSerializationCommandInfo
ttd:_RaycasterManager_RemoveRaycasters_m3057093063
Ckc:__ZN12CachedWriter9InitWriteER15CacheWriterBase
tzc:__Z21UnsignedInt64ToStringy
Dif:_GetRaycastNonAllocCallback_BeginInvoke_m3984885848
$9i:_PatternCompiler_BeginLink_m1295557963
YDe:__ZL70CanvasScaler_t2767979955_CustomAttributesCacheGenerator_m_PhysicalUnitP21CustomAttributesCache
kEg:_GuidParser_ThrowFormatException_m3223388534
ndj:_Group_GetAnchorInfo_m3730312864
UAe:__ZL50Graphic_t1660335611_CustomAttributesCacheGeneratorP21CustomAttributesCache
PSf:_KeyCollection_System_Collections_Generic_ICollectionU3CTKeyU3E_Add_m454648927_gshared
Fqh:_TimeSpan_op_LessThanOrEqual_m300470010
tse:__ZL139AnimatorOverrideController_t3582062219_CustomAttributesCacheGenerator_AnimatorOverrideController_OnInvalidateOverrideController_m3380737075P21CustomAttributesCache
Gqc:__Z66Register_UnityEngine_Transform_INTERNAL_CALL_InverseTransformPointv
aea:__ZZN15DirectorManager15InitializeClassEvEN41FixedUpdateDirectorFixedUpdateRegistrator7ForwardEv
zLg:_MemoryStream_get_Position_m3733941202
cdc:__ZL10KeyHandleriPK23EmscriptenKeyboardEventPv
yAk:_glLinkProgram__wrapper
ubb:__ZN18ScriptingArguments8AddInt64Ex
Mia:__ZN6prcoreL12RemapGenericI17TexFormatARGB888815TexFormatBGR888EEvPKNS_9InnerInfoE
inb:__ZN26SinglePassStereoSupportExt19SaveStereoConstantsEv
Bfa:__ZNSt3__26vectorIP10MemoryPool13stl_allocatorIS2_L18MemLabelIdentifier76ELi16EEE21__push_back_slow_pathIRKS2_EEvOT_
TDg:_TextInfo_get_ListSeparator_m1628160079
zmf:_Selectable_OnCanvasGroupChanged_m472903475
Anh:_EventWaitHandle_Reset_m3348053200
Jnd:__ZN28UnityConnectScriptingClasses23CallSessionStateChangedEixxbP21ScriptingExceptionPtr
O1j:__ZN6il2cpp6icalls8mscorlib6System13Globalization11CultureInfo35construct_internal_locale_from_nameEP17Il2CppCultureInfoP12Il2CppString
mvb:__ZL22Transfer_ManagedObjectI24GenerateTypeTreeTransferLb1EEvRK29SerializationCommandArgumentsR31RuntimeSerializationCommandInfo
rYb:__ZN15RenderNodeQueueC2E10MemLabelId
sOd:_ResourceEnumerator_FillCache_m1661715061
h7d:__ZL72SecuritySafeCriticalAttribute_t3505979402_CustomAttributesCacheGeneratorP21CustomAttributesCache
Zj:_emscripten_set_main_loop_timing
JTe:_Bounds_get_min_m3755135869
L1g:_Convert_ToUInt16_m3523269149
rPb:__ZN14DataBufferGLES12RecordRenderEv
Qud:_ExecuteEvents_get_endDragHandler_m2879610446
t9b:__ZN14ImageReference10FlipImageYEv
mya:__ZN21ScalableBufferManager20GetHeightScaleFactorEv
mL:__ZN4FMOD3DSP9setBypassEb
Vcc:__Z19NormalizeWheelInputf
REd:_Graphic_DoMeshGeneration_m3548487693
LH:__ZN11KeyframeTplIfE8TransferI14SafeBinaryReadEEvRT_
mbj:_Repetition__ctor_m1672362629
zSc:__Z29Transfer_Blittable_ArrayFieldI8JSONReadhEvRT_R9ArrayInfoRK23StaticTransferFieldInfo
cTg:_SecurityFrame_ToString_m339310712_AdjustorThunk
rId:_TypeBuilder_create_runtime_class_m2581270900
Yjc:__ZN11MonoManager25GetImageFromAssemblyIndexEi
mEf:_InternalEnumerator_1_get_Current_m3008260692_gshared
ilk:__ZN6il2cpp2os20ThreadLocalValueImpl8SetValueEPv
oAa:__ZN22RenderingCommandBuffer20CleanupCommandBufferEv
C$g:_Decimal_op_Implicit_m2299919277
nNc:__Z18Transfer_BlittableI9JSONWriteLb1EtEvRK29SerializationCommandArgumentsR31RuntimeSerializationCommandInfo
AZf:_UnexceptionalStreamReader_ReadToEnd_m920589220
r3g:_DateTime_System_IConvertible_ToType_m1242864300
nVg:_String_IndexOf_m1298810678
sk:___syscall85
Fed:__ZN2UI14CanvasRenderer18UpdateTRSHierarchyEb
wYb:__ZNSt3__26__sortIRPFbP10GUIElementS2_EPS2_EEvT0_S7_T_
Jtc:__ZN16GraphicsSettings12CleanupClassEv
Z5f:_ConstructorBuilder_GetILGenerator_m1750792206
xjh:_EncoderFallback_get_ReplacementFallback_m818398284
Q9j:__ZN6il2cpp2os6Thread19DetachCurrentThreadEv
kud:_EventTrigger_OnBeginDrag_m4203438710
sBj:__ZN6il2cpp2vmL21SetupInterfacesLockedEP11Il2CppClassRKNS_2os12FastAutoLockE
Onb:__ZN11MonoManager23VirtualRedirectTransferER24GenerateTypeTreeTransfer
LB:__ZN23AnimationPlayableOutput17SetSourcePlayableEP8Playable
FVe:_CullingGroup_Dispose_m782801025
cra:__ZN9Scripting11UnityEngine9Component12CleanupProxyEv
CY:__ZN11UnityEngine15CloudWebService14DataDispatcher15SetupWebRequestEv
Qkd:__ZN11UnityEngine15PlatformWrapper13GetShaderCapsEv
F4b:__ZNSt3__211__sift_downIR26RenderDeferredObjectSorterP16RenderObjectDataEEvT0_S5_T_NS_15iterator_traitsIS5_E15difference_typeES5_
j8f:_GenericTypeParameterBuilder_IsDefined_m98179866
fRh:_KeyPairPersistence_get_MachinePath_m3812267291
LYg:_Stack_Peek_m2216191248
e3g:_DateTime_System_IConvertible_ToDecimal_m1044850612_AdjustorThunk
muc:__ZN21FixedBehaviourManager6UpdateEv
aqc:__ZN9Transform9SetParentEPS_NS_15SetParentOptionE
pCa:__ZN19ShaderPropertySheet8SetFloatEN9ShaderLab16FastPropertyNameEfNS_8SetFlagsE
c6a:__ZN19RuntimeSceneManager24BeginIntegrateMainThreadEP10UnityScene
Dak:__ZNSt3__2plIcNS_11char_traitsIcEENS_9allocatorIcEEEENS_12basic_stringIT_T0_T1_EERKS9_S6_
zYf:_StringReader_CheckObjectDisposedException_m3796163530
Ath:_UInt32_System_IConvertible_ToInt16_m1659441601
mgc:__ZN9ShaderLab20SerializedSubProgramaSERKS0_
jrk:_roundf
tsg:_Byte_System_IConvertible_ToSingle_m324484566_AdjustorThunk
AZg:_Decimal_op_Explicit_m2848387298
yGh:_KeyValuePair_2_ToString_m1238786018_gshared
ev:__ZN8Animator15SetPrepareStageEv
fJ:__ZN8AnimatorC2E10MemLabelId18ObjectCreationMode
tBj:__ZN6il2cpp2vmL24SetupTypeHierarchyLockedEP11Il2CppClassRKNS_2os12FastAutoLockE
ddc:__ZL11TextHandleriPK23EmscriptenKeyboardEventPv
AZc:_destroy_face
Mwk:_glBlendEquationSeparate__wrapper
jik:__ZN6il2cpp6icalls8mscorlib6System8Security12Cryptography24RNGCryptoServiceProvider13RngInitializeEP11Il2CppArray
xQ:__ZN20SoundChannelInstance7setMuteEb
t3g:_DateTimeUtils_ToString_m1782212840
G2f:_NumberFormatter_NumberToString_m3906556024
dAb:__Z19TransferField_ArrayI18StreamedBinaryReadILb1EE27Converter_SimpleNativeClassI17AnimationCurveTplIfEEEvRK23StaticTransferFieldInfoR31RuntimeSerializationCommandInfoRT0_
JPb:__ZN18GfxFramebufferGLES22MakeCurrentFramebufferENS_7BuiltinE
cGa:__ZN12CachedReader4ReadEPvj
xxd:_StandaloneInputModule_ProcessMouseEvent_m2923582521
bMd:_MonoMethod_ShouldPrintFullName_m1607666412
a1b:__Z24CalculateLightShadowFadeRK6CamerafffR8Vector4f
k6:__ZN19RuntimeSceneManagerD2Ev
iAg:_CCGregorianCalendar_GetMonth_m1547203696
SZ:__ZN11UnityEngine15CloudWebService25WebRequestDownloadHandler17OnCompleteContentEv
yPa:__ZN6prcore17GetIntegerBlitterE13TextureFormatS0_N14ImageReference8BlitModeE
lgk:_GC_print_block_descr
gma:__ZL51__ManagedRegistrationHelperFunction_ResourceRequestPv
EDc:__ZN9BlobWrite14ReduceCopyImplERK14ReduceCopyDataj
Vfh:_Array_LastIndexOf_TisRuntimeObject_m1677937501_gshared
rU:__ZN11AudioSource18IsPlayingScriptingEv
ZQh:_KeyBuilder_IV_m2230195376
Bvk:_glShaderSource__wrapper
Qeb:__ZN25MultiBlocksMemoryFileData17AdjustBlocksCountEj
R_j:__ZNSt3__214__split_bufferIN6il2cpp2vm22EmbeddedResourceRecordERNS_9allocatorIS3_EEED2Ev
HXc:__ZN13TextRendering4Font8TransferI24GenerateTypeTreeTransferEEvRT_
Fmc:__Z27CullingGroup_CUSTOM_DisposeP12Il2CppObject
Am:_glStencilMask
pak:__ZN6il2cpp2os10ThreadImpl16GetCurrentThreadEv
Xcc:__ZN15GUIEventManager10QueueEventERK10InputEvent
lJj:_AnalyticsEvent_OnValidationFailed_m2609604624
Vte:__ZL62EventType_t3528516131_CustomAttributesCacheGenerator_mouseMoveP21CustomAttributesCache
bPd:_DecimalConstantAttribute__ctor_m3583301917
Nfk:_GC_push_conditional_with_exclusions
XGe:_MethodCallDictionary__ctor_m2167303393
Q6c:_Compute_Point_Displacement
rfk:_GC_make_disappearing_links_disappear
ook:_strrchr
qVe:_Component_GetComponentInParent_m779177818
Zxd:_UIBehaviour_IsDestroyed_m3033055982
Boi:__Z109RuntimeInvoker_Void_t1185182177_RuntimeObject_RuntimeObject_SByte_t1669577662_Int32_t2950945753_RuntimeObjectPFvvEPK10MethodInfoPvPS4_
mcf:_InputField_get_readOnly_m3111985574
tHa:__ZN14RenderSettings27UpdateIndirectSpecularColorEv
cle:__ZL59RectOffset_t1369453676_CustomAttributesCacheGenerator_m_PtrP21CustomAttributesCache
I2a:__ZN14PlayerSettings8TransferI18StreamedBinaryReadILb0EEEEvRT_
aMj:__ZN6il2cpp6icalls8mscorlib6System8MonoType16GetMethodsByNameEP20Il2CppReflectionTypeP12Il2CppStringibS5_
s8i:_RijndaelTransform__cctor_m2439033240
PJb:__ZNSt3__27__sort3IRNS_4lessIN22BuiltinResourceManager8ResourceEEEPS3_EEjT0_S7_S7_T_
k8c:_ps_hints_t2mask
tbh:_Array_InternalArray__ICollection_Remove_TisMonoResource_t4103430009_m238733686_gshared
unf:_Slider_Set_m1476104429
DGd:_Image_set_fillClockwise_m2210525152
x0a:__ZN10BlendShape8TransferI19StreamedBinaryWriteILb0EEEEvRT_
nmb:__ZNSt3__26vectorIN20GpuProgramParameters14ConstantBufferENS_9allocatorIS2_EEE21__push_back_slow_pathIRKS2_EEvOT_
b1e:_PlayerConnection_DisconnectedCallback_m1697017309
x1a:__Z19GetTimeSinceStartupv
bHd:_Image_AddQuad_m2161647989
HJh:_Enumerator_System_Collections_IEnumerator_Reset_m2953002685_gshared
G7c:_TT_Load_Composite_Glyph
vs:__ZL51__ManagedRegistrationHelperFunction_ScaleConstraintPv
JLa:__ZN9ShaderLab11shaderprops9GetTexEnvEPK19ShaderPropertySheetS3_NS_16FastPropertyNameE16TextureDimensionb
m$b:__ZN29RenderNodeQueuePrepareContextC2Ev
bXj:_il2cpp_gc_disable
xjg:_IntStack_t2189327687_marshal_pinvoke_back
vhc:__ZN9ShaderLab20SerializedSubProgram16TextureParameter8TransferI24GenerateTypeTreeTransferEEvRT_
Ira:__ZN9Scripting5Unity11Collections8LowLevel6Unsafe29NativeSetThreadIndexAttribute12CleanupProxyEv
LQe:_DSASignatureDeformatter_SetKey_m2999549245
Jik:__ZN6il2cpp2os11MutexHandle4WaitEb
uhb:__ZN9GfxDevice19SaveStereoConstantsEv
Iik:__ZN6il2cpp2os11MutexHandle4WaitEj
Qmc:__ZL34GetComponentsImplementationRecurseILb1ELi1ELi1EEbR10GameObjectbRK17CompareParametersRK39GetComponentsImplementation_ReturnValue
Jgi:__Z114RuntimeInvoker_Boolean_t97287965_RuntimeObject_RuntimeObject_Int32_t2950945753_Int32_t2950945753_Int32_t2950945753PFvvEPK10MethodInfoPvPS4_
t5f:_AssemblyBuilder_GetTypes_m3415680380
_ha:__ZN6prcoreL17RemapGenericFloatI15TexFormatRGHalf18TexFormatARGBFloatEEvPKNS_9InnerInfoE
LHb:__Z18SimulateMouseInputi
iXb:__ZN13RenderManager23AddRemoveCamerasDelayedEv
yhd:__ZN11UnityEngine9Analytics15AnalyticsConfigC2Ev
g3f:_OverflowException__ctor_m4029085969
Wqg:_BitConverter__cctor_m3841343255
hZg:_Decimal_Compare_m3062820418
E8i:_IntervalCollection_GetMetaCollection_m4029522214
fud:_EventTrigger_OnDeselect_m1919608102
fvj:_TextGenerator_get_characterCount_m864136654
Hph:_TimeSpan__ctor_m2047388489_AdjustorThunk
$7b:__ZN13RenderTexture8SetWidthEi
Jba:__ZN22BuiltinResourceManager16StaticInitializeEPv
c$i:_Collection_1_System_Collections_ICollection_CopyTo_m1516601228_gshared
tca:__ZN23DefaultMeshVertexFormatC2E18VertexChannelsInfo
eFg:_Int16_System_IConvertible_ToDouble_m1661805412
X3:__ZN9ShaderLab16FastPropertyName4InitEPKc
RKa:__ZN6ObjectC2E10MemLabelId18ObjectCreationMode
bIf:_InternalEnumerator_1_get_Current_m3911557813_AdjustorThunk
skd:__ZN11UnityEngine15PlatformWrapper19GetPhysicalMemoryMBEv
Vx:__ZN17AnimationPlayable17GetAnimationClipsER13dynamic_arrayIP13AnimationClipLj0EE
_sg:_Char_System_IConvertible_ToByte_m2347554595_AdjustorThunk
oJa:__ZN13RenderTexture9SetMipMapEb
BUc:__ZN9Scripting11UnityEngine14ContactPoint2D9InitProxyEv
qWg:_String_CreateString_m860434552
Bea:__Z18GetDirectorManagerv
Tpc:__Z38Transform_CUSTOM_INTERNAL_get_rotationP12Il2CppObjectP11Quaternionf
cQj:__ZNK15dense_hashtableINSt3__24pairIK10KeyWrapperINS1_IPK10MethodInfoP11Il2CppClassEEEjEES9_17ReflectionMapHashIS8_EN14dense_hash_mapIS9_jSD_NS9_14EqualsComparerINS0_8equal_toIS8_EEEENS0_9allocatorISB_EEE9SelectKeyESI_SK_E5beginEv
cOb:__ZN7ApiGLES19UploadBufferSubDataEjN2gl12BufferTargetEllPKv
je:_glFramebufferTextureLayer
Uga:__ZNSt3__216__rotate_forwardINS_11__wrap_iterIPN4core12basic_stringIcNS2_20StringStorageDefaultIcEEEEEEEET_S9_S9_S9_
G9e:_Vector2_GetHashCode_m3916089713
Amg:_SmallXmlParserException__ctor_m1976648878
tmf:_Selectable_get_isPointerDown_m3518318267
OPg:_SymmetricAlgorithm_set_KeySize_m3805756466
xsg:_Byte_System_IConvertible_ToUInt32_m1049546902_AdjustorThunk
Fpi:__Z53RuntimeInvoker_Double_t594665363_Interval_t1802865632PFvvEPK10MethodInfoPvPS4_
ZJb:__Z21InitializeBatchedJobsv
Pvj:_CanvasGroup_get_blocksRaycasts_m1805542303
wOg:_SHA1Internal_ProcessBlock_m1991889327
eqb:__Z19TransferField_ArrayI14SafeBinaryRead27Converter_SimpleNativeClassI8GUIStyleEEvRK23StaticTransferFieldInfoR31RuntimeSerializationCommandInfoRT0_
$Db:__ZN9TextAsset23VirtualRedirectTransferER19StreamedBinaryWriteILb0EE
LHi:_Array_Sort_TisRuntimeObject_TisRuntimeObject_m1685639929_gshared
sik:__ZN6il2cpp5utils10MemoryPoolC2Ev
OGa:__ZN14RenderSettings5ResetEv
qkc:__ZN6Sprite9BindAtlasERK4PPtrI11SpriteAtlasE
hMc:__ZN5Unity9rapidjson12GenericValueINS0_4UTF8IcEE13JSONAllocatorE10FindMemberIS4_EENS0_21GenericMemberIteratorILb0ES3_S4_EERKNS1_IS3_T_EE
ZHf:_InternalEnumerator_1_System_Collections_IEnumerator_get_Current_m3892960115_AdjustorThunk
Ojc:__ZN9ShaderLabL18AddPropertyToArrayERK19ShaderPropertySheetR13dynamic_arrayIiLj0EERKNS_8FloatValE
q0j:__ZNSt3__212basic_stringIDsNS_11char_traitsIDsEENS_9allocatorIDsEEE6appendEPKDsj
Qug:_ArrayList_Clone_m2682741233
pRe:_HMAC_HashCore_m3684104066
Mnd:__Z13RegisterClassI20UnityConnectSettingsEvPKc
I4h:__ZN28GenericInterfaceFuncInvoker2Ii20UIVertex_t4057497605S0_E6InvokeEPK10MethodInfoP12Il2CppObjectS0_S0_
yLc:__ZN5Unity9rapidjson13GenericReaderINS0_4UTF8IcEES3_13JSONAllocatorE11ParseNumberILj1ENS0_25GenericInsituStringStreamIS3_EENS0_15GenericDocumentIS3_S4_S4_EEEEvRT0_RT1_
$9j:__ZN6il2cpp2os10ThreadImplD2Ev
wMc:__ZN8Gradient8TransferI9JSONWriteEEvRT_
X6a:__ZN21RendererUpdateManager18OncePerFrameUpdateER13RendererScene
znj:_AudioSource_set_clip_m31653938
Mua:__ZNK12TLSAllocatorI14StackAllocatorE22GetAllocatedMemorySizeEv
Ysa:__ZN17RemapPPtrTransfer12PushMetaFlagE17TransferMetaFlags
$Ch:_EqualityComparer_1_System_Collections_IEqualityComparer_GetHashCode_m2138064395_gshared
Mbb:__ZN12HandlerChain4NameEv
rFg:_Int16_System_IConvertible_ToType_m3672347013_AdjustorThunk
Vrb:__Z29Transfer_Blittable_ArrayFieldI14SafeBinaryReadN4math12int3_storageEEvRT_R9ArrayInfoRK23StaticTransferFieldInfo
OSg:_SecurityException_ToString_m3228070608
YFg:_Int16_ToString_m2013897809
QSg:_String_Substring_m2848979100
Xed:__Z44Register_UnityEngine_CanvasRenderer_get_cullv
Wjd:__ZN11UnityEngine7Connect17XRDeviceInfoEvent12XRDeviceInfoD2Ev
hob:__Z44InitializeTransferFunctionScriptingTraitsForI17RemapPPtrTransferEvR31TransferFunctionScriptingTraits
gtc:__ZNSt3__26vectorI16MessageForwarder13stl_allocatorIS1_L18MemLabelIdentifier7ELi8EEE6resizeEj
xgg:_X509Chain_SelectBestFromCollection_m1068759221
pij:_SymmetricTransform_TransformBlock_m851059707
OWd:__ZL68IntPtr_t_CustomAttributesCacheGenerator_IntPtr_ToPointer_m4157623054P21CustomAttributesCache
JHb:__Z11StringToKeyRKN4core12basic_stringIcNS_20StringStorageDefaultIcEEEE
tXi:_Enumerator_System_Collections_IEnumerator_Reset_m2261065994_AdjustorThunk
klf:_ScrollRect_get_verticalNormalizedPosition_m3693218937
b6a:__ZN18LoadSceneOperation21MustCompleteNextFrameEv
wnf:_Slider_UpdateDrag_m1102107039
mMd:_MonoMethodInfo_get_method_info_m88651774
XT:__ZNK12AudioManager16GetAudioListenerEv
iGg:_Int32_System_IConvertible_ToDateTime_m1824716955
eOe:_RuntimeTypeHandle__ctor_m3315980708_AdjustorThunk
uvj:_Canvas_set_overrideSorting_m4088794420
E7b:__ZNSt3__26vectorI11CameraStackNS_9allocatorIS1_EEE8__appendEj
Ew:__ZN7mecanim9animation12GetHumanPoseERKNS0_18ClipMuscleConstantEPKNS0_10ValueDeltaERNS_5human9HumanPoseE
Yhd:__ZN11UnityEngine9Analytics15UserCustomEvent12CustomParams6InsertEPKcRNS1_11CustomValueE
yy:__ZN22AnimationMixerPlayable17ProcessRootMotionEP35AnimationPlayableEvaluationConstantP32AnimationPlayableEvaluationInputP33AnimationPlayableEvaluationOutput
R9:__Z13GetFileSystemv
nca:__ZN13RuntimeStaticI15GUIEventManagerLb0EE16StaticInitializeEPv
Y6a:__ZN21RendererUpdateManager9UpdateAllER13RendererScene
oma:__ZL45__ManagedRegistrationHelperFunction_Texture2DPv
Uvh:_Version_CompareTo_m3146217210
vxf:_TlsClientCertificate_FindParentCertificate_m3844441401
cej:_Uri_ParseAsUnixAbsoluteFilePath_m1476768041
qhh:_Array_InternalArray__ICollection_CopyTo_TisKeyValuePair_2_t71524366_m1056941380_gshared
$qh:_Type_get_IsClass_m589177581
ufe:__ZL62NativeTypeAttribute_t2250406315_CustomAttributesCacheGeneratorP21CustomAttributesCache
unb:__ZN19ShaderPropertySheet9SetMatrixEN9ShaderLab16FastPropertyNameERK10Matrix4x4fNS_8SetFlagsE
IRa:__Z29GetTextureSizeAllowedMultiple13TextureFormat
g6g:_Decimal_Subtract_m835601464
Fph:_TimeSpan__ctor_m3689759052_AdjustorThunk
mWj:_il2cpp_array_element_size
vVd:__ZL62ComVisibleAttribute_t1362837655_CustomAttributesCacheGeneratorP21CustomAttributesCache
Gva:__ZNSt3__26__treeINS_12__value_typeIN4core12basic_stringIcNS2_20StringStorageDefaultIcEEEEjEENS_19__map_value_compareIS6_S7_NS_4lessIS6_EELb1EEE13stl_allocatorIS7_L18MemLabelIdentifier7ELi16EEE25__emplace_unique_key_argsIS6_JNS_4pairIS6_jEEEEENSH_INS_15__tree_iteratorIS7_PNS_11__tree_nodeIS7_PvEEiEEbEERKT_DpOT0_
z5e:_RectTransform_INTERNAL_set_sizeDelta_m188783163
Vf:_glCheckFramebufferStatus
Phk:__ZN6il2cpp2os11EventHandle4WaitEv
X5:__Z43scripting_class_get_method_from_name_filter17ScriptingClassPtrPKciN24ScriptingMethodFiltering18MethodSearchFilterEPK16ScriptingTypePtr
lfd:__Z13RegisterClassIN2UI6CanvasEEvPKc
E$:__ZN19CloudServiceHandler20StartEventDispatcherERKN11UnityEngine15CloudWebService18CloudServiceConfigERNS1_23WebRequestRestHeaderMapE
pFd:_GraphicRaycaster__ctor_m646559428
Lwg:_BitArrayEnumerator_get_Current_m4220391712
S3f:__Z37il2cpp_codegen_get_executing_assemblyPK10MethodInfo
b6e:_Transform_get_parent_m835071599
Dcg:_IPAddress_get_ScopeId_m4237202723
Cpa:__ZN9Scripting11UnityEngine12Experimental10PlayerLoop9PreUpdate12CleanupProxyEv
qbj:_ExpressionCollection_get_Item_m3510736379
MAe:__ZL62FontData_t746620069_CustomAttributesCacheGenerator_m_AlignmentP21CustomAttributesCache
Ywd:_StandaloneInputModule_get_inputActionsPerSecond_m3946624274
Xmh:_UTF8Encoding_InternalGetCharCount_m82458470
U9e:_Vector2__cctor_m2108982652
c1e:_U3CBlockUntilRecvMsgU3Ec__AnonStorey2_U3CU3Em__0_m2225790220
tna:__ZN9Scripting11UnityEngine9Rendering20SphericalHarmonicsL29InitProxyEv
c2j:__ZN14dense_hash_mapI10KeyWrapperIP14Il2CppIUnknownEjN6il2cpp5utils11PointerHashIS1_EENS3_14EqualsComparerINSt3__28equal_toIS2_EEEENS9_9allocatorINS9_4pairIKS3_jEEEEE15set_deleted_keyERSF_
HSj:__ZN13Il2CppHashMapIPK14Il2CppAssemblyPK22Il2CppMonoAssemblyNameN6il2cpp5utils11PointerHashIS1_EENSt3__28equal_toIS2_EENSA_9allocatorINSA_4pairIK10KeyWrapperIS2_ES5_EEEEEC2EjRKS9_RKSC_
Wng:_DelegatePInvokeWrapper_AppDomainInitializer_t682969308
W8:__ZN8Remapper6RemoveEi
Yjh:_Encoding_GetBytes_m3148649984
ECc:__ZN9Scripting27CreateArgumentNullExceptionEPKc
u_c:__ZL36CleanupTextRenderingScriptingClassesv
Y7b:__ZN15ReflectionProbe17UseRendererResultEP13ProbeRenderer
DFc:__Z34Mesh_CUSTOM_SetArrayForChannelImplP12Il2CppObject30InternalScriptingShaderChannel34InternalScriptingVertexChannelTypeiP11Il2CppArrayi
Xvj:_CanvasRenderer_INTERNAL_CALL_EnableRectClipping_m3318097918
quh:_UInt64_System_IConvertible_ToDecimal_m806594027_AdjustorThunk
Uka:__ZL58__ManagedRegistrationHelperFunction_MaterialEffectPlayablePv
$nd:__ZN11UnityEngine7Connect20RemoteConfigSettings18StaticCallOnUpdateEPS1_
yQf:_Enumerator_get_CurrentValue_m3103267885_gshared
WNi:_List_1__ctor_m3395838871_gshared
vXh:_Collection_1_IsFixedSize_m3698021882_gshared
eK:__ZN9Scripting11UnityEngine18AssetBundleRequest9InitProxyEv
$4i:_PKCS12__ctor_m1854440921
kHi:_Array_Resize_TisCustomAttributeNamedArgument_t287865710_m885566878_gshared
Waa:__ZN17TransformInternal19FreeTransformThreadER18TransformHierarchyjj
Ns:__ZN9Scripting11UnityEngine12SkeletonBone12CleanupProxyEv
bu:__ZN11UnityEngine9Animation28GenericAnimationBindingCache25RegisterIAnimationBindingEPKN5Unity4TypeEiP17IAnimationBinding
fSd:_FormatterData__ctor_m3990517908
$ed:__Z70RectTransformUtility_CUSTOM_INTERNAL_CALL_RectangleContainsScreenPointP12Il2CppObjectRK13Vector2fIcallS0_
zJg:_DirectoryInfo__ctor_m481305441
kBj:__ZN6il2cpp2vm5Class15GetElementClassEP11Il2CppClass
W3:__ZN10MemoryPoolC2E10MemLabelIdbPKciii
_gd:__ZN14UnityAnalytics25UnregisterGlobalCallbacksEv
Axi:__Z80RuntimeInvoker_Boolean_t97287965_ColorBlockU26_t337120346_ColorBlock_t2139031574PFvvEPK10MethodInfoPvPS4_
o6b:__Z40ProcessCameraIndexListIsNodeVisibleInOutRK22SceneCullingParametersPK9SceneNodePK4AABBR9IndexList
khj:_GUIScrollGroup_SetHorizontal_m291416666
TFa:__ZN16GraphicsSettings8TransferI17RemapPPtrTransferEEvRT_
Ufd:__ZN2UI6Canvas13UpdateBatchesEb
teg:_X509BasicConstraintsExtension_Decode_m120598446
IB:__ZNK23AnimationPlayableOutput11DerivesFromE17ScriptingClassPtr
FMe:_ObjectReader_ReadObjectGraph_m340866276
aue:__ZL64EventType_t3528516131_CustomAttributesCacheGenerator_dragUpdatedP21CustomAttributesCache
old:__ZN11UnityEngine7Connect13ConfigHandler12GetListenersERKN4core12basic_stringIcNS2_20StringStorageDefaultIcEEEE
uib:__ZN9GfxDevice18AllocRenderSurfaceEb
Tsg:_Char__cctor_m2787437263
Exc:__ZN10TagManager32GetSortingLayerUniqueIDFromValueEi
lyd:_AspectRatioFitter_get_rectTransform_m2996235303
P5:__ZL27CleanupCoreScriptingClassesv
mFd:_Graphic_UnregisterDirtyMaterialCallback_m2707090617
TOf:_Comparer_1_System_Collections_IComparer_Compare_m1313384821_gshared
Wqc:__Z26AnimationCurve_CUSTOM_InitP12Il2CppObjectP11Il2CppArray
ezk:_glUniform1uiv__wrapper
sSj:__ZN6il2cpp2vm10Reflection7IsEventEP12Il2CppObject
X8:__ZN17PersistentManager26GetStreamNameSpaceInternalEi
nR:__ZN4FMOD6System11createSoundEPKcjP22FMOD_CREATESOUNDEXINFOPPNS_5SoundE
Wn:FUNCTION_TABLE_iiifiiii
jWc:__ZN13SpeedTreeWind20AdvanceWithoutUpdateEd
xXh:_ReadOnlyCollection_1_System_Collections_Generic_ICollectionU3CTU3E_Add_m1422506275_gshared
d3g:_DateTime_System_IConvertible_ToDecimal_m1044850612
V4:__ZN9ShaderLab19CommonPropertyNames13StaticCleanupEPv
k8:__Z31scripting_method_get_returntype18ScriptingMethodPtr
kWa:__ZN15SerializeTraitsI12LightmapDataE8TransferI24GenerateTypeTreeTransferEEvRS0_RT_
jRg:_SecurityElement_AddAttribute_m311510562
Gra:__ZN9Scripting5Unity11Collections44NativeDisableParallelForRestrictionAttribute12CleanupProxyEv
Dvk:_glStencilOpSeparate__wrapper
QAc:__ZN4Mesh5SetUvEiPKfjj
WTa:__ZN7Texture13SetAnisoLimitENS_20AnisotropicFilteringE
Opd:__ZN20UnityWebRequestProtoI24UnityWebRequestTransport16AtomicRefCounter14RedirectHelper14ResponseHelper15DownloadHandler13UploadHandler18CertificateHandler12HeaderHelper14AsyncOperationED2Ev
cw:__ZN21AnimationClipPlayable22PrepareAnimationEventsEfR13dynamic_arrayI22AnimationClipEventInfoLj0EE
Mqg:_Attribute_IsDefined_m4069052474
Ph:_emscripten_glCompressedTexSubImage2D
hRb:__ZN13GfxDeviceGLES22MemoryBarrierImmediateEyN2gl17MemoryBarrierTypeE
Cia:__ZN6prcoreL26RemapGenericFloatToIntegerI18TexFormatARGBFloat17TexFormatARGB8888EEvPKNS_9InnerInfoE
hWi:_List_1_set_Capacity_m1977188119_gshared
cCc:__Z46GetShaderModelNumericValueFromRequirementsMask18ShaderRequirements
W1c:_cff_ps_has_glyph_names
nzh:_Dictionary_2_Resize_m3287623642_gshared
pek:_GC_write
TIe:_SoapTypeAttribute_SetReflectionObject_m1691526413
YEd:_Graphic_OnPopulateMesh_m767318148
or:__ZN17ConstraintManagerD2Ev
Nwh:_Dictionary_2_Remove_m4193450060_gshared
SHg:_Int64_TryParse_m3606398488
fGi:_Array_InternalArray__set_Item_TisMark_t3471605523_m1299772331_gshared
bKc:__Z44Register_UnityEngine_GUIStyle_SetDefaultFontv
kyb:__Z18Transfer_BlittableI18StreamedBinaryReadILb1EELb1EiEvRK29SerializationCommandArgumentsR31RuntimeSerializationCommandInfo
MD:__ZN9BlobWrite8TransferI22OffsetPtrArrayTransferIKN4math7_float3EEEEvRT_PKc17TransferMetaFlags
Pgi:__Z173RuntimeInvoker_Int32_t2950945753_RuntimeObject_Int32_t2950945753_Int32_t2950945753_Int32_t2950945753_RuntimeObject_Int32_t2950945753_SByte_t1669577662_ContextU26_t3937453398PFvvEPK10MethodInfoPvPS4_
OPi:_List_1__ctor_m2576108087_gshared
hRj:__ZN15dense_hashtableINSt3__24pairIK10KeyWrapperINS1_IPK12PropertyInfoP11Il2CppClassEEEjEES9_17ReflectionMapHashIS8_EN14dense_hash_mapIS9_jSD_NS9_14EqualsComparerINS0_8equal_toIS8_EEEENS0_9allocatorISB_EEE9SelectKeyESI_SK_E12maybe_shrinkEv
Wqj:__ZL25UnresolvedVirtualCall_150P12Il2CppObject19Vector2_t2156229523S1_fiPK10MethodInfo
w5i:_X509Certificate_get_DSA_m565099499
Lyb:__Z18Transfer_BlittableI18StreamedBinaryReadILb1EELb1EsEvRK29SerializationCommandArgumentsR31RuntimeSerializationCommandInfo
nlh:_StringBuilder_Remove_m940064945
x2a:__ZN14SafeBinaryRead21TransferSTLStyleArrayI13dynamic_arrayI16SplashScreenLogoLj0EEEEvRT_17TransferMetaFlags
$lb:__ZN13dynamic_arrayIN16GeometryJobTasks15GeometryJobTaskELj0EE18resize_initializedEjRKS1_12ResizePolicy
eQe:_DESCryptoServiceProvider_GenerateIV_m683687014
aUa:__ZL21SetAnisoLimitEnumImplN7Texture20AnisotropicFilteringEb
jld:__ZN22BaseUnityConnectClient17OnEnterStateReadyEv
mof:_Text_get_fontSize_m1677872538
sMi:_List_1_System_Collections_IList_get_Item_m995551621_gshared
jpa:__ZN9Scripting11UnityEngine12Experimental9Rendering15ShadowSplitData9InitProxyEv
w0a:__ZN16BlendShapeVertex8TransferI19StreamedBinaryWriteILb0EEEEvRT_
hrc:__Z29Input_CUSTOM_GetMouseButtonUpi
IFg:_Int16_Parse_m138525169
AMj:__ZN6il2cpp6icalls8mscorlib6System8MonoType16InternalGetEventEP20Il2CppReflectionTypeP12Il2CppStringi
Xej:_UriScheme_t722425697_marshal_pinvoke_back
O3c:_UNITY_tt_face_load_maxp
xrc:__Z46Input_CUSTOM_INTERNAL_set_compositionCursorPosRK13Vector2fIcall
Iv:__ZN7mecanim5human12FullBodyMaskEv
i_b:__ZN13BatchRenderer15ApplyShaderPassER17ShaderPassContextPK18SharedMaterialDataP6ShaderPN9ShaderLab4PassEi13BatchingFlagsbbPKNS7_10GrabPassesEPK22DeviceRenderStateBlock
__a:__ZN19ShaderPropertySheet11ComputeHashEv
uFj:__ZN30dense_hashtable_const_iteratorI10KeyWrapperIPK19Il2CppGenericMethodES4_N6il2cpp8metadata23Il2CppGenericMethodHashEN14dense_hash_setIS4_S7_NS4_14EqualsComparerINS6_26Il2CppGenericMethodCompareEEENSt3__29allocatorIS4_EEE8IdentityESB_SE_EppEv
BZ:__ZN11UnityEngine15CloudWebService20WebRequestRestClient6IsDoneEv
x2i:_X509CertificateCollection_get_Item_m1033426577
Mi:_llvm_fabs_f32
eZ:__ZN11UnityEngine15CloudWebService16SessionContainer16GetJsonDataBlockEjRKN4core12basic_stringIcNS2_20StringStorageDefaultIcEEEERS6_PjSA_
OPh:_ASN1_Decode_m1695284166
V8g:_Enum_ToString_m3248653065
TQd:_ChannelServices__cctor_m2475086854
o7:__ZN14SafeBinaryReadD2Ev
OJh:_Enumerator_MoveNext_m3859993671_gshared
kXc:__ZN14SafeBinaryRead21TransferSTLStyleArrayI13dynamic_arrayIN20TextRenderingPrivate8FontImpl13CharacterInfoELj0EEEEvRT_17TransferMetaFlags
$zb:__ZN8Gradient8TransferI18StreamedBinaryReadILb1EEEEvRT_
eig:_Capture__ctor_m3103117740
Nfi:__Z113RuntimeInvoker_Void_t1185182177_RuntimeObject_Int64_t3736567304_RuntimeObject_Int64_t3736567304_Int64_t3736567304PFvvEPK10MethodInfoPvPS4_
C3e:_RangeInt_get_end_m4128831787_AdjustorThunk
A1j:__ZN6il2cpp6icalls8mscorlib6System4Type15MakeGenericTypeEP20Il2CppReflectionTypeP11Il2CppArray
mj:_SDL_PauseAudio
qyg:_Hashtable_Clone_m3078962909
JWj:_il2cpp_class_from_type
tNj:__ZN6il2cpp2os4File11GetStdErrorEv
Lzj:_NativeHeaderAttribute__ctor_m457462113
U4:__ZN9ShaderLab19CommonPropertyNames16StaticInitializeEPv
UNf:_Comparer_1__cctor_m2517796511_gshared
nu:__ZN7mecanim9animation18CreateAvatarOutputEPKNS0_14AvatarConstantEbbRNS_6memory9AllocatorE
Xxf:_TlsServerCertificateRequest_Update_m2763887540
cnf:_Slider_set_maxValue_m2251404465
qQ:__ZN11AudioSource23VirtualRedirectTransferER24GenerateTypeTreeTransfer
BAc:__ZN7Texture11SetWrapModeE15TextureWrapMode
FOa:__ZN14Texture2DArray23VirtualRedirectTransferER14SafeBinaryRead
A_f:_MissingMemberException__ctor_m1220732369
X0b:__ZNK6Camera21CalculateCanDoShadowsEv
J9j:__ZN6il2cpp2os6Thread12SetStackSizeEj
thf:_MaskableGraphic_RecalculateMasking_m183336762
LKi:_Array_InternalArray__get_Item_TisRuntimeObject_m3347010206_gshared
YId:_TypeBuilder_IsSubclassOf_m3458909121
Trk:dynCall_viffii
iBb:__Z18Transfer_BlittableI18StreamedBinaryReadILb0EELb1EhEvRK29SerializationCommandArgumentsR31RuntimeSerializationCommandInfo
Rlg:_X509Certificate__cctor_m198658613
l2e:_PlayableHandle_Equals_m1666612586_AdjustorThunk
iia:__ZN6prcoreL27StretchGenericFloatBilinearI15TexFormatRFloatEEvPKNS_9InnerInfoE
yde:__ZL139ServicePointManager_t170559685_CustomAttributesCacheGenerator_ServicePointManager_t170559685____CheckCertificateRevocationList_PropertyInfoP21CustomAttributesCache
f9g:_Enum_ToObject_m1628250250
By:__Z24ProcessAnimationMixBeginP35AnimationPlayableEvaluationConstantP32AnimationPlayableEvaluationInputP33AnimationPlayableEvaluationOutput
sUi:_List_1_set_Item_m2057272351_gshared
YXa:__ZN19StreamedBinaryWriteILb0EE21TransferSTLStyleArrayI13dynamic_arrayI8Vector2fLj0EEEEvRT_17TransferMetaFlags
qSa:__Z14PadImageBorderR14ImageReferenceii
JPj:__ZN15dense_hashtableINSt3__24pairIK10KeyWrapperINS1_IPK10MethodInfoP11Il2CppClassEEEjEES9_17ReflectionMapHashIS8_EN14dense_hash_mapIS9_jSD_NS9_14EqualsComparerINS0_8equal_toIS8_EEEENS0_9allocatorISB_EEE9SelectKeyESI_SK_E4findERSA_
EIj:__ZN6il2cpp2vm13MetadataCache28GetFieldDefaultValueForFieldEPK9FieldInfo
Leh:_Array_IndexOf_TisUIVertex_t4057497605_m3336763564_gshared
dz:__ZN27AnimationLayerMixerPlayableD2Ev
xAd:_ColorBlock_Equals_m518833916_AdjustorThunk
nEf:_InternalEnumerator_1_System_Collections_IEnumerator_get_Current_m1514266661_AdjustorThunk
pM:__ZN12AudioManager39HandlePendingAudioConfigurationCallbackEv
vma:__ZL43__ManagedRegistrationHelperFunction_Vector3Pv
lk:_emscripten_glIsFramebuffer
nSh:_RSAManaged_EncryptValue_m799827583
i7b:__ZN12_GLOBAL__N_16qAtan2Eff
pk:_JS_Sound_SetLoopPoints
Yik:__ZN6il2cpp2vm26MetadataAllocGenericMethodEv
Ebh:_Array_InternalArray__ICollection_Remove_TisUInt16_t2177724958_m1766181761_gshared
xTb:__ZN19ConstantBuffersGLES12RecordRenderEv
mOc:__ZN9JSONWrite8TransferI10RectOffsetEEvRT_PKc17TransferMetaFlags
hSa:__ZN4crnd12symbol_codec11decode_bitsEj
W$c:_cf2_doFlex
Iij:_AesManaged_GenerateIV_m1368817386
BL:__ZN4FMOD6System12createReverbEPPNS_6ReverbE
tck:__ZN6il2cpp2vm6String21InitializeEmptyStringEP11Il2CppClass
Wy:__ZN7mecanim19ValueArrayBlendNodeILb1EEEvRKNS_10ValueArrayERKNS_14ValueArrayMaskERS1_RS4_RNS_16ValueArrayWeightEf
G8a:__Z16MarkDependenciesR27GarbageCollectorThreadStatej
qyj:_ObjectPool_1_get_countInactive_m526975942_gshared
yJe:_RemotingServices_DisposeIdentity_m2605848806
fha:__ZNK9Transform11GetPositionEv
FTe:_Bounds_set_size_m4127623202
iEg:_GuidParser_Reset_m2640004655
dzc:__ZN31CanvasBatchIntermediateRenderer11AddSubBatchERK16DrawBuffersRangePK19ShaderPropertySheet
qvc:__ZN19RenderEventsContextC2Ei
cX:__Z6simd4fRKf
Tk:_emscripten_glEnable
VFf:_InternalEnumerator_1_System_Collections_IEnumerator_get_Current_m2982675020_gshared
vva:__ZN10TagManager23VirtualRedirectTransferER14SafeBinaryRead
qCe:__ZL51RawImage_t3182918964_CustomAttributesCacheGeneratorP21CustomAttributesCache
Dea:__ZN14PlayableOutput26ClearInvalidSourcePlayableEv
T3b:__Z15InitLightMeshesv
XKd:_MonoCMethod_ToString_m3992577062
VXj:_RaycastHit_get_collider_m1464180279
RTa:__ZN15QualitySettings8TransferI19StreamedBinaryWriteILb0EEEEvRT_
yNc:__Z18Transfer_BlittableI9JSONWriteLb1E11ColorRGBA32EvRK29SerializationCommandArgumentsR31RuntimeSerializationCommandInfo
ODg:_SortKey_GetHashCode_m3547067087
Cgf:_LayoutUtility_U3CGetFlexibleHeightU3Em__7_m2991026842
y$c:_cf2_arrstack_init
UKi:_Array_InternalArray__get_Item_TisResourceCacheItem_t51292791_m1306056717_gshared
Vti:__Z157RuntimeInvoker_Void_t1185182177_RuntimeObject_RuntimeObject_RuntimeObject_RuntimeObject_RuntimeObject_RuntimeObject_RuntimeObject_RuntimeObject_RuntimeObjectPFvvEPK10MethodInfoPvPS4_
f2:__Z15CleanLogHandler7LogTypePKcz
N1f:_NumberFormatter_NumberToString_m2481532188
_hc:__ZN9ShaderLab19SerializedSubShader8TransferI19StreamedBinaryWriteILb0EEEEvRT_
nlf:_ScrollRect_InternalGetBounds_m599803667
Zra:__ZN9Scripting5Unity11Collections8LowLevel6Unsafe41NativeContainerIsAtomicWriteOnlyAttribute9InitProxyEv
WEb:__ZN6Camera17RemoveImageFilterERK11ImageFilter
Fmb:__ZNSt3__218__insertion_sort_3IR25ValueParameterArraySorterPN20GpuProgramParameters14ValueParameterEEEvT0_S6_T_
mde:__ZL67EditorBrowsableAttribute_t1475454531_CustomAttributesCacheGeneratorP21CustomAttributesCache
Bxg:_Comparer__cctor_m3311686689
nQf:_Enumerator_VerifyState_m1203790900_gshared
xFf:_InternalEnumerator_1_get_Current_m3500427238_AdjustorThunk
Ggd:__ZN2UI26InitializeDeviceForOverlayEi
B3:__Z27LogRepeatingStringWithFlagsRKN4core12basic_stringIcNS_20StringStorageDefaultIcEEEE15LogMessageFlagsi
Buh:_UInt64_System_IConvertible_ToSingle_m925613075
g9g:_Enum_IsDefined_m1442314461
joh:_Thread__cctor_m817723615
Cmj:_AudioExtensionManager_RegisterBuiltinDefinitions_m2742744104
iw:__ZN17AnimationPlayable28ComputeNeedsBindingRebuildedEv
nv:__ZN17AnimationPlayable23RequestAllocateBindingsEv
djh:_DecoderReplacementFallbackBuffer_Fallback_m1261056214
I$f:_Binder_get_DefaultBinder_m950908649
Lyg:_StreamReader__ctor_m1616861391
c5c:_tt_cmap6_char_index
kmd:__ZN18UnityConnectClient33OnPlayerSessionStateChangedStaticEPS_jyy
FNg:_RSA_ToXmlString_m2922661427
l_:__ZNK11UnityEngine15CloudWebService23WebRequestUploadHandler11GetProgressEv
OOb:__ZN7ApiGLES4LoadE16GfxDeviceLevelGL
bSa:__ZN4crnd12crn_unpacker22decode_color_endpointsEv
i5j:__ZN15dense_hashtableI10KeyWrapperIP18Il2CppGenericClassES3_N6il2cpp8metadata22Il2CppGenericClassHashEN14dense_hash_setIS3_S6_NS3_14EqualsComparerINS5_25Il2CppGenericClassCompareEEENSt3__29allocatorIS3_EEE8IdentityESA_SD_E15insert_noresizeERKS3_
Uwc:__ZZL31RegisterOtherRendererPropertiesR22GenericPropertyBindingEN30Wrapper_RendererReceiveShadows13GetFloatValueEPv
aah:_Array_InternalArray__ICollection_Contains_TisSlot_t384495010_m688761886_gshared
GRa:__ZN17SharedTextureDataC2E10MemLabelIdii13TextureFormatjiibb
Hvi:__Z114RuntimeInvoker_RuntimeObject_RuntimeObject_Int32_t2950945753_Int32_t2950945753_Int32_t2950945753_Int32_t2950945753PFvvEPK10MethodInfoPvPS4_
ZHb:__ZN8Material11SetPassFastEPN9ShaderLab4PassER17ShaderPassContextP6Shaderib
Vld:__ZN11UnityEngine7Connect20BasePersistentValues10SaveValuesER9JSONWrite
yUh:_Collection_1_IsFixedSize_m3748602684_gshared
f3g:_DateTime_System_IConvertible_ToDouble_m2116720007
chc:__ZN15SerializeTraitsINSt3__24pairIN4core12basic_stringIcNS2_20StringStorageDefaultIcEEEE4PPtrI7TextureEEEE8TransferI24GenerateTypeTreeTransferEEvRSA_RT_
vWe:_Display_GetSystemExtImpl_m2808197389
yph:_WaitHandle_WaitOne_m2577152516
VOe:_SByte_Parse_m2899090751
Aoa:__ZN9Scripting11UnityEngine20ManagedStreamHelpers12CleanupProxyEv
m2f:_NumberFormatter_AppendExponent_m1258666517
mBf:_ArrayReadOnlyList_1_GetEnumerator_m1835926958_gshared
DBc:__Z14ScaleCurveTimeR17AnimationCurveTplIfEf
aca:__ZN20GlobalCachingManager7DisposeEv
CZb:__Z12SetupLODFadeR9GfxDeviceR17ShaderPassContextf
dOa:__ZNK14PlayableOutput7GetTypeEv
cPc:__ZN9JSONWrite8TransferI13dynamic_arrayI4AABBLj0EEEEvRT_PKc17TransferMetaFlags
G3b:__ZL24CollectForwardObjectsJobP27CollectForwardObjectsHeader
cRc:__ZN8JSONRead21TransferSTLStyleArrayI13dynamic_arrayIdLj0EEEEvRT_17TransferMetaFlags
$5b:__Z13IsNodeVisibleRK9SceneNodeRK4AABBRK22SceneCullingParameters
mfh:_Array_InternalArray__IndexOf_TisLabelFixup_t858502054_m1491765395_gshared
hNh:_SortKeyBuffer_AppendCJKExtension_m2591091991
ffd:__Z57RectTransformUtility_CUSTOM_INTERNAL_CALL_PixelAdjustRectP12Il2CppObjectS0_R5RectTIfE
Rmh:_UTF8Encoding_GetByteCount_m4153686982
aBk:_emscripten_glStencilMask__wrapper
Cei:__Z49RuntimeInvoker_Void_t1185182177_Double_t594665363PFvvEPK10MethodInfoPvPS4_
kFj:__ZN15dense_hashtableI10KeyWrapperIPK19Il2CppGenericMethodES4_N6il2cpp8metadata23Il2CppGenericMethodHashEN14dense_hash_setIS4_S7_NS4_14EqualsComparerINS6_26Il2CppGenericMethodCompareEEENSt3__29allocatorIS4_EEE8IdentityESB_SE_EC2ERKSH_j
eAa:__ZN15RenderNodeQueue7CleanupEv
rge:__ZL66RuntimePlatform_t4159857903_CustomAttributesCacheGenerator_XBOX360P21CustomAttributesCache
gVc:__ZN16NovodexAllocator8allocateEjPKcS1_i
a3b:__Z17PrepareShadowMapsRK11CullResultsRK11ActiveLightRK10MinMaxAABB
n5i:_DeriveBytes_DeriveIV_m973925711
tGg:_Int32_System_IConvertible_ToSByte_m3133688512
Urd:__ZN9Scripting11UnityEngine12Experimental23SubsystemDescriptorBase9InitProxyEv
C3b:__ZN9ShaderLab10GrabPassesD2Ev
GPa:__ZN14Texture2DArray13UploadTextureEv
dhf:_MaskableGraphic_UpdateCull_m2805101913
u4c:_tt_cmap14_done
G6a:__ZN18AwakeFromLoadQueue25RegisterObjectInstanceIDsEv
fbf:_InputField_UpdateLabel_m1837760870
iz:__ZNK27AnimationLayerMixerPlayable11DerivesFromE17ScriptingClassPtr
rYc:__ZN20TextRenderingPrivate19NativeTextGenerator15InsertCharacterEiPj
C$f:_MonoType_get_attributes_m1332507727
zgj:_GUIContent_ClearStaticCache_m1205116045
qSg:_WindowsIdentity_Dispose_m3466258450
zLe:_BinaryCommon__cctor_m2978407547
n0:__GLOBAL__sub_I_Runtime_Burst_0_cpp
F1b:__Z19GetReflectionSampleRK23ReflectionProbesContextRK22ActiveReflectionProbesRK27PerObjectLightCullingOutputRK10RenderNodejP16ReflectionSample
Fwc:__ZN28ReflectionProbeAnchorManager23HandleAnchorDestructionEPK15TransformAccessj
Tod:__ZL65__ManagedRegistrationHelperFunction_UnityWebRequestAsyncOperationPv
rbi:_IndexedSet_1__ctor_m2250384602_gshared
dth:_UInt16_TryParse_m4139137016
pEc:__Z41MonoBehaviour_Set_Custom_PropUseGUILayoutP12Il2CppObjecth
qna:__ZN9Scripting11UnityEngine15ResourceRequest12CleanupProxyEv
g9j:__ZN6il2cpp2gc16GarbageCollector9FreeFixedEPv
Ljh:_Encoding__ctor_m2997749867
b_e:_ManagedStreamHelpers_ManagedStreamSeek_m3158782053
hdj:_ExpressionAssertion_Compile_m2166597834
Enb:__ZN16ScriptingManagerD0Ev
DTg:_Single_System_IConvertible_ToSByte_m1208276900_AdjustorThunk
kdk:__ZN6il2cpp6icalls8mscorlib6System7Convert24InternalFromBase64StringEP12Il2CppStringb
w3j:__ZN30dense_hashtable_const_iteratorINSt3__24pairIK10KeyWrapperINS1_IPKcS4_EEEiEES6_24NamespaceAndNamePairHashN14dense_hash_mapIS6_iS9_NS6_14EqualsComparerI26NamespaceAndNamePairEqualsEENS0_9allocatorIS8_EEE9SelectKeyESD_SF_EppEv
RGc:__Z44Register_UnityEngine_Component_get_transformv
RE:__ZN12_GLOBAL__N_120ProcessPlayableGraphERN8Animator11AnimatorJobER35AnimationPlayableEvaluationConstantR32AnimationPlayableEvaluationInputR33AnimationPlayableEvaluationOutputPFvS4_R17AnimationPlayableEPFvS4_S6_S8_EPFvS8_S4_S6_S8_fESE_MS9_FvPS3_PS5_PS7_E
qwj:_CanvasRenderer_get_absoluteDepth_m2703237819
XDg:_TextInfo_ToLower_m2744057472
RUb:__ZN17ArchiveFileSystem12MountArchiveEPKcS1_
TDj:__ZN14dense_hash_mapI10KeyWrapperIP9FieldInfoEiN6il2cpp5utils11PointerHashIS1_EENS3_14EqualsComparerINSt3__28equal_toIS2_EEEENS9_9allocatorINS9_4pairIKS3_iEEEEE15set_deleted_keyERSF_
vEh:_EqualityComparer_1_System_Collections_IEqualityComparer_Equals_m3977314386_gshared
qNc:__Z18Transfer_BlittableI9JSONWriteLb1E8Vector4fEvRK29SerializationCommandArgumentsR31RuntimeSerializationCommandInfo
S5:__Z11RequireTypePKcS0_S0_
bAg:_CCGregorianCalendar_year_from_fixed_m463929682
cbd:__ZN2UI13CanvasManagerD0Ev
dyf:_TlsServerHello_Update_m3935081401
tSe:_Debug_get_unityLogger_m2239795986
GXh:_ReadOnlyCollection_1_System_Collections_IEnumerable_GetEnumerator_m2123446296_gshared
trf:_MD2Managed_Initialize_m2341076836
$1h:_ReadOnlyCollection_1_System_Collections_IList_Add_m4240023232_gshared
bjb:__ZN9GfxDevice15ImmediateVertexEfff
IVa:__ZNK16LightmapSettings22GetTypeVirtualInternalEv
iLb:__ZN13GfxDeviceGLES15SetStencilStateEPK18DeviceStencilStatei
Yrg:_Buffer_BlockCopyInternal_m418318694
rnk:_cycle
adk:__ZN6il2cpp2vm8Profiler7GCEventE13Il2CppGCEvent
ngi:__Z76RuntimeInvoker_Void_t1185182177_RuntimeObject_RuntimeFieldHandle_t1871169219PFvvEPK10MethodInfoPvPS4_
Cd:_emscripten_glUniform1iv
Nlb:__ZN13ComputeShader14SetBufferParamEjRKN9ShaderLab16FastPropertyNameE15ComputeBufferIDb
Ufb:__ZN16MemoryFileSystemD2Ev
Egi:__Z150RuntimeInvoker_Int32_t2950945753_RuntimeObject_Int32_t2950945753_Int32_t2950945753_RuntimeObject_Int32_t2950945753_Int32_t2950945753_Int32_t2950945753PFvvEPK10MethodInfoPvPS4_
Zqg:_BitConverter_DoubleToInt64Bits_m3574395137
c_g:_DateTime_Parse_m3729096069
TPi:_List_1_System_Collections_IList_Add_m1540114404_gshared
mFa:__ZN16GraphicsSettings27SetLightsUseLinearIntensityEb
mFc:__Z37Register_UnityEngine_Camera_get_depthv
Pwc:__ZZN8Renderer15InitializeClassEvEN32FunctorImpl_146kCullSceneChanged4CallEPviR11MessageData
AYf:_StringReader_Read_m3322058819
gRd:_CrossAppDomainChannel_get_ChannelPriority_m3418073750
$df:_Selectable_StartColorTween_m3618813981
Ysd:_BaseInputModule_HandlePointerExitAndEnter_m1705532066
wcc:__Z23ConvertIntegerToTypePtrItEbPvR14SafeBinaryRead
d7g:_Delegate_CombineImpl_m3572135514
Sxc:__Z13RegisterClassI15EditorExtensionEvPKc
O1f:_NumberFormatter_IntegerToString_m1679294587
m$h:_ReadOnlyCollection_1_System_Collections_IList_RemoveAt_m422909114_gshared
DF:__ZN7mecanim5human29HumanGetGoalOrientationOffsetENS0_4GoalE
Td:_emscripten_glStencilFunc
Dbf:_InputField_get_isFocused_m709836844
_d:_glGetActiveUniformBlockName
Cdj:_Parser_IsIgnoreCase_m2210120858
uIj:__ZN6il2cpp2vm13MetadataCache28GetGenericContainerFromIndexEi
u8a:__ZN27UnloadUnusedAssetsOperationD0Ev
mN:__ZN4FMOD7Channel20set3DConeOrientationEP11FMOD_VECTOR
mn:FUNCTION_TABLE_iiifii
s5f:_AssemblyBuilder_not_supported_m1735277432
_6j:__ZN6il2cpp2vm12GenericClass11SetupEventsEP11Il2CppClass
kZc:_ft_open_face_internal
S4c:_tt_cmap12_get_info
G2j:__ZN6il2cpp2vm15ReboxIReferenceEP14Il2CppIUnknownP11Il2CppClass
Dyj:__ZN6il2cpp6icalls8mscorlib6System7Decimal14decimalCompareEP19il2cpp_decimal_reprS5_
Mwh:_Dictionary_2_OnDeserialization_m4209543208_gshared
Kdk:__ZThn4_N6il2cpp2vm13CachedCCWBaseINS0_13ManagedObjectEE7ReleaseEv
yNg:_RNGCryptoServiceProvider_GetNonZeroBytes_m1918423726
Ggb:__ZNK16MemoryFileSystem6ExistsERK13FileEntryData
Upi:__Z100RuntimeInvoker_Void_t1185182177_RuntimeObject_Int32_t2950945753_Int32_t2950945753_UInt16_t2177724958PFvvEPK10MethodInfoPvPS4_
fyk:_glCopyTexImage2D__wrapper
iIb:__Z18ClearByDrawingQuad13GfxClearFlagsRK10ColorRGBAffjR17ShaderPassContext
Pha:__ZN6prcoreL17RemapGenericFloatI14TexFormatRHalf15TexFormatRFloatEEvPKNS_9InnerInfoE
k2f:_NumberFormatter_FormatExponential_m2139559983
Xji:__Z155RuntimeInvoker_Void_t1185182177_RuntimeObject_SByte_t1669577662_SByte_t1669577662_Int64U26_t200113976_ObjectU26_t2146539884_SerializationInfoU26_t419328957PFvvEPK10MethodInfoPvPS4_
wea:__ZN15DirectorManager21RebuildStageCallbacksEv
AIb:__ZN19RuntimeSceneManager9LoadSceneERKN4core12basic_stringIcNS0_20StringStorageDefaultIcEEEES6_S6_RK9UnityGUIDiNS_11LoadingModeE
vSe:_Application_Internal_ApplicationQuit_m2936209313
SNb:__ZN7ApiGLES10DrawArraysE16GfxPrimitiveTypejjj
gR:__ZN10SampleClip13LoadBaseSoundEv
Img:_SmallXmlParser_SkipWhitespaces_m4243606597
XAg:_CompareInfo_IndexOf_m2631915198
orb:__ZN14SafeBinaryRead21TransferSTLStyleArrayI13dynamic_arrayI10Matrix4x4fLj0EEEEvRT_17TransferMetaFlags
Asg:_Byte_CompareTo_m4285128861
pud:_TriggerEvent__ctor_m87299207
Zrd:__ZN9Scripting11UnityEngine12Experimental27Internal_SubsystemInstances12CleanupProxyEv
CU:__Z57AudioSource_CUSTOM_INTERNAL_CALL_ClearExtensionPropertiesP12Il2CppObjectRK12PropertyName
T6j:__ZN15dense_hashtableINSt3__24pairIK10KeyWrapperIP12Il2CppObjectEN6il2cpp2gc9CachedCCWEEES5_NS7_5utils11PointerHashIS3_EEN14dense_hash_mapIS5_S9_SD_NS5_14EqualsComparerINS0_8equal_toIS4_EEEENS0_9allocatorISA_EEE9SelectKeyESI_SK_E15insert_noresizeERKSA_
KBh:_EqualityComparer_1__cctor_m3962593840_gshared
$Na:__ZN22DeviceMVPMatricesStateC2ER9GfxDevice
_zf:_SslClientStream_Finalize_m1251363641
kZb:__ZNK6Camera32ResolveLastTargetToCurrentTargetEv
Uwg:_Comparer_Compare_m3984347512
HUj:__ZN6il2cpp2vm10Reflection12HasAttributeEP9FieldInfoP11Il2CppClass
rpa:__ZN9Scripting11UnityEngine12Experimental9Rendering11CullResults9InitProxyEv
ec:invoke_viiifi
fsc:__Z13RegisterClassI6SpriteEvPKc
GMd:_MonoProperty_GetCustomAttributes_m3619796755
$Ge:_MethodDictionary_System_Collections_IEnumerable_GetEnumerator_m4169036899
fNg:_RIPEMD160Managed_JJJ_m4161373884
Qzh:_DefaultComparer_Equals_m3257444875_gshared
hf:_JS_Sound_SetPosition
TIa:__ZN19RenderBufferManager13GetTempBufferEii17DepthBufferFormat19RenderTextureFormatj22RenderTextureReadWrite14VRTextureUsagei23RenderTextureMemoryless
fIj:__ZL13GetSharedInstPK17Il2CppGenericInst
_Da:__Z27ConvertSubMeshesToTrianglesIjEvR13dynamic_arrayI7SubMeshLj0EERS0_IhLj0EE
Kjd:__ZN22BaseUnityConnectClient17SaveSessionValuesEv
ADf:_InternalEnumerator_1_get_Current_m476140818_gshared
J3b:__Z24SetupActiveLightsContextR21ActiveLightingContextRK12ActiveLightsRK11CullResultsP14ShadowMapCacheRK10MinMaxAABB
qlc:__Z38Sprite_CUSTOM_INTERNAL_get_textureRectP12Il2CppObjectP5RectTIfE
tTj:__ZNK15dense_hashtableINSt3__24pairIK10KeyWrapperIPK22Il2CppGenericParameterEPK24MonoGenericParameterInfoEES6_N6il2cpp5utils11PointerHashIS4_EEN14dense_hash_mapIS6_SA_SF_NS6_14EqualsComparerINS0_8equal_toIS5_EEEENS0_9allocatorISB_EEE9SelectKeyESK_SM_E3endEv
Bnc:__ZN9TextAsset7SetTextERKN4core12basic_stringIcNS0_20StringStorageDefaultIcEEEE
Sya:__ZN6Camera8TransferI24GenerateTypeTreeTransferEEvRT_
Ga:invoke_iiiiiiif
Ea:invoke_iiiiiiii
AFi:_Array_InternalArray__set_Item_TisByte_t1134296376_m3104140039_gshared
KEc:__Z56Register_UnityEngine_MonoBehaviour_IsObjectMonoBehaviourv
P4e:_Rect_ToString_m447614148
R5i:_PKCS12_GetBytes_m415958948
xXb:__ZN8Renderer17PendingAddToSceneEv
bCk:b122
mCk:b125
iCk:b124
nCk:b126
amc:__Z52Register_UnityEngine_RectTransform_INTERNAL_get_rectv
p$e:_Mesh_SetSizedArrayForChannel_m2565120436
C5:__Z21PostprocessStacktracePKcRN4core12basic_stringIcNS1_20StringStorageDefaultIcEEEE
c_e:_ManagedStreamHelpers_ManagedStreamLength_m2930872960
Mlc:__Z43RectTransform_CUSTOM_INTERNAL_get_anchorMinP12Il2CppObjectP13Vector2fIcall
Koc:__Z47Register_UnityEngine_Camera_get_allCamerasCountv
Izd:___clang_call_terminate
Ojd:__ZN22BaseUnityConnectClient20StartEventDispatcherEv
VAc:__ZNSt3__26vectorIj13stl_allocatorIjL18MemLabelIdentifier1ELi16EEE6assignIPKtEENS_9enable_ifIXaasr21__is_forward_iteratorIT_EE5valuesr16is_constructibleIjNS_15iterator_traitsIS9_E9referenceEEE5valueEvE4typeES9_S9_
gE:__ZN7mecanim9animation16EvaluateAvatarIKEPKNS0_14AvatarConstantEPKNS0_11AvatarInputEPNS0_12AvatarOutputEPNS0_12AvatarMemoryEPNS0_15AvatarWorkspaceEb
uA:__ZN26AnimatorControllerPlayable10GetIntegerEiRi
JWb:__ZN12InputManager13InputEndFrameEv
E$e:_Object_get_name_m4211327027
oYj:__ZN6il2cpp2vm6Thread5SetupEP12Il2CppThread
UQf:_Enumerator_System_Collections_IDictionaryEnumerator_get_Key_m2500634048_gshared
KDg:_SortKey_Compare_m1705990888
Rzj:_NativeNameAttribute__ctor_m3296876808
wok:___munmap
$f:_localtime_r
YXb:__ZN22RenderingCommandBuffer13GetAndCheckRTE24BuiltinRenderTextureTypeRKN9ShaderLab16FastPropertyNameEPKcPP13RenderTexture
d1:__Z19free_alloc_internalPv10MemLabelId
ot:__ZN9Scripting11UnityEngine10Animations18PositionConstraint9InitProxyEv
cg:_strftime
iJa:__ZN7Texture33SetStoredColorSpaceNoDirtyNoApplyE17TextureColorSpace
LOd:_ResourceSet__ctor_m3618395942
O5g:_Decimal_System_IConvertible_ToDouble_m3125524987_AdjustorThunk
paa:__ZN12FileAccessorD2Ev
nEa:__ZN14VertexDataInfoC2Ev
S8j:__ZN6il2cpp2gc16GarbageCollector14CollectALittleEv
KHc:__ZN9Scripting11UnityEngine11SliderState12CleanupProxyEv
vzc:__ZNK9HPlayable15GetPlayableTypeEv
yzb:__ZL17Transfer_GUIStyleI18StreamedBinaryReadILb1EELb1EEvRK29SerializationCommandArgumentsR31RuntimeSerializationCommandInfo
qif:_RectMask2D_IsRaycastLocationValid_m1652308696
C3:__ZNSt3__26__treeINS_12__value_typeIPKciEENS_19__map_value_compareIS3_S4_15compare_tstringIS3_ELb1EEENS_9allocatorIS4_EEE21__emplace_unique_implIJNS_4pairIPciEEEEENSD_INS_15__tree_iteratorIS4_PNS_11__tree_nodeIS4_PvEEiEEbEEDpOT_
qMj:__ZN6il2cpp6icalls8mscorlib6SystemL9IsPrivateEPK12PropertyInfo
_5i:_X501_ToString_m1148552872
E5e:_RectTransform_add_reapplyDrivenProperties_m1374850920
Q4:__ZN9shadertag10InitializeEv
XVc:__GLOBAL__sub_I_Modules_Terrain_Public_1_cpp
OTa:__ZN15QualitySettings14QualitySetting8TransferI24GenerateTypeTreeTransferEEvRT_
EGc:__Z44Register_UnityEngine_Object_DestroyImmediatev
t1g:_Convert_ToSingle_m835189399
Kkc:__ZN22BlockMemoryCacheWriter14LockCacheBlockEjPPhS1_
Zuh:_UInt64_ToString_m2177233542
Ks:__ZN9Scripting11UnityEngine21StateMachineBehaviour9InitProxyEv
bRc:__Z22TransferField_NonArrayI8JSONRead27Converter_SimpleNativeClassI8GUIStyleEEvRK23StaticTransferFieldInfoR31RuntimeSerializationCommandInfoRT0_
$pa:__ZN9Scripting11UnityEngine26ExcludeFromPresetAttribute9InitProxyEv
Jg:_llvm_eh_typeid_for
zKe:_RemotingServices_FindInterfaceMethod_m2125212568
HB:__ZNK23AnimationPlayableOutput7GetTypeEv
dYf:_StreamWriter__cctor_m1229272693
R8g:_Enum_System_IConvertible_ToSByte_m779472798
arh:_Type_get_IsInterface_m3284996719
PBb:__Z18Transfer_BlittableI18StreamedBinaryReadILb0EELb1E8Vector4fEvRK29SerializationCommandArgumentsR31RuntimeSerializationCommandInfo
oXc:__ZN14SafeBinaryRead21TransferSTLStyleArrayI13dynamic_arrayIN4core17string_with_labelILi35EEELj0EEEEvRT_17TransferMetaFlags
Oqj:__ZL25UnresolvedVirtualCall_142P12Il2CppObject17Color_t2555686324faaaPK10MethodInfo
Bzh:_Dictionary_2_U3CCopyToU3Em__0_m2023886030_gshared
CAk:_glBindVertexArray__wrapper
uMe:_SerializationInfo__ctor_m2923079689
rMa:__ZN8Material8TransferI14SafeBinaryReadEEvRT_
IQa:__ZN12CubemapArray17UploadToGfxDeviceEv
NFg:_Int32_JumpOverWhite_m208298144
Dzi:__Z53RuntimeInvoker_Int32_t2950945753_UIVertex_t4057497605PFvvEPK10MethodInfoPvPS4_
Dzk:_emscripten_glGetUniformiv__wrapper
Ddk:__ZN6il2cpp2vm13ManagedObject14QueryInterfaceERK10Il2CppGuidPPv
VN:__ZN11AudioSource4StopEb
_mk:_frexp
bok:_fscanf
enb:__ZN18GlslGpuProgramGLESD2Ev
Y9b:__ZN13RenderTexture14SetVolumeDepthEi
IY:__ZN11UnityEngine15CloudWebService14DataErrorEvent12ToJsonStringERN4core12basic_stringIcNS2_20StringStorageDefaultIcEEEEjPKc
kpi:__Z86RuntimeInvoker_Void_t1185182177_UInt16_t2177724958_SByte_t1669577662_SByte_t1669577662PFvvEPK10MethodInfoPvPS4_
ajc:__Z22LoadGpuProgramFromDataPKhS0_Rj
HRc:__ZN10Matrix4x4f8TransferI8JSONReadEEvRT_
$hf:_PositionAsUV1_ModifyMesh_m4231919476
Wxg:_Hashtable__ctor_m1941859523
b1b:__Z26FindForwardLightsForObjectR13dynamic_arrayIhLj0EEPK11CulledLightjRK12ActiveLightsRK10RenderNodePK19ShaderPropertySheetbRK23FindForwardLightsParamsf
bma:__ZL44__ManagedRegistrationHelperFunction_GPUFencePv
Xkf:_ScrollRect_set_horizontalScrollbarSpacing_m2209919081
URb:__ZN25TransformFeedbackSkinning31CleanupTransformFeedbackShadersEv
xrh:_Type_GetTypeCodeInternal_m1968182887
zza:__Z22scripting_object_unbox18ScriptingObjectPtr
tYc:__ZNK20TextRenderingPrivate8FontImpl19GetCharacterAdvanceEjijfPj
Tgh:_Array_InternalArray__ICollection_Add_TisUriScheme_t722425697_m3142345403_gshared
Umk:_fmt_u
QXa:__ZN10VertexData8TransferI18StreamedBinaryReadILb0EEEEvRT_
Vlk:__ZN6il2cpp8metadata25Il2CppGenericClassCompare7CompareEPK18Il2CppGenericClassS4_
Dfd:__ZN2UI29ResetVRScreenSpaceWarningFlagEv
i0f:_MonoType_get_Assembly_m4290914179
Ljc:__ZN9ShaderLab7ProgramC2E10MemLabelIdi10ShaderType
Hra:__ZN9Scripting5Unity11Collections8LowLevel6Unsafe29NativeSetThreadIndexAttribute9InitProxyEv
Axa:__ZN12BaseRendererD2Ev
Anc:__ZNSt3__26vectorI4PPtrI10MonoScriptE13stl_allocatorIS3_L18MemLabelIdentifier79ELi16EEE6insertENS_11__wrap_iterIPKS3_EERS9_
EVg:_String_LastIndexOf_m95398196
wGi:_Array_InternalArray__set_Item_TisUILineInfo_t4195266810_m2313892078_gshared
tdc:__ZNK21UnityDefaultAllocatorI17LowLevelAllocatorE8ContainsEPKv
gOe:_RuntimeTypeHandle_Equals_m2857439487
Th:_emscripten_get_main_loop_timing
gQd:_SafeHandle_Finalize_m3866180675
NTa:__ZN24GenerateTypeTreeTransfer21TransferSTLStyleArrayINSt3__26vectorIN15QualitySettings14QualitySettingENS1_9allocatorIS4_EEEEEEvRT_17TransferMetaFlags
JLg:_MemoryStream_ToArray_m3911744835
tQf:_Enumerator_System_Collections_IDictionaryEnumerator_get_Entry_m859540448_AdjustorThunk
k9b:__ZN23ManagedAttributeManager52CallManagedGetParentTypeDisallowingMultipleInclusionE17ScriptingClassPtr
N1a:__Z10AddGUIAxesR13dynamic_arrayI9InputAxisLj0EE
Erh:_Type_GetHashCode_m1947148725
tki:__Z91RuntimeInvoker_Void_t1185182177_RuntimeObject_RuntimeObject_RuntimeObject_SByte_t1669577662PFvvEPK10MethodInfoPvPS4_
Q9a:__ZNK2UI13RectTransform22GetTypeVirtualInternalEv
cp:getTempRet0
qtd:_BaseRaycaster_OnEnable_m2678466030
EXe:_UnityEventBase__ctor_m1851535676
BIi:_Array_Sort_TisVector4_t3319028937_m2797285308_gshared
FZf:_UnexceptionalStreamWriter_Write_m1834931241
k$j:__ZN6il2cpp6icalls8mscorlib6System9ThreadingL21lookup_cached_cultureEP12Il2CppThreadi
bLj:_NetFxCoreExtensions_CreateDelegate_m751211712
G4b:__ZN18DeferredRenderLoopD2Ev
Uwj:_AnimationLayerMixerPlayable__cctor_m4086299972
Asa:__ZNK16TypeTreeIterator4NameEv
P9:__ZN15FileSystemEntry3SetEPKc
P5f:_ConstructorBuilder_Invoke_m3010446651
Epc:__Z52Register_UnityEngine_Application_set_targetFrameRatev
Icg:_IPv6Address_set_ScopeId_m3907190992
bYh:_ReadOnlyCollection_1_System_Collections_Generic_IListU3CTU3E_Insert_m568455025_gshared
VM:__ZN20SoundChannelInstance15ParameterBuffer5ApplyEPN4FMOD7ChannelE
wcg:_IPv6Address__ctor_m4117281080
P0g:_Convert_ToInt64_m2075293963
qYc:__ZN20TextRenderingPrivate19NativeTextGenerator9InsertTabEv
lrk:_sbrk
XK:__ZL49__ManagedRegistrationHelperFunction_AudioSettingsPv
kld:__ZN11UnityEngine15PlatformWrapper24GetRuntimePlatformStringEv
Di:_glIsEnabled
x5f:_DerivedType__ctor_m1853298054
aqb:__Z25scripting_class_get_image17ScriptingClassPtr
Twg:_CaseInsensitiveComparer_Compare_m1224120810
OMi:_List_1_RemoveAt_m2730968292_gshared
v4a:__ZNSt3__26vectorIN4core12basic_stringIcNS1_20StringStorageDefaultIcEEEE13stl_allocatorIS5_L18MemLabelIdentifier13ELi16EEEC2INS_11__wrap_iterIPS5_EEEET_SE_RKS8_PNS_9enable_ifIXaasr21__is_forward_iteratorISE_EE5valuesr16is_constructibleIS5_NS_15iterator_traitsISE_E9referenceEEE5valueEvE4typeE
Hi:_emscripten_glDrawElementsInstanced
qA:__ZN26AnimatorControllerPlayable27SetupStateMachineBehavioursEv
Hge:__ZL79Camera_t4157153871_CustomAttributesCacheGenerator_Camera_RaycastTry_m3913529496P21CustomAttributesCache
nff:_LayoutGroup_get_preferredWidth_m3816902260
ZHa:__ZN18JobBatchDispatcherD2Ev
L9a:__ZN9Transform17MainThreadCleanupEv
rgk:_GC_clear_hdr_marks
xBk:_emscripten_glCreateShader__wrapper
X_c:_cff_fd_select_get
dof:_Text_set_resizeTextForBestFit_m4095249125
Feg:_OidEnumerator_MoveNext_m3138911739
myi:__Z53RuntimeInvoker_Boolean_t97287965_Keyframe_t4206410242PFvvEPK10MethodInfoPvPS4_
Si:_emscripten_glGetShaderiv
mO:__ZN4FMOD6System10getVersionEPj
Xbd:__ZN2UI6Canvas23VirtualRedirectTransferER24GenerateTypeTreeTransfer
mmf:_Selectable_set_animationTriggers_m2970345687
jPc:__ZN9JSONWrite8TransferIN4math12int2_storageEEEvRT_PKc17TransferMetaFlags
aXc:__ZN13TextRendering4Font13AwakeFromLoadE17AwakeFromLoadMode
bBg:_CompareInfo_LastIndexOf_m2688553706
Zhb:__ZN9GfxDevice21ReleaseSharedMeshDataEP14SharedMeshData
gwd:_MouseState__ctor_m1467839005
sej:_Uri_IsDomainAddress_m2867513594
w3a:__ZNSt3__27__sort5IRNS_6__lessINS_4pairIPKN5Unity4TypeE7Hash128EES8_EEPS8_EEjT0_SC_SC_SC_SC_T_
gDd:_Dropdown_CreateItem_m2954407740
wfh:_Array_InternalArray__IndexOf_TisSingle_t1397266774_m2563096608_gshared
yfk:_GC_unreachable_finalize_mark_proc
J2e:_PlayerConnectionInternal_PollInternal_m3759016321
agg:_X509Chain_ProcessCrlExtensions_m236234529
Wgk:_maybe_finalize
JCj:__ZN6il2cpp2vm5Class40GetInterfaceInvokeDataFromVTableSlowPathEPK12Il2CppObjectPK11Il2CppClassj
Plc:__Z43RectTransform_CUSTOM_INTERNAL_get_anchorMaxP12Il2CppObjectP13Vector2fIcall
Zuj:_TextGenerator_INTERNAL_CALL_Populate_Internal_cpp_m4171649399
hKe:_RemotingConfiguration_RegisterChannelTemplate_m3105688054
g$g:_Decimal_Parse_m942471224
YBa:__ZN8Material28UpdateHashesOnPropertyChangeEN9ShaderLab16FastPropertyNameE
zoc:__Z53Register_UnityEngine_SortingLayer_GetLayerValueFromIDv
Eqf:_ASN1_GetBytes_m1968380955
Vob:__Z18Transfer_BlittableI14SafeBinaryReadLb1E8Vector4fEvRK29SerializationCommandArgumentsR31RuntimeSerializationCommandInfo
_qd:__ZN13RuntimeStaticINSt3__26vectorI23UnityVRDeviceDefinition13stl_allocatorIS2_L18MemLabelIdentifier90ELi16EEEELb0EE13StaticDestroyEPv
uQ:__ZN11AudioSource12AddToManagerEv
Xu:__ZN8Animator23VirtualRedirectTransferER19StreamedBinaryWriteILb0EE
bC:__ZN11UnityEngine9Animation32CreateAnimatorGenericBindingsOptERKNS0_20AnimationSetBindingsER9TransformPKN7mecanim9animation14AvatarConstantEPKNS0_21AvatarBindingConstantEbRNS6_6memory9AllocatorER8Animator
B3j:__ZN6il2cpp2vm5Image13ClassFromNameEPK11Il2CppImagePKcS6_
Qrk:dynCall_vdddddd
ihc:__ZN24GenerateTypeTreeTransfer21TransferSTLStyleArrayINSt3__26vectorIN9ShaderLab14SerializedPassENS1_9allocatorIS4_EEEEEEvRT_17TransferMetaFlags
q5:__ZL32MarkLevelGameManagerDependenciesR27GarbageCollectorThreadState
_Mb:__ZNK13GfxDeviceGLES26HasActiveRandomWriteTargetEv
RYd:__ZL54_MemberInfo_t3922476713_CustomAttributesCacheGeneratorP21CustomAttributesCache
swk:_glGetActiveUniformsiv__wrapper
FMa:__ZN14SafeBinaryRead8TransferINSt3__24pairIN9ShaderLab16FastPropertyNameE10ColorRGBAfEEEEvRT_PKc17TransferMetaFlags
J$e:_Mesh_GetIndices_m2873123901
L7:__ZN13MonoBehaviour19SetupScriptingCacheE17ScriptingClassPtrP10MonoScript
lF:__Z20AnimationEventToMonoRK14AnimationEventR18MonoAnimationEvent
Owc:__ZZN8Renderer15InitializeClassEvEN28FunctorImpl_145kLayerChanged4CallEPviR11MessageData
Wvd:_PointerEventData_get_dragging_m746831934
_1h:_ReadOnlyCollection_1_System_Collections_IEnumerable_GetEnumerator_m2781605075_gshared
kpa:__ZN9Scripting11UnityEngine12Experimental9Rendering15ShadowSplitData12CleanupProxyEv
gea:__ZZN15DirectorManager15InitializeClassEvEN52PreLateUpdateDirectorUpdateAnimationBeginRegistrator7ForwardEv
D9g:_Array_get_swapper_TisCustomAttributeNamedArgument_t287865710_m4254011335_gshared
lFd:_Graphic_RegisterDirtyMaterialCallback_m106898453
Egj:_GUILayoutEntry_get_margin_m3174861737
d3j:__ZNK15dense_hashtableINSt3__24pairIK10KeyWrapperINS1_IPKcS4_EEEiEES6_24NamespaceAndNamePairHashN14dense_hash_mapIS6_iS9_NS6_14EqualsComparerI26NamespaceAndNamePairEqualsEENS0_9allocatorIS8_EEE9SelectKeyESD_SF_E13find_positionERS7_
zgc:__ZNSt3__26vectorIN9ShaderLab14SerializedPassENS_9allocatorIS2_EEE8__appendEj
Ofc:__ZNSt3__26vectorIN9ShaderLab20SerializedSubProgram13BufferBindingENS_9allocatorIS3_EEEC2INS_11__wrap_iterIPS3_EEEET_SB_RKS5_PNS_9enable_ifIXaasr21__is_forward_iteratorISB_EE5valuesr16is_constructibleIS3_NS_15iterator_traitsISB_E9referenceEEE5valueEvE4typeE
okh:_Encoding_get_ISOLatin1_m2107621369
Vhe:__ZL89Mathf_t3464937446_CustomAttributesCacheGenerator_Mathf_SmoothDamp_m394423605____maxSpeed4P21CustomAttributesCache
nGb:__ZNK25PathNamePersistentManager30PathIDToFileIdentifierInternalEi
TSa:__ZN9Texture2D23VirtualRedirectTransferER18StreamedBinaryReadILb0EE
g3g:_DateTime_System_IConvertible_ToDouble_m2116720007_AdjustorThunk
Jwg:_BitArrayEnumerator__ctor_m2359341397
kIh:_Enumerator_MoveNext_m1177880931_gshared
xre:__ZL73g_UnityEngine_TextRenderingModule_Assembly_CustomAttributesCacheGeneratorP21CustomAttributesCache
q8:__ZN16ScriptingManager27NativeTypeForScriptingClassE17ScriptingClassPtr
nuh:_UInt64_System_IConvertible_ToDateTime_m3434604642
krh:_Type_get_IsSerializable_m1040556850
E3c:_get_sfnt_table
DUa:__ZN8Renderer20RendererAddedToSceneEv
h6b:__ZL22ScheduleSceneNodesJobsP25ScheduleSceneNodesJobDataj
Kk:_emscripten_set_canvas_size
oEd:_Graphic_SetVerticesDirty_m2124914069
eBg:_CultureInfo__ctor_m3285927757
chf:_MaskableGraphic_get_rootCanvasRect_m3492154629
zUc:__ZN9Scripting11UnityEngine9Physics2D9InitProxyEv
sHi:_Array_Resize_TisRaycastResult_t3360306849_m1811054291_gshared
hvc:__ZN12MeshRenderer27PrepareSingleRendererUpdateER13RendererSceneRS_10MemLabelId
fgc:__ZNSt3__26vectorIN9ShaderLab20SerializedSubProgramENS_9allocatorIS2_EEE8__appendEj
q1:__ZN20DynamicHeapAllocatorI17LowLevelAllocatorE8AllocateEji
Bhd:__ZN11UnityEngine9Analytics15UserCustomEvent12ToJsonStringER9JSONWrite
aij:_Locale_GetText_m2427493201
l_b:__ZN20DynamicPropertySheet15SetVectorQueuedERKN9ShaderLab16FastPropertyNameERK8Vector4fN19ShaderPropertySheet8SetFlagsE
rD:__ZN7mecanim9animation22EvaluateAvatarRetargetEPKNS0_14AvatarConstantEPKNS0_11AvatarInputEPNS0_12AvatarOutputEPNS0_12AvatarMemoryEPNS0_15AvatarWorkspaceEb
QGa:__ZN14RenderSettings23VirtualRedirectTransferER19StreamedBinaryWriteILb0EE
HNc:__ZL26Transfer_SimpleNativeClassI9JSONWrite10RectOffsetLb0EEvRK29SerializationCommandArgumentsR31RuntimeSerializationCommandInfo
Sfk:_GC_push_conditional
shd:__ZN21UnityAnalyticsManager23VirtualRedirectTransferER24GenerateTypeTreeTransfer
u_a:__ZN17GenericDynamicVBO10AllocateVBEjR21DynamicVBOChunkHandle
q5g:_DBNull_ToString_m3638608738
X4j:__ZN30dense_hashtable_const_iteratorI10KeyWrapperIP18Il2CppGenericClassES3_N6il2cpp8metadata22Il2CppGenericClassHashEN14dense_hash_setIS3_S6_NS3_14EqualsComparerINS5_25Il2CppGenericClassCompareEEENSt3__29allocatorIS3_EEE8IdentityESA_SD_EppEv
Gwg:_BitArray_Clone_m3537018332
YLe:_ObjectRecord_UnchainFixup_m3191243952
Y3i:_TlsStream_get_CanWrite_m16389328
kfd:__Z15GetUIModuleSpecv
OWc:__ZN9Scripting11UnityEngine8UIVertex9InitProxyEv
hl:_glMapBufferRange
LSa:__ZN9Texture2D8TransferI18StreamedBinaryReadILb0EEEEvRT_
grc:__Z31Input_CUSTOM_GetMouseButtonDowni
Kzc:__ZN13PlayableGraph4PlayEv
wab:__ZNK9Transform16GetLocalPositionEv
l0f:_MonoType_get_BaseType_m1098640416
D5a:__ZN13LoadOperation19IntegrateTimeSlicedEi
p4i:_TlsStream_Read_m3392972801
iNb:__ZN13GfxDeviceGLES22DispatchComputeProgramE12ObjectHandleI18ComputeProgram_TagPvE15ComputeBufferIDj
O5e:_Transform_get_localToWorldMatrix_m4155710351
Xkh:_Latin1Encoding_GetString_m254210343
F7a:__Z17TransformAABBSlowRK4AABBRK10Matrix4x4fRS_
Tpg:_Array_combsort_m4052486289
jP:__ZN24AudioScriptBufferManager27InitialCompleteDomainReloadEv
Fec:__ZN9ShaderLab21SerializedShaderState8TransferI14SafeBinaryReadEEvRT_
Fyg:_Environment_GetWindowsFolderPath_m1738399646
X$c:_cf2_stack_pushInt
jD:__ZN8Animator19FireAnimationEventsERNS_11AnimatorJobE
vKd:_Module_GetCustomAttributes_m76573271
CPe:_CryptoConfig_EncodeOID_m2635914623
gNa:__ZN15SerializeTraitsINSt3__24pairIN4core12basic_stringIcNS2_20StringStorageDefaultIcEEEES6_EEE8TransferI24GenerateTypeTreeTransferEEvRS7_RT_
$zk:b89
_zk:b88
Byk:b81
Ayk:b80
uSb:__ZN7ApiGLES19CreateSparseTextureEjj14GraphicsFormatiiiiRiS1_S1_
e9:__ZN18ResourceImageGroup7CleanupEv
Oyk:b85
Nyk:b84
Zzk:b87
uWg:_String_CharCopy_m3838781968
VHe:_RemotingSurrogateSelector_GetSurrogate_m3900875713
ztf:_CertificateValidationCallback_Invoke_m1014111289
GIa:__ZN8Playable19SetOutputConnectionEPS_i
HCa:__Z20RenderMultipleMeshesRK15RenderNodeQueueRK18RenderMultipleData16VertexInputMasks
Xl:_glDeleteShader
Xha:__ZN6prcoreL17RemapGenericFloatI15TexFormatRGHalf16TexFormatRGFloatEEvPKNS_9InnerInfoE
mIi:_Array_Sort_TisUICharInfo_t75501106_m128665067_gshared
i2c:_otv_GSUB_validate
gOg:_RSAPKCS1SignatureDeformatter_SetHashAlgorithm_m1602190713
J8g:_Enum_System_IConvertible_ToByte_m1219166845
Bwh:_Dictionary_2_CopyToCheck_m45332585_gshared
Sjc:__Z27scripting_add_internal_callPKcPKv
$Tj:__ZN13Il2CppHashMapINSt3__24pairIPK9EventInfoP11Il2CppClassEEj17ReflectionMapHashIS7_ENS0_8equal_toIS7_EENS0_9allocatorINS1_IK10KeyWrapperIS7_EjEEEEEC2EjRKS9_RKSB_
uZe:_Input_get_inputString_m1307069105
$Hc:__ZN9Scripting11UnityEngine3GUI9InitProxyEv
BQf:_Enumerator_MoveNext_m1556953412_AdjustorThunk
rv:__ZN26AnimatorControllerPlayable18SetLayerAutoWeightEv
udd:__Z44Register_UnityEngine_Canvas_get_pixelPerfectv
rdj:_Literal_GetAnchorInfo_m810577400
zgd:__ZN2UI14CanvasRenderer12SyncMaterialENS0_8SyncFlagE
qYf:_StreamWriter_Write_m1660535366
Sjk:__ZN6il2cpp2vm9Parameter30GetDefaultParameterValueObjectEPK10MethodInfoPK13ParameterInfoPb
Qmh:_UTF8Encoding_GetByteCount_m4152118078
vRh:_KeyPairPersistence__CanSecure_m3516574278
rc:invoke_iiiiiiiii
cli:__Z95RuntimeInvoker_Void_t1185182177_RuntimeObject_RuntimeObject_Int32_t2950945753_SByte_t1669577662PFvvEPK10MethodInfoPvPS4_
aSe:_MD5CryptoServiceProvider_Dispose_m3502499818
H0i:_Collection_1_System_Collections_IList_get_Item_m2422562729_gshared
EHa:__ZN12LightManager28IsLightTransformDataUpToDateEPK5Light
q4c:_UNITY_tt_face_done_kern
qBf:_ArrayReadOnlyList_1_RemoveAt_m2104218585_gshared
GXa:__ZN12BoneWeights48TransferI24GenerateTypeTreeTransferEEvRT_
$ka:__ZL49__ManagedRegistrationHelperFunction_PreLateUpdatePv
dHb:__Z19scripting_gc_enablev
CKf:_InternalEnumerator_1_get_Current_m2907722321_gshared
BVb:__ZZ23InitPlayerLoopCallbacksvEN41InitializationPlayerUpdateTimeRegistrator7ForwardEv
tCc:__ZN11UTF16StringC2ERKS_10MemLabelId
NLf:_InternalEnumerator_1_get_Current_m3792939945_AdjustorThunk
Jed:__Z55Register_UnityEngine_CanvasRenderer_DisableRectClippingv
tt:__ZN9Scripting11UnityEngine10Animations16ConstraintSource12CleanupProxyEv
wqh:_TimeSpan_Subtract_m1264203589_AdjustorThunk
hFf:_InternalEnumerator_1_System_Collections_IEnumerator_get_Current_m888718134_gshared
Zgi:__Z175RuntimeInvoker_Void_t1185182177_SByte_t1669577662_SByte_t1669577662_SByte_t1669577662_SByte_t1669577662_SByte_t1669577662_SByte_t1669577662_SByte_t1669577662_SByte_t1669577662PFvvEPK10MethodInfoPvPS4_
feh:_Array_compare_TisRaycastResult_t3360306849_m822404090_gshared
w1e:_Object_Destroy_m3118546832
DXh:_ReadOnlyCollection_1_System_Collections_Generic_IListU3CTU3E_set_Item_m519295790_gshared
E3g:_DateTime_FromTicks_m4059645178_AdjustorThunk
rKi:_Array_InternalArray__get_Item_TisClientCertificateType_t1004704908_m2297379651_gshared
YRd:_ConfigHandler_ParseTime_m1787834288
Uic:__ZN9ShaderLab7Program27CreateFromSerializedProgramERKNS_17SerializedProgramE10ShaderTypeiP16PropertyNamesSetPK6Shader
Abh:_Array_InternalArray__ICollection_Remove_TisX509ChainStatus_t133602714_m3635989134_gshared
Q3f:_Assembly_Load_m3487507613
AK:__ZNSt3__27__sort4IRNS_6__lessIN4core12basic_stringIcNS2_20StringStorageDefaultIcEEEES6_EEPS6_EEjT0_SA_SA_SA_T_
rsk:dynCall_viiiifii
DSj:__ZN6il2cpp2gc19AppendOnlyGCHashMapINSt3__24pairIPK11Il2CppImageP11Il2CppClassEEP22Il2CppReflectionModule17ReflectionMapHashIS9_ENS2_8equal_toIS9_EEEC2Ev
w6:__Z20GetPersistentManagerv
A7c:_UNITY_TT_Set_Var_Design
O2:__ZN21SystemInfoStringCache16StaticInitializeEPv
Vag:_NameObjectCollectionBase_FindFirstMatchedItem_m840305173
cYh:_ReadOnlyCollection_1_System_Collections_Generic_ICollectionU3CTU3E_Remove_m1100818788_gshared
Ifc:__ZNSt3__26vectorIN9ShaderLab20SerializedSubProgram15StructParameterENS_9allocatorIS3_EEE6assignIPS3_EENS_9enable_ifIXaasr21__is_forward_iteratorIT_EE5valuesr16is_constructibleIS3_NS_15iterator_traitsISA_E9referenceEEE5valueEvE4typeESA_SA_
IWh:_Collection_1_IsSynchronized_m2291009199_gshared
Tid:__ZN9Scripting11UnityEngine9Analytics21AnalyticsSessionState12CleanupProxyEv
EEb:__ZNK13MonoBehaviour7GetNameEv
M8a:__ZN19ScriptingInvocation28AdjustArgumentsToMatchMethodEv
ybi:_IndexedSet_1_Contains_m1525966688_gshared
vM:__Z15_CheckFMODError11FMOD_RESULTPKciS1_
b0j:__ZN6il2cpp6icalls8mscorlib6SystemL16ThrowInvalidCastEPK11Il2CppClassS5_
mRe:_HMAC_KeySetup_m661741544
r4j:__ZN6il2cpp2vm5Field11SetValueRawEPK10Il2CppTypePvS5_b
rkh:_Latin1Encoding__ctor_m498920120
IVj:__ZN6il2cpp2vm4Type19GetGenericParameterEPK10Il2CppType
NMg:_StreamReader_Peek_m2272511193
xCg:_DateTimeFormatInfo_FillAllDateTimePatterns_m2683124783
Sdd:__Z51Register_UnityEngine_CanvasGroup_get_blocksRaycastsv
B1f:_NumberFormatter_get_IsFloatingSource_m3714711779
Urh:_Type_GetConstructor_m1195697116
rd:_glBeginQuery
lla:__ZL48__ManagedRegistrationHelperFunction_VisibleLightPv
nvj:_Canvas_get_scaleFactor_m3314757802
qXb:__ZN6Camera12RenderStereoENS_10RenderFlagE8CullFlagPNS_24PerformEyeRenderFunctionE
vcb:__ZN20LocalFileSystemPosix10ToAbsoluteEPKc
iGa:__ZN20TierGraphicsSettings8TransferI19StreamedBinaryWriteILb0EEEEvRT_
SBk:b111
L7a:__Z23CollectSceneGameObjectsR13dynamic_arrayIiLj0EE
Pck:__ZN6il2cpp2vm13ComObjectBase16DisconnectObjectEj
Cm:f0
Unk:_getcwd
Tua:__ZN25ThreadsafeLinearAllocatorD2Ev
L6a:__Z21SendMessageToEveryoneRK17MessageIdentifier11MessageData
Kca:__ZN21BillboardBatchManager16StaticInitializeEPv
L_g:_DateTime_AbsoluteDays_m4235097773
j4:__ZN12_GLOBAL__N_138ArchiveRedirectFileSystemStaticDestroyEPv
ici:__Z74RuntimeInvoker_RuntimeObject_RuntimeObject_RuntimeObject_SByte_t1669577662PFvvEPK10MethodInfoPvPS4_
gCd:_DefaultControls_CreateScrollView_m3842770629
tUc:__ZL55__ManagedRegistrationHelperFunction_PhysicsJobOptions2DPv
FQa:__ZN12CubemapArray34UpdateFileTextureUploadInstructionEP26FileAssetUploadInstructionj
tSb:__Z23CreateSparseTextureGLES9TextureIDii14GraphicsFormati
Q2c:_otv_Anchor_validate
SR:__ZN13dynamic_arrayI12SoundChannelLj0EE9push_backERKS0_
mwg:_SynchronizedArrayListWrapper_CopyTo_m4207791406
Zzg:_CCMath_mod_m3631663509
uqh:_TimeSpan_Negate_m1889505500_AdjustorThunk
K$h:_ReadOnlyCollection_1_System_Collections_ICollection_CopyTo_m2715087453_gshared
Vfb:__ZN16MemoryFileSystemD0Ev
hmd:__ZN11UnityEngine7Connect20RemoteConfigSettings7SetJSONER8JSONReadb
OWj:_il2cpp_class_get_assemblyname
lBj:__ZN6il2cpp2vm5Class15GetEnumBaseTypeEP11Il2CppClass
Mwf:_Context_set_WriteSequenceNumber_m942577065
Wd:_glVertexAttrib4fv
Zgg:_X509CertificateEnumerator_Reset_m4026698923
jdk:__ZNK6il2cpp5utils13VmStringUtils23CaseInsensitiveComparerclERKNSt3__212basic_stringIcNS3_11char_traitsIcEENS3_9allocatorIcEEEEPKc
ozd:_CanvasScaler_SetScaleFactor_m3006968999
zDi:__Z78RuntimeInvoker_Boolean_t97287965_Navigation_t3049316579_Navigation_t3049316579PFvvEPK10MethodInfoPvPS4_
eRa:__ZNK9Texture2D16GetNpotTexelSizeEv
p1f:_NumberFormatter_Init_m3576155222
tdb:__ZL33FileEntryInfoListToFolderContentsRKN4core12basic_stringIcNS_20StringStorageDefaultIcEEEERK19dynamic_block_arrayI13FileEntryInfoLj32EERNSt3__23setIS3_NSB_4lessIS3_EENSB_9allocatorIS3_EEEE
ngf:_LayoutUtility_GetLayoutProperty_m714717302
guj:_Terminal_NotifyCommandHandlers_m909296863
Mhb:__ZN9GfxDevice22GetDefaultVertexBufferE26GfxDefaultVertexBufferTypej
gah:_Array_InternalArray__ICollection_Contains_TisInt64_t3736567304_m2911357929_gshared
kIb:__Z17BeginSplashScreenb
T0i:_Collection_1_Remove_m3022471627_gshared
kok:___fseeko_unlocked
Opa:__ZN9Scripting11UnityEngine12Experimental9Playables21TexturePlayableOutput12CleanupProxyEv
Q2f:_Object_ToString_m1740002499
cok:_sscanf
Xud:_ExecuteEvents_GetEventChain_m2404658789
wHi:_Array_Resize_TisUILineInfo_t4195266810_m3763058392_gshared
YOe:_SByte_ToString_m3584531119_AdjustorThunk
Xhc:__ZN9ShaderLab16SerializedShader8TransferI19StreamedBinaryWriteILb0EEEEvRT_
Ikj:_TrackableProperty_GetHashCode_m3407865350
ku:__ZN7mecanim9animation18CreateAvatarMemoryEPKNS0_14AvatarConstantERNS_6memory9AllocatorE
rpf:_ModulusRing__ctor_m2420310199
Q_g:_Convert_ToDateTime_m626620011
WQf:_Enumerator_System_Collections_IDictionaryEnumerator_get_Key_m2500634048_AdjustorThunk
BE:__ZN7mecanim8skeleton16SkeletonPoseCopyIN4math4trsXENS2_7affineXEEEvPKNS0_13SkeletonPoseTIT_EEPNS5_IT0_EE
XPb:__ZN18GfxFramebufferGLES18GetFramebufferNameERK20GfxRenderTargetSetup
Fna:__ZN9Scripting11UnityEngine9Transform9InitProxyEv
aVj:__ZN6il2cpp2vm14TypeNameParser12ParseVersionERKNSt3__212basic_stringIcNS2_11char_traitsIcEENS2_9allocatorIcEEEERtSB_SB_SB_
Bdf:_InputField_MoveDown_m1455948167
uIc:__Z30Event_Get_Custom_PropCharacterP12Il2CppObject
sea:__ZN13PlayableGraph27SchedulePlayableDestructionERK9HPlayable
$1c:_cff_get_mm_var
uvk:_glGetFramebufferAttachmentParameteriv__wrapper
RQd:_ChannelServices_GetCurrentChannelInfo_m3041604116
Zpb:__Z22scripting_array_length17ScriptingArrayPtr
GYf:_SynchronizedReader_Peek_m148942882
Tfi:__Z95RuntimeInvoker_Void_t1185182177_RuntimeObject_Int32_t2950945753_Int32_t2950945753_RuntimeObjectPFvvEPK10MethodInfoPvPS4_
PPa:__ZN14SafeBinaryRead20TransferTypelessDataEjPvi
M8j:__ZN15dense_hashtableINSt3__24pairIK10KeyWrapperIPcES3_EES4_N6il2cpp5utils15PassThroughHashIS3_EEN14dense_hash_mapIS4_S3_SA_NS4_14EqualsComparerINS0_8equal_toIS3_EEEENS0_9allocatorIS6_EEE9SelectKeyESF_SH_E3endEv
aCa:__Z19GetActiveColorSpacev
T3c:_UNITY_tt_face_load_kern
RKd:_MonoMethodInfo_GetDeclaringType_m2924452727
A3:__Z6StrCmpPKcS0_
n2f:_NumberFormatter_AppendIntegerString_m2257376141
Kjc:__Z21CheckGpuProgramUsable20ShaderGpuProgramType
tuc:__ZN13ProduceHelperI14Texture2DArrayLb0EE7ProduceE10MemLabelId18ObjectCreationMode
Aak:__ZN6il2cpp2os9Directory20GetFileSystemEntriesERKNSt3__212basic_stringIcNS2_11char_traitsIcEENS2_9allocatorIcEEEESA_iiPi
Fog:_Array_System_Collections_IList_Add_m1063688101
hYc:__ZN20TextRenderingPrivate19NativeTextGenerator5SetupEv
e3b:__ZNK15SharedLightData24GetFinalShadowResolutionEv
L2a:__ZN12AspectRatios8TransferI18StreamedBinaryReadILb0EEEEvRT_
clc:__ZN10GameObject14CopyPropertiesERS_
YJc:__Z44Register_UnityEngine_GUIStyle_get_fixedWidthv
dbh:_Array_InternalArray__ICollection_Remove_TisLink_t544317964_m1280781374_gshared
Xqg:_BitConverter_DoubleWordsAreSwapped_m1474345095
Avg:_FixedSizeArrayListWrapper_set_Capacity_m4221053039
Fok:_rand
Yvk:_emscripten_glFramebufferRenderbuffer__wrapper
gBc:__ZN13MeshScripting10CreateMeshE21ScriptingObjectOfTypeI4MeshE
Bnf:_Slider_FindSelectableOnLeft_m1667068522
Wx:__ZN17AnimationPlayable22PrepareAnimationEventsEfR13dynamic_arrayI22AnimationClipEventInfoLj0EE
Yqb:__ZN14SafeBinaryRead21TransferSTLStyleArrayINSt3__26vectorI17AnimationCurveTplIfE13stl_allocatorIS4_L18MemLabelIdentifier1ELi16EEEEEEvRT_17TransferMetaFlags
dwg:_SynchronizedArrayListWrapper_Contains_m3809499313
byf:_HandshakeMessage_Compare_m2214647946
qbh:_Array_InternalArray__ICollection_Remove_TisLabelData_t360167391_m3556246844_gshared
ARe:_HMACSHA256__ctor_m346174875
VUe:_Color_op_Multiply_m2887457390
C5b:__Z22PrepareOptimizedPlanesPK5PlaneiPKN4math7_float4E
$$:__ZN11UnityEngine15CloudWebService17WebFileDownloaderINS0_20WebRequestRestClientENS0_23WebRequestRestHeaderMapEE10InitializeERKN4core12basic_stringIcNS5_20StringStorageDefaultIcEEEE
Ica:__ZN17UniqueIDGenerator15CreatePureIndexEv
Isc:__Z48InitializeRectTransformAnimationBindingInterfacev
i5a:__ZNSt3__26vectorIN15ResourceManager10DependencyE13stl_allocatorIS2_L18MemLabelIdentifier52ELi16EEE6assignINS_11__wrap_iterIPS2_EEEENS_9enable_ifIXaasr21__is_forward_iteratorIT_EE5valuesr16is_constructibleIS2_NS_15iterator_traitsISC_E9referenceEEE5valueEvE4typeESC_SC_
AAj:__ZN15dense_hashtableINSt3__24pairIK10KeyWrapperIPK22Il2CppGenericParameterEP11Il2CppClassEES6_N6il2cpp5utils11PointerHashIS4_EEN14dense_hash_mapIS6_S9_SE_NS6_14EqualsComparerINS0_8equal_toIS5_EEEENS0_9allocatorISA_EEE9SelectKeyESJ_SL_E14squash_deletedEv
uLa:__ZN9ShaderLabL27GetDesiredRenderTextureDescEPK6Camera
aFi:_Array_InternalArray__Insert_TisMark_t3471605523_m2854535880_gshared
LAc:__ZN4Mesh24UpdateSubMeshVertexRangeEi
WIc:__Z14GUIClipTextureP9Texture2DPhiiii
Bse:__ZL52HumanBone_t2465339518_CustomAttributesCacheGeneratorP21CustomAttributesCache
CHe:_MethodReturnDictionary__cctor_m278392388
aZb:__ZNK9Transform18TransformDirectionERK8Vector3f
a3i:_SslStreamBase_get_CanWrite_m1622082918
TDe:__ZL80CanvasScaler_t2767979955_CustomAttributesCacheGenerator_m_ReferencePixelsPerUnitP21CustomAttributesCache
toh:_Thread_GetSerializedCurrentUICulture_m3681656498
OHh:_Enumerator_MoveNext_m2114485647_gshared
l8f:_GenericTypeParameterBuilder_GetCustomAttributes_m580748276
pHj:__ZN15dense_hashtableINSt3__24pairIK10KeyWrapperIPK11Il2CppClassEPKcEES6_N6il2cpp5utils11PointerHashIS3_EEN14dense_hash_mapIS6_S9_SE_NS6_14EqualsComparerINS0_8equal_toIS5_EEEENS0_9allocatorISA_EEE9SelectKeyESJ_SL_E12resize_deltaEjj
oqk:__ZNK10__cxxabiv120__si_class_type_info27has_unambiguous_public_baseEPNS_19__dynamic_cast_infoEPvi
wpf:_Kernel_LeftShift_m4140742987
D3f:_Assembly_GetManifestResourceInternal_m1224391897
PCa:__Z30AddDefaultStreamsToMeshBuffersR9GfxDeviceR11MeshBuffersj17ShaderChannelMaskS3_
M3:__ZL16GetInterfaceImpl18UnityInterfaceGUID
Yck:__ZN6il2cpp6icalls8mscorlib6System15MonoCustomAttrs27GetCustomAttributesInternalEP12Il2CppObjectP20Il2CppReflectionTypeb
Sb:invoke_viifi
X7c:_UNITY_TT_Set_MM_Blend
pra:__ZN9Scripting11UnityEngine11Application9InitProxyEv
CIb:__ZN14PreloadManager35WaitForAllAsyncOperationsToCompleteEv
PCj:__ZN13Il2CppHashMapIP9FieldInfoiN6il2cpp5utils11PointerHashIS0_EENSt3__28equal_toIS1_EENS6_9allocatorINS6_4pairIK10KeyWrapperIS1_EiEEEEEC2EjRKS5_RKS8_
rM:__ZL31InitializeAudioScriptingClassesv
vYb:__Z14SortGUIByDepthP10GUIElementS0_
H0e:_PlayerConnection_OnEnable_m4286555589
tF:__ZN12_GLOBAL__N_120ProcessRootMotionMixER33AnimationPlayableEvaluationOutputR35AnimationPlayableEvaluationConstantR32AnimationPlayableEvaluationInputS1_f
bfj:_UriParser__cctor_m3655686731
dgf:_LayoutRebuilder_U3Cs_RebuildersU3Em__0_m589488547
Xcb:__ZNK20LocalFileSystemPosix21GetAvailableDiskSpaceEPKcRy
wK:__ZNSt3__26__treeIiNS_4lessIiEENS_9allocatorIiEEE7destroyEPNS_11__tree_nodeIiPvEE
xhb:__ZNK9GfxDevice14GetWorldMatrixEv
L8e:_Transform_set_parent_m786917804
Lnj:_AudioSampleProvider_InternalSetScriptingPtr_m3742743270
fnf:_Slider_get_value_m739683640
tbb:__Z19scripting_array_new17ScriptingClassPtrjj
B0g:_Convert_ToInt32_m2128774575
LR:__ZN11SoundHandle13CreateChannelEb
ngc:__ZNSt3__26vectorIN9ShaderLab20SerializedSubProgram16TextureParameterENS_9allocatorIS3_EEE6assignIPS3_EENS_9enable_ifIXaasr21__is_forward_iteratorIT_EE5valuesr16is_constructibleIS3_NS_15iterator_traitsISA_E9referenceEEE5valueEvE4typeESA_SA_
SFj:__ZN13Il2CppHashMapIN6il2cpp5utils13dynamic_arrayIPK10Il2CppTypeLj4EEEPFvvENS0_8metadata19Il2CppSignatureHashENS9_22Il2CppSignatureCompareENSt3__29allocatorINSC_4pairIK10KeyWrapperIS6_ES8_EEEEEC2EjRKSA_RKSB_
jTj:__ZN15dense_hashtableINSt3__24pairIK10KeyWrapperIPK22Il2CppGenericParameterEPK24MonoGenericParameterInfoEES6_N6il2cpp5utils11PointerHashIS4_EEN14dense_hash_mapIS6_SA_SF_NS6_14EqualsComparerINS0_8equal_toIS5_EEEENS0_9allocatorISB_EEE9SelectKeyESK_SM_E15set_deleted_keyERKSB_
WOe:_SByte_TryParse_m2431806379
oIa:__ZN6prcoreL11inner_clearILj2EEEvPhjjj
$ra:__ZN9Scripting5Unity11Collections8LowLevel6Unsafe24NativeContainerAttribute9InitProxyEv
yQe:_DSACryptoServiceProvider_get_KeySize_m786836990
Hg:_emscripten_exit_fullscreen
CGi:_Array_qsort_TisBoolean_t97287965_TisBoolean_t97287965_m214793583_gshared
WGh:_Enumerator_System_Collections_IEnumerator_Reset_m1564381721_gshared
Osc:__ZZL31RegisterRectTransformPropertiesR22GenericPropertyBindingEN39Wrapper_RectTransformAnchoredPositiony113GetFloatValueEPv
K2f:_Object_MemberwiseClone_m1474068832
s9j:__ZN6il2cpp6icalls8mscorlib6System6String19InternalAllocateStrEi
hSc:__Z29Transfer_Blittable_ArrayFieldI8JSONRead11QuaternionfEvRT_R9ArrayInfoRK23StaticTransferFieldInfo
Joc:__Z45Register_UnityEngine_Camera_get_targetDisplayv
mxc:__ZNK24RendererAnimationBinding15GenerateBindingERKN4core12basic_stringIcNS0_20StringStorageDefaultIcEEEEbRN11UnityEngine9Animation14GenericBindingE
Mcg:_IPv6Address__ctor_m3704187391
CHa:__Z15GetFlareManagerv
ou:__ZN8Animator13GetAvatarRootEv
Igh:_Array_InternalArray__ICollection_Add_TisResourceCacheItem_t51292791_m3851804827_gshared
Fmk:___toread
rGb:__ZNSt3__26vectorI10vector_mapIiiNS_4lessIiEE13stl_allocatorINS_4pairIiiEEL18MemLabelIdentifier38ELi16EEES4_IS9_LS7_38ELi16EEE26__swap_out_circular_bufferERNS_14__split_bufferIS9_RSA_EE
Uof:_BigInteger_get_Rng_m3283260184
Rqk:___cxa_is_pointer_type
nJ:__ZN8Animator22ScriptingStringToCRC32ERK11ICallString
vF:__ZN7mecanim9animation16EvaluateAvatarDXEPKNS0_14AvatarConstantEPKNS0_11AvatarInputEPNS0_12AvatarMemoryEPNS0_15AvatarWorkspaceEPNS0_12AvatarOutputE
Rwd:_RaycastResult_ToString_m2678663776_AdjustorThunk
AKi:_Array_InternalArray__get_Item_TisKeyValuePair_2_t2530217319_m2886833132_gshared
Mka:__ZL50__ManagedRegistrationHelperFunction_UnityEventBasePv
mqc:__Z34Transform_CUSTOM_SetAsFirstSiblingP12Il2CppObject
qdf:_InputField_Delete_m3471899192
VJe:_RemotingConfiguration_get_ProcessId_m2180277012
xY:__ZN11UnityEngine15CloudWebService17SessionEventQueue14ParseEventDataERKN4core12basic_stringIcNS2_20StringStorageDefaultIcEEEE
qdg:_WebHeaderCollection_Add_m183143026
QOb:__ZN13TranslateGLES4InitERK12GraphicsCaps16GfxDeviceLevelGL
zHg:_Int64_System_IConvertible_ToUInt16_m848637338_AdjustorThunk
uid:__Z32CustomEventData_CUSTOM_AddUInt32P12Il2CppObjectP12Il2CppStringj
_eh:_Array_InternalArray__IndexOf_TisLink_t544317964_m455584088_gshared
AXi:_Enumerator_get_Current_m2282646120_AdjustorThunk
y$h:_ReadOnlyCollection_1_IndexOf_m2539022912_gshared
$Ce:__ZL66Selectable_t3250028441_CustomAttributesCacheGenerator_m_TransitionP21CustomAttributesCache
wkk:__ZN6il2cpp2os6Memory12AlignedAllocEjj
lPc:__ZN9JSONWrite8TransferI13dynamic_arrayIN4math12int3_storageELj0EEEEvRT_PKc17TransferMetaFlags
lof:_Text_set_alignByGeometry_m3828822280
Xdk:__ZN6il2cpp8metadataL7CompareEPK10Il2CppTypeS3_
S9f:_HybridDictionary__ctor_m1681134385
kya:__ZN21ScalableBufferManager11GetInstanceEv
ABb:__Z18Transfer_BlittableI18StreamedBinaryReadILb0EELb1E10ColorRGBAfEvRK29SerializationCommandArgumentsR31RuntimeSerializationCommandInfo
Eqh:_TimeSpan_op_LessThan_m1594498345
Umc:__ZL27GetComponentsImplementationILb0ELi0EEbR10GameObjectbRK17CompareParametersRK39GetComponentsImplementation_ReturnValue
qFb:__ZN9Scripting36IsSystemCollectionsGenericDictionaryE17ScriptingClassPtr
Cai:_UnityEvent_1_FindMethod_Impl_m322741469_gshared
$8e:_Enumerator_get_Current_m2591725252
J9:__ZL16ReadTypeTreeImplILb0EEbR8TypeTreeRK16TypeTreeIteratorRPKhS6_i
ekg:_Interval_Contains_m110351300_AdjustorThunk
u0g:_Convert_ToInt32_m3048308591
Eu:__ZN25RuntimeAnimatorControllerD2Ev
uif:_RectMask2D_OnCanvasHierarchyChanged_m3195492255
O4g:_DateTimeOffset_Equals_m3030958070
fHa:__ZNK22BuiltinResourceManager21GetResourceInstanceIDEPKN5Unity4TypeERKN4core12basic_stringIcNS4_20StringStorageDefaultIcEEEE
noc:__Z42Register_UnityEngine_RectOffset_set_bottomv
_jj:_AnalyticsTracker_BuildParameters_m43920649
bCg:_DateTimeFormatInfo_GetMonthName_m2034512315
A_b:__ZN28LightProbeProxyVolumeContext8CopyFromERKS_
j0h:_ReadOnlyCollection_1_System_Collections_Generic_IListU3CTU3E_Insert_m2489506856_gshared
qxa:__ZN23TransformChangeDispatch32QueueTransformChangeIfHasChangedER18TransformHierarchy
VMh:_SimpleCollator_ToDashTypeValue_m6184468
vRb:__ZN7ApiGLES18DeleteRenderbufferERj
HQb:__ZL23ProgramUniformMatrix4fvPK7ApiGLESjiihPKv
IKb:__ZN7ApiGLES13CreateTextureEjj14GraphicsFormatiiiii
Ypg:_Array_new_gap_m262136975
Vfc:__ZN9ShaderLab20SerializedSubProgram15MatrixParameter8TransferI14SafeBinaryReadEEvRT_
Wmc:__ZL27GetComponentsImplementationILb0ELi1EEbR10GameObjectbRK17CompareParametersRK39GetComponentsImplementation_ReturnValue
fgg:_X509Store__ctor_m275383717
u8e:_Transform_INTERNAL_get_position_m1310184257
I6c:_Round_Down_To_Grid
LIj:__ZN6il2cpp2vm13MetadataCache40AddThreadLocalStaticOffsetForFieldLockedEP9FieldInfoiRKNS_2os12FastAutoLockE
Kza:__ZN13RenderTexture7ReleaseEv
GPc:__Z18Transfer_BlittableI8JSONReadLb1EN4math12int3_storageEEvRK29SerializationCommandArgumentsR31RuntimeSerializationCommandInfo
H_a:__ZN10MeshFilter23VirtualRedirectTransferER14SafeBinaryRead
W0a:__ZN12MeshRenderer17MainThreadCleanupEv
pBj:__ZN6il2cpp2vmL10InitLockedEP11Il2CppClassRKNS_2os12FastAutoLockE
gmb:__ZN22CreateGpuProgramOutput12CreateParamsEv
zN:__ZN10ObjectPoolIN4FMOD7ChannelENS0_8ChannelIEE7GetFreeEi
Bs:__ZL62__ManagedRegistrationHelperFunction_AnimatorOverrideControllerPv
v0h:_ReadOnlyCollection_1_System_Collections_IList_Insert_m177536056_gshared
LFf:_InternalEnumerator_1_System_Collections_IEnumerator_get_Current_m548105685_gshared
HOb:__ZNK14GfxContextGLES13GetDefaultFBOEv
Zrg:_Byte_System_IConvertible_ToType_m2251112646
NEc:__Z55Register_UnityEngine_MonoBehaviour_StopCoroutineManagedv
evi:__Z81RuntimeInvoker_Char_t3634460470_RuntimeObject_Int32_t2950945753_Int16_t2552820387PFvvEPK10MethodInfoPvPS4_
I3g:_DateTime_get_Hour_m4153505178_AdjustorThunk
Wmj:_AudioExtensionManager_WriteExtensionProperties_m3028464154
LRg:_Evidence_Equals_m1478353107
nAc:__Z13GetImagePixelI10ColorRGBAfET_PKhii13TextureFormat15TextureWrapModeS5_ii
_Qi:_List_1_System_Collections_IList_set_Item_m1842844683_gshared
myj:_ObjectPool_1__ctor_m2535233435_gshared
uYj:__ZN6il2cpp2vm6Thread49CheckCurrentThreadForInterruptAndThrowIfNecessaryEv
$Zg:_Convert_ToChar_m3757390865
uCa:__ZNSt3__23mapIN9ShaderLab16FastPropertyNameEN18UnityPropertySheet11UnityTexEnvENS_4lessIS2_EENS_9allocatorINS_4pairIKS2_S4_EEEEEixERS9_
JKb:__ZNK13TranslateGLES25GetTextureTargetDimensionEj
wZh:_ReadOnlyCollection_1_System_Collections_IList_Remove_m1842121503_gshared
Nyg:_File_OpenRead_m2936789020
x5:__ZN9Scripting12LogExceptionE21ScriptingExceptionPtriPKcb
Wri:__Z94RuntimeInvoker_Void_t1185182177_RuntimeObject_PlayableGraph_t3515989261_RuntimeObject_IntPtr_tPFvvEPK10MethodInfoPvPS4_
Ii:_emscripten_glVertexAttrib4f
Wrb:__ZN14SafeBinaryRead21TransferSTLStyleArrayI13dynamic_arrayIN4math12int3_storageELj0EEEEvRT_17TransferMetaFlags
hjc:__ZNSt3__26vectorIN20GpuProgramParameters14ConstantBufferENS_9allocatorIS2_EEE8__appendEj
Pgg:_X509CertificateCollection_AddRange_m3683116910
rRd:_SinkProviderData__ctor_m1624738837
Aui:__Z88RuntimeInvoker_RuntimeObject_RuntimeObject_SByte_t1669577662_RuntimeObject_RuntimeObjectPFvvEPK10MethodInfoPvPS4_
$4f:_CustomAttributeTypedArgument_Equals_m2261980307
Wz:__ZN7mecanim12statemachine24CreateStateMachineMemoryEPKNS0_20StateMachineConstantERNS_6memory9AllocatorE
sjb:__ZN9GfxDevice18SetGlobalDepthBiasEff
pLj:__ZN6il2cpp6icalls8mscorlib6System8MonoType12get_AssemblyEP20Il2CppReflectionType
Wi:_emscripten_glGetPointerv
qJi:_Dictionary_2_Do_CopyTo_TisKeyValuePair_2_t3842366416_TisRuntimeObject_m1564656153_gshared
cF:__ZN8Animator22ApplyBuiltinRootMotionEv
Rqc:__Z14BezierExtractUfff
_Hb:__Z26ApplyMaterialPassWithCacheRK18SharedMaterialDataR17ShaderPassContextP6ShaderPN9ShaderLab4PassEibPKNS6_10GrabPassesEPNS6_11SubProgramsEPK22DeviceRenderStateBlock
Ige:__ZL81Camera_t4157153871_CustomAttributesCacheGenerator_Camera_RaycastTry2D_m2460696262P21CustomAttributesCache
H0f:_MulticastDelegate_KPM_m22863605
rJf:_InternalEnumerator_1_get_Current_m1897120917_AdjustorThunk
e0f:_MonoType_ReorderParamArrayArguments_m2458683451
vLe:_FormatterConverter_ToInt16_m4282804414
hki:__Z81RuntimeInvoker_Void_t1185182177_Int64_t3736567304_RuntimeObject_Int64_t3736567304PFvvEPK10MethodInfoPvPS4_
vxd:_StandaloneInputModule_ProcessTouchPress_m4019232747
Qyg:_FileStream__ctor_m3151488352
Xpg:_Array_swap_m547389985
vUa:__ZN8Renderer23VirtualRedirectTransferER14SafeBinaryRead
euh:_UInt32_ToString_m2420423038
$Ni:_List_1_System_Collections_IList_Add_m634558835_gshared
dKg:_FileStream_get_Length_m426703983
Wyc:__Z13RegisterClassI10TagManagerEvPKc
zBj:__ZN6il2cpp2vmL15GetBitmapNoInitEP11Il2CppClassPjRjj
YL:__ZN12AudioManager5ResetEv
dge:__ZL68DisallowMultipleComponent_t1422053217_CustomAttributesCacheGeneratorP21CustomAttributesCache
hia:__ZN6prcoreL17RemapGenericFloatI17TexFormatRGBAHalf15TexFormatRGHalfEEvPKNS_9InnerInfoE
Lak:__ZN6il2cpp6icalls8mscorlib6System11Environment20GetWindowsFolderPathEi
Ky:__ZN7mecanim5human18HumanPoseBlendNodeERNS0_9HumanPoseEPS1_f
$0c:_UNITY_FT_RoundFix
yUc:__ZN9Scripting11UnityEngine19PhysicsJobOptions2D12CleanupProxyEv
rhk:_GC_is_heap_ptr
PPh:_ASN1_DecodeTLV_m1200977460
LXe:_UnityEventBase_PrepareInvoke_m1785382128
Y0a:__ZNK12MeshRenderer22GetTypeVirtualInternalEv
stg:_Char_System_IConvertible_ToUInt32_m3901815580
Fjf:_Scrollbar_set_onValueChanged_m346467699
Hmi:__Z157RuntimeInvoker_Int32_t2950945753_RuntimeObject_Int32_t2950945753_Int32_t2950945753_Int32_t2950945753_SByte_t1669577662_SByte_t1669577662_Int32U26_t1369213839PFvvEPK10MethodInfoPvPS4_
WO:__ZN4FMOD6System17setSoftwareFormatEi17FMOD_SOUND_FORMATii18FMOD_DSP_RESAMPLER
sMa:__ZN14SafeBinaryRead19TransferSTLStyleMapINSt3__23mapIN4core12basic_stringIcNS3_20StringStorageDefaultIcEEEES7_NS1_4lessIS7_EE13stl_allocatorINS1_4pairIKS7_S7_EEL18MemLabelIdentifier1ELi16EEEEEEvRT_17TransferMetaFlags
js:__ZL49__ManagedRegistrationHelperFunction_AimConstraintPv
Dgd:__ZN2UI6Canvas27UpdateEventIndexesRecursiveERi
EY:__ZN11UnityEngine15CloudWebService16SessionContainer21PrepareDataErrorEventERN4core12basic_stringIcNS2_20StringStorageDefaultIcEEEE
Lud:_ExecuteEvents_get_pointerUpHandler_m3515704212
mug:_ArrayList_set_Item_m2003485935
_Od:_SatelliteContractVersionAttribute__ctor_m3630863995
Ewd:_MouseButtonEventData_PressedThisFrame_m1060658845
Bxb:__Z19TransferField_ArrayI19StreamedBinaryWriteILb0EE27Converter_SimpleNativeClassI8GUIStyleEEvRK23StaticTransferFieldInfoR31RuntimeSerializationCommandInfoRT0_
QZh:_ReadOnlyCollection_1_System_Collections_Generic_IListU3CTU3E_RemoveAt_m3969985996_gshared
IEa:__Z28BuildSingleStreamChannelInfoP11ChannelInfo17ShaderChannelMaskS1_
F0e:_PlayerConnection_get_isConnected_m911966057
yFd:_GraphicRegistry_GetGraphicsForCanvas_m4219276355
$0f:_NumberFormatter_FastToDecHex_m699829267
R9i:_PatternCompiler_MakeFlags_m1977119795
uPc:__Z35Transfer_Blittable_FixedBufferFieldI8JSONReadiEvRK29SerializationCommandArgumentsR31RuntimeSerializationCommandInfo
uJj:__ZNSt3__213__vector_baseIN6il2cpp2os19SocketHandleWrapperENS_9allocatorIS3_EEED2Ev
TYd:__ZL48_Type_t3588564251_CustomAttributesCacheGeneratorP21CustomAttributesCache
cVa:__ZN28ReflectionProbeAnchorManager18RemoveCachedAnchorERK4PPtrI9TransformE
$b:invoke_viiffi
Dac:__ZN13sorted_vectorINSt3__24pairIN4core12basic_stringIcNS2_20StringStorageDefaultIcEEEEPK17MessageIdentifierEEN10vector_mapIS6_S9_NS0_4lessIS6_EENS0_9allocatorISA_EEE13value_compareESF_E10insert_oneERKSA_
HSc:__ZN5Unity9rapidjson13GenericReaderINS0_4UTF8IcEES3_13JSONAllocatorE10ParseFalseILj0ENS0_19GenericStringStreamIS3_EENS0_15GenericDocumentIS3_S4_S4_EEEEvRT0_RT1_
VCa:__ZL13MeshExtractorPv16VertexInputMasksiR11MeshBuffersR16DrawBuffersRangeRiS5_
uQa:__ZNK12CubemapArray20GetRuntimeMemorySizeEv
nqh:_TimeSpan_FromHours_m1109641064
Rgc:__Z14resize_trimmedINSt3__26vectorIN9ShaderLab18SerializedPropertyENS0_9allocatorIS3_EEEEEvRT_j
YGj:__ZN6il2cpp2vm13MetadataCache38GetMethodInfoFromMethodDefinitionIndexEi
wtd:_EventSystem_set_current_m38955169
AEc:__Z39MonoBehaviour_CUSTOM_GetScriptClassNameP12Il2CppObject
ZCe:__ZL53Selectable_t3250028441_CustomAttributesCacheGeneratorP21CustomAttributesCache
T8i:_CostDelegate_EndInvoke_m2797921932
EXa:__ZN10VertexData8TransferI24GenerateTypeTreeTransferEEvRT_
EZg:_Double_IsInfinity_m820013146
$ak:__ZN13Il2CppHashMapIPK19Il2CppGenericMethodP10MethodInfoN6il2cpp8metadata23Il2CppGenericMethodHashENS6_26Il2CppGenericMethodCompareENSt3__29allocatorINS9_4pairIK10KeyWrapperIS2_ES4_EEEEEC2EjRKS7_RKS8_
z6e:_Screen_get_dpi_m495672463
Pmh:_UTF8Encoding_InternalGetByteCount_m2120178851
b5b:__ZL10CullLightsRK22SceneCullingParametersR11CullResults
z2g:_Convert_ToUInt64_m3170916409
Prd:__ZN9Scripting11UnityEngine12Experimental2XR14ReferencePoint12CleanupProxyEv
nHg:_Int64_System_IConvertible_ToInt16_m4062196970_AdjustorThunk
B0f:_MonoType_GetGenericTypeDefinition_m3201894896
npc:__Z40GetTemporaryCachePathApplicationSpecificv
Uhb:__ZN9GfxDevice16EndAsyncJobFrameEv
iwi:__Z99RuntimeInvoker_Int32_t2950945753_Ray_t3785851493_RuntimeObject_Single_t1397266774_Int32_t2950945753PFvvEPK10MethodInfoPvPS4_
M3c:_UNITY_tt_face_load_hhea
iP:__ZN12AudioManager27InitialCompleteDomainReloadEv
Uk:___syscall3
Xk:___syscall6
Zk:___syscall4
n6f:_DerivedType_GetMethods_m3787404845
XHe:_ReturnMessage__ctor_m2352989078
Qgb:__ZNSt3__26__treeINS_12__value_typeIN4core12basic_stringIcNS2_20StringStorageDefaultIcEEEEPN16MemoryFileSystem4NodeEEENS_19__map_value_compareIS6_SA_NS_4lessIS6_EELb1EEE13stl_allocatorISA_L18MemLabelIdentifier55ELi16EEE7destroyEPNS_11__tree_nodeISA_PvEE
Xsi:__Z67RuntimeInvoker_Boolean_t97287965_TextGenerationSettings_t1351628751PFvvEPK10MethodInfoPvPS4_
P6j:__ZN6il2cpp2vm3RCW14QueryInterfaceILb1EEEP14Il2CppIUnknownP15Il2CppComObjectRK10Il2CppGuid
Yvf:_TlsServerCertificateRequest__ctor_m1334974076
iTc:__ZN27PerformanceReportingManager23VirtualRedirectTransferER14SafeBinaryRead
x0g:_Convert_ToInt32_m1613163543
ooa:__ZN9Scripting11UnityEngine9Playables8Playable12CleanupProxyEv
oZh:_ReadOnlyCollection_1_System_Collections_ICollection_CopyTo_m3127175806_gshared
ml:_emscripten_glShaderBinary
jSg:_String_op_Inequality_m215368492
lth:_UInt16_ToString_m760649087
Pcb:__ZNK20LocalFileSystemPosix6ExistsERK13FileEntryData
EUe:_Camera_GetAllCameras_m668492922
Fdd:__Z58Register_UnityEngine_Canvas_GetETC1SupportedCanvasMaterialv
Dqh:_TimeSpan_op_Inequality_m2467851530
eAb:__ZN17AnimationCurveTplIfE8TransferI18StreamedBinaryReadILb1EEEEvRT_
rIi:_Array_Sort_TisUIVertex_t4057497605_m3996333845_gshared
pqg:_Swapper_BeginInvoke_m1688449973
rWe:_Display_get_renderingWidth_m1970428952
Jjj:_U3CTimedTriggerU3Ec__Iterator0_MoveNext_m825792986
loi:__Z81RuntimeInvoker_Void_t1185182177_RuntimeObject_Int32_t2950945753_Int64_t3736567304PFvvEPK10MethodInfoPvPS4_
lJ:__ZNSt3__26vectorIN4core12basic_stringIcNS1_20StringStorageDefaultIcEEEE13stl_allocatorIS5_L18MemLabelIdentifier1ELi16EEE21__push_back_slow_pathIS5_EEvOT_
Lki:__Z86RuntimeInvoker_Boolean_t97287965_Int16_t2552820387_Int16_t2552820387_Int32_t2950945753PFvvEPK10MethodInfoPvPS4_
Cbi:_IndexedSet_1_IndexOf_m241693686_gshared
Pkd:__ZN11UnityEngine15PlatformWrapper30GetGraphicsDriverLibraryStringEv
aOe:_RuntimeMethodHandle_Equals_m3301340296_AdjustorThunk
Cuh:_UInt64_System_IConvertible_ToSingle_m925613075_AdjustorThunk
BBb:__Z18Transfer_BlittableI18StreamedBinaryReadILb0EELb0E4AABBEvRK29SerializationCommandArgumentsR31RuntimeSerializationCommandInfo
p5a:__ZN24GenerateTypeTreeTransfer19TransferSTLStyleMapINSt3__28multimapIN4core12basic_stringIcNS3_20StringStorageDefaultIcEEEE4PPtrI6ObjectENS1_4lessIS7_EE13stl_allocatorINS1_4pairIKS7_SA_EEL18MemLabelIdentifier52ELi16EEEEEEvRT_17TransferMetaFlags
Qt:__ZN16MecanimAnimation24DeleteAnimatedPropertiesERP26IAnimatedPropertyEvaluator
awj:_CanvasRenderer_SetMaterial_m824577244
YWb:__Z14DrawGUITextureRK5RectTIfEP7Texture11ColorRGBA32P8Materiali
iLa:__ZNK15PlayableMethods18InvokeProcessFrameER18ScriptingObjectPtrRK9HPlayableP18ScriptingFrameDataRK9FrameData
ND:__ZN9BlobWrite8TransferI22OffsetPtrArrayTransferIKN4math7_float4EEEEvRT_PKc17TransferMetaFlags
X8e:_Transform_IsChildOf_m224006092
kKa:__ZN15TextureSettings8TransferI24GenerateTypeTreeTransferEEvRT_
dPc:__ZN9JSONWrite8TransferI4AABBEEvRT_PKc17TransferMetaFlags
Uec:__ZN15dense_hashtableINSt3__24pairIKiN4core17string_with_labelILi1EEEEEi18SInt32HashFunctionN14dense_hash_mapIiS5_S7_NS0_8equal_toIiEE13stl_allocatorIS6_L18MemLabelIdentifier1ELi16EEE9SelectKeyESA_SD_E12expand_arrayEjN21dense_hash_map_traits17integral_constantIbLb0EEE
Rrc:__Z13RegisterClassI15QualitySettingsEvPKc
THf:_InternalEnumerator_1_get_Current_m3191242573_AdjustorThunk
Ar:__ZN13ConstraintJob17ConstraintJobDataD2Ev
Gij:_Aes__ctor_m178909601
WQa:__ZNK9Texture2D20GetRuntimeMemorySizeEv
dVd:_MethodCall_get_MethodSignature_m2407904958
GSc:__ZN5Unity9rapidjson13GenericReaderINS0_4UTF8IcEES3_13JSONAllocatorE9ParseTrueILj0ENS0_19GenericStringStreamIS3_EENS0_15GenericDocumentIS3_S4_S4_EEEEvRT0_RT1_
vm:_emscripten_glUniform2iv
zka:__ZL46__ManagedRegistrationHelperFunction_ColorGamutPv
Nlh:_UnicodeEncoding_CopyChars_m785272451
VYc:_UNITY_FT_Outline_Transform
Jlc:__Z60Register_UnityEngine_Sprites_DataUtility_Internal_GetMinSizev
SBj:__ZN6il2cpp2vm5Class10GetMethodsEP11Il2CppClassPPv
I0b:__Z30AddDefaultStreamsToMeshBuffersR9GfxDeviceR11MeshBuffersRK16DrawBuffersRange17ShaderChannelMaskS6_
ZQb:__ZN7ApiGLES17DeleteFramebufferERN2gl6HandleILNS0_10ObjectTypeE9EEES3_
pTb:__ZN15UniformTFMethod13MapBoneBufferEj
vbd:__ZN2UI14CanvasRendererD2Ev
TKi:_Array_InternalArray__get_Item_TisParameterModifier_t1461694466_m29553316_gshared
FHg:_Int64_CompareTo_m1928360444_AdjustorThunk
dUj:__ZN15dense_hashtableINSt3__24pairIK10KeyWrapperINS1_IPK9EventInfoP11Il2CppClassEEEjEES9_17ReflectionMapHashIS8_EN14dense_hash_mapIS9_jSD_NS9_14EqualsComparerINS0_8equal_toIS8_EEEENS0_9allocatorISB_EEE9SelectKeyESI_SK_E15set_deleted_keyERKSB_
QGb:__Z9SetupArgviPPKc
S0g:_Convert_ToInt64_m2075031821
Fjj:_AnalyticsEventTracker_OnDisable_m1553012800
azk:_glTexParameteri__wrapper
yQa:__ZN12CubemapArray23VirtualRedirectTransferER24GenerateTypeTreeTransfer
Fka:__ZL49__ManagedRegistrationHelperFunction_RenderTexturePv
zak:__ZN6il2cpp2os9Directory6CreateERKNSt3__212basic_stringIcNS2_11char_traitsIcEENS2_9allocatorIcEEEEPi
nxa:__ZN23TransformChangeDispatch32QueueTransformChangeIfHasChangedERK15TransformAccess
z3f:_Assembly_get_FullName_m293988418
lFb:__ZN14SafeBinaryRead20OverrideRootTypeNameEPKc
ETc:__ZN27PerformanceReportingManager18ActiveSceneChangedEPS_P10UnitySceneS2_
B:tempValue
glk:__ZN6il2cpp8metadata24Il2CppGenericContextHash4HashEPK20Il2CppGenericContext
zHf:_InternalEnumerator_1_get_Current_m356936020_AdjustorThunk
GXb:__ZN6Camera21RenderODSWorldTextureERK11CullResultsRK19SharedRendererSceneR17ShaderPassContextNS_10RenderFlagE
UGg:_Int32_ToString_m141394615_AdjustorThunk
_5:__Z29scripting_class_from_fullnamePKcS0_S0_
bzg:_Directory_GetCurrentDirectory_m219218555
Lmg:_SmallXmlParser_UnexpectedEndError_m1914362401
oA:__ZN26AnimatorControllerPlayable18DeallocateBindingsEv
Ilb:__ZN14DelayedDeletorI15dense_hashtableINSt3__24pairIK9TextureIDiEES3_14GfxGenericHashIS3_EN14GfxDoubleCacheIS3_iS7_NS1_8equal_toIS3_EEN31GfxDoubleCacheConcurrencyPolicy11LocklessGetE42GfxDoubleCacheDefaultEmptyDeletedGeneratorIS3_EE9SelectKeyESA_13stl_allocatorIS5_L18MemLabelIdentifier24ELi16EEEEclEv
XR:__ZN11AudioSource19CreateOpenALRolloffEfff
G3c:_UNITY_FT_Stream_ReadAt
Knj:_AudioSampleProvider_Dispose_m1993565764
Cph:_TimeSpan__ctor_m1896986612_AdjustorThunk
fGj:__ZN15dense_hashtableINSt3__24pairIK10KeyWrapperIN6il2cpp5utils13dynamic_arrayIPK10Il2CppTypeLj4EEEEPFvvEEESA_NS3_8metadata19Il2CppSignatureHashEN14dense_hash_mapISA_SD_SG_NSA_14EqualsComparerINSF_22Il2CppSignatureCompareEEENS0_9allocatorISE_EEE9SelectKeyESK_SM_E9set_valueEPSE_RKSE_
skg:_ArgumentException__ctor_m1216717135
L3e:_Ray_ToString_m1732834890_AdjustorThunk
TOc:__ZN9JSONWrite8TransferI13dynamic_arrayI5RectTIfELj0EEEEvRT_PKc17TransferMetaFlags
QQi:_List_1_System_Collections_IList_Contains_m3860993176_gshared
DV:__ZN11AudioModule22CreateAudioClipFromWWWEP10IWWWStreamPKcbbi
wuc:__ZN9Texture2DC2E10MemLabelId18ObjectCreationMode
hKb:__Z17DebugStringToFileIA59_cEvRKT_iPKci15LogMessageFlagsiiPFvRK11CppLogEntryE
Ri:_emscripten_glRotatef
pth:_UInt32_System_IConvertible_ToBoolean_m1763673183_AdjustorThunk
FXe:_UnityEvent_AddListener_m2276267359
hr:__Z9SetLocalR15TransformAccessRKN4math7_float4Ey
qIa:__ZN6prcoreL11inner_clearILj4EEEvPhjjj
Zzj:_NativeTypeAttribute__ctor_m1677513894
Zdk:__GLOBAL__sub_I_Assembly_cpp_44522
N0:__GLOBAL__sub_I_Runtime_SceneManager_0_cpp
Lgk:_GC_initialize_offsets
CHh:_Enumerator_MoveNext_m2142368520_AdjustorThunk
rea:__ZNK8Playable6HandleEv
Pbf:_SetPropertyUtility_SetColor_m2229203028
n8:__ZN14MessageHandler28MessageIDToMessageIdentifierEi
hYa:__ZNK11SpriteAtlas20GetRuntimeRenderDataEPK6Sprite
pJg:_FileSystemInfo__ctor_m3035148496
lGg:_Int32_System_IConvertible_ToDecimal_m2190376994_AdjustorThunk
xma:__ZL43__ManagedRegistrationHelperFunction_Vector4Pv
my:__ZN7mecanim14ValueArrayCopyILb0EEEvPKNS_10ValueArrayEPS1_
DJ:__Z51Register_UnityEngine_Animator_get_hasBoundPlayablesv
Dd:emscriptenWebGLGetUniform
ro:FUNCTION_TABLE_iiiiiiiiiii
Sfj:_GUI_CallWindowDelegate_m3309453386
Z1c:_cff_set_mm_blend
U6b:__ZL10CleanUpJobP20CullingGroupsJobData
mJg:_DirectoryInfo_get_Exists_m3142069876
G_a:__ZN10MeshFilter23VirtualRedirectTransferER24GenerateTypeTreeTransfer
Src:__Z13RegisterClassI16LightmapSettingsEvPKc
PWb:__ZN13RenderManager15BatchModeUpdateEv
cgg:_X509Chain_get_CertificateAuthorities_m804805415
l1b:__Z14SetupLightmapsRK8Vector4fS1_R17ShaderPassContext
R5e:_Vector2_get_one_m738793577
sAc:__ZNK4Mesh14GetIndexFormatEv
Sid:__ZN9Scripting11UnityEngine9Analytics21AnalyticsSessionState9InitProxyEv
f6j:__ZN14dense_hash_mapI10KeyWrapperIP12Il2CppObjectEN6il2cpp2gc9CachedCCWENS4_5utils11PointerHashIS1_EENS3_14EqualsComparerINSt3__28equal_toIS2_EEEENSB_9allocatorINSB_4pairIKS3_S6_EEEEE13set_empty_keyERSH_
gd:_glVertexAttribIPointer
kZe:_Input_GetAxisRaw_m2316819917
ylc:__ZNK6Sprite10GetPaddingE20SpriteRenderDataMode
Fbh:_Array_InternalArray__ICollection_Remove_TisUInt32_t2560061978_m733727733_gshared
pPe:_CryptographicException__ctor_m503735289
xKg:_Stream_EndRead_m1896469262
Bci:__Z93RuntimeInvoker_Boolean_t97287965_Int32_t2950945753_SByte_t1669577662_ExceptionU26_t3600731591PFvvEPK10MethodInfoPvPS4_
p_b:__ZN14qsort_internal5QSortIP15RODataDepthPassi17ROSorterDepthPassEEvT_S4_T0_T1_
p4c:_UNITY_ft_glyphslot_alloc_bitmap
HXh:_ReadOnlyCollection_1_System_Collections_IList_Add_m3642938800_gshared
wzf:_RSASslSignatureDeformatter_SetHashAlgorithm_m895570787
h7i:_X509CrlEntry__ctor_m4013514048
uqi:__Z87RuntimeInvoker_Color_t2555686324_Color_t2555686324_Color_t2555686324_Single_t1397266774PFvvEPK10MethodInfoPvPS4_
d9c:_ft_raster1_render
TFc:__Z47Register_UnityEngine_Mesh_RecalculateBoundsImplv
fib:__ZN9GfxDevice27UpdateComputeSkinPoseBufferEP9GfxBufferP12SkinMeshInfo
ypk:__ZNKSt3__221__basic_string_commonILb1EE20__throw_length_errorEv
NCh:_EqualityComparer_1_System_Collections_IEqualityComparer_Equals_m245992594_gshared
qfh:_Array_InternalArray__IndexOf_TisParameterModifier_t1461694466_m1227120810_gshared
HRb:__ZN18GfxFramebufferGLES13ReadbackImageER14ImageReferenceiiiiii
JLc:__ZN5Unity9rapidjson6WriterI16TempBufferWriterNS0_4UTF8IcEES4_13JSONAllocatorE11WriteStringEPKcj
Iia:__ZN6prcoreL12RemapGenericI17TexFormatARGB888815TexFormatRGB565EEvPKNS_9InnerInfoE
iN:__ZN4FMOD7Channel19setReverbPropertiesEPK29FMOD_REVERB_CHANNELPROPERTIES
Ckj:_StandardEventPayload_GetParameters_m2672427676
KMg:_StreamReader_Dispose_m156389394
O7:__ZN13MonoBehaviour22GetScriptFullClassNameEv
myc:__ZN13ProduceHelperI11MonoManagerLb0EE7ProduceE10MemLabelId18ObjectCreationMode
eNg:_RIPEMD160Managed_JJ_m112143231
BZb:__ZN13BatchRendererC2ER15RenderLoopStatsRK15RenderNodeQueuebb
Egb:__ZNK16MemoryFileSystem9EnumerateEPKcP19dynamic_block_arrayI13FileEntryInfoLj32EEbPPv19FileEnumerationFlag
_Eb:__ZN13MonoBehaviour9CallAwakeEv
eIa:__ZN20SphericalHarmonicsL211AddWeightedERKS_f
Efi:__Z82RuntimeInvoker_RuntimeObject_Int64_t3736567304_Int64_t3736567304_Int64_t3736567304PFvvEPK10MethodInfoPvPS4_
Ftb:__Z19TransferField_ArrayI17RemapPPtrTransfer27Converter_SimpleNativeClassI8GUIStyleEEvRK23StaticTransferFieldInfoR31RuntimeSerializationCommandInfoRT0_
xMc:__ZN9JSONWrite8TransferI10ColorRGBAfEEvRT_PKc17TransferMetaFlags
pod:__ZN11UnityEngine9Analytics22EventLimitResumedEventC2EjRKN4core12basic_stringIcNS2_20StringStorageDefaultIcEEEEb
h8:__Z25scripting_method_get_name18ScriptingMethodPtr
Hzf:_SslCipherSuite_ComputeKeys_m661027754
Yrb:__Z19TransferField_ArrayI14SafeBinaryRead16Converter_StringEvRK23StaticTransferFieldInfoR31RuntimeSerializationCommandInfoRT0_
u1e:_Object_set_name_m291480324
A6g:_Decimal_Equals_m2486655999
Ngk:_GC_exit_check
j4h:__ZN16VirtFuncInvoker2Ii19Color32_t2600501292S0_E6InvokeEjP12Il2CppObjectS0_S0_
I1b:__Z34SetupObjectBakedOcclusionInForwardbRK15SharedLightDataRK26SharedLightmapSettingsDataRK15LightmapIndicesR17ShaderPassContext
KQh:_DSAManaged_get_Random_m923751780
A4:__ZL29TransformAccessChangeCallbackPK15TransformAccessj
aaf:_Vector3_set_Item_m1772472431_AdjustorThunk
Xig:_Interpreter_PopulateGroup_m4042796257
$od:__ZN9Scripting11UnityEngine10Networking18CertificateHandler9InitProxyEv
Krd:__ZN9Scripting11UnityEngine12Experimental2XR13TrackableType9InitProxyEv
Krh:_Type_GetProperty_m3414567179
h1j:__ZN6il2cpp2vm13LivenessState25FieldCanContainReferencesEP9FieldInfo
Xac:__ZNSt3__26vectorINS_4pairIN4core12basic_stringIcNS2_20StringStorageDefaultIcEEEES6_EE13stl_allocatorIS7_L18MemLabelIdentifier38ELi16EEE6insertENS_11__wrap_iterIPKS7_EERSD_
rYe:_RenderPipelineManager_DoRenderLoop_Internal_m3799666479
ED:__ZN9BlobWrite8TransferI22OffsetPtrArrayTransferI9OffsetPtrIN7mecanim12statemachine18StateMachineMemoryEEEEEvRT_PKc17TransferMetaFlags
Zxc:__Z13RegisterClassI14PlayerSettingsEvPKc
df:_emscripten_glStencilOpSeparate
j1i:_Collection_1_System_Collections_IList_IndexOf_m3894953546_gshared
t5i:_PKCS12_get_Certificates_m26161562
Fag:_NameObjectCollectionBase_Init_m2525481323
H0b:__ZN15SkyboxGenerator28GetCubemapSkyboxVertexFormatEv
Skb:__ZN19ShaderPropertySheet24SetTextureWithExplicitIDERK23FastTexturePropertyNameP7Texture9TextureID
KKh:_List_1_Insert_m1582252370_gshared
xck:__ZN6il2cpp2vm6String8NewUtf16EPKDsi
mOe:_SByte_System_IConvertible_ToByte_m2268214252_AdjustorThunk
gak:__ZN6il2cpp2os10ThreadImpl12QueueUserAPCEPFvPvES2_
wdj:_RegularExpression__ctor_m119502265
Eod:__ZN22BaseUnityConnectClient10QueueEventERN11UnityEngine15CloudWebService17CloudServiceEventEPKcjb
gjf:_DelegatePInvokeWrapper_RaycastAllCallback_t1884415901
NZh:_ReadOnlyCollection_1_System_Collections_Generic_ICollectionU3CTU3E_Clear_m522482168_gshared
vUd:_ConstructionCall_InitMethodProperty_m2021094586
UDc:__Z27Texture_CUSTOM_GetDataWidthP12Il2CppObject
b7c:_UNITY_FT_Hypot
_De:__ZL74CanvasScaler_t2767979955_CustomAttributesCacheGenerator_m_DefaultSpriteDPIP21CustomAttributesCache
GWj:_il2cpp_class_is_abstract
xf:_emscripten_glGetError
OSj:__ZN15dense_hashtableINSt3__24pairIK10KeyWrapperIPK14Il2CppAssemblyEPK22Il2CppMonoAssemblyNameEES6_N6il2cpp5utils11PointerHashIS4_EEN14dense_hash_mapIS6_SA_SF_NS6_14EqualsComparerINS0_8equal_toIS5_EEEENS0_9allocatorISB_EEE9SelectKeyESK_SM_E14squash_deletedEv
qmg:_SmallXmlParser__ctor_m202236734
kO:__Z14FMOD_FILE_SeekPvjS_
ohf:_MaskableGraphic_OnDisable_m1757789159
rJa:__ZN7TextureC2E10MemLabelId18ObjectCreationMode
dff:_LayoutGroup__ctor_m2162961217
Bid:__Z56Register_UnityEngine_Analytics_CustomEventData_AddStringv
Ifd:__ZZN2UI6Canvas15InitializeClassEvEN39FunctorImpl_1449kCanvasHierarchyChanged4CallEPviR11MessageData
d8b:__ZNK13RenderTexture32CalculateNeedsInvertedProjectionEv
idc:__ZN10systeminfo18GetOperatingSystemEv
Ff:emscriptenWebGLGet
Caa:__Z19CanReplaceComponentRN5Unity9ComponentEPKNS_4TypeEPN4core12basic_stringIcNS5_20StringStorageDefaultIcEEEE
SZf:_UnmanagedMemoryStream_Flush_m1540584491
jEg:_GuidParser_ParseGuid2_m1914838819
hwc:__ZN12CubemapArray11InitTextureEiii13TextureFormatb
g2d:__ZL70ReliabilityContractAttribute_t502331440_CustomAttributesCacheGeneratorP21CustomAttributesCache
jCf:_InternalEnumerator_1_System_Collections_IEnumerator_get_Current_m55999184_gshared
zEd:_Graphic_get_depth_m815589653
sfj:_Event_set_displayIndex_m1342258734
fUc:__ZN27PerformanceReportingManager17PlayerLoopHandlerEv
Cff:_LayoutGroup_SetLayoutInputForAxis_m2458344630
lE:__ZN7mecanim5human13HumanFixTwistEPKNS0_5HumanEPNS_8skeleton13SkeletonPoseTIN4math4trsXEEES9_iiRKf
v1b:__ZL24AssignProjectorQueuesJobP30AssignProjectorQueuesJobHeader
tNd:_ParameterModifier_t1461694466_marshal_pinvoke
yjc:__ZNSt3__26vectorIN9ShaderLab20SerializedSubProgram15StructParameterENS_9allocatorIS3_EEE21__push_back_slow_pathIS3_EEvOT_
uFg:_Int16_System_IConvertible_ToUInt32_m3410279543
ljc:__ZN9ShaderLab20SerializedSubProgram14SetConstBufferEPKci
FNj:__ZN6il2cpp2os4File5CloseEPNS0_10FileHandleEPi
NFj:__ZNSt3__27__sort5IRN6il2cpp5utils11collections13ArrayValueMapIPK10Il2CppType17Il2CppInteropData26InteropDataToTypeConverterNS1_8metadata14Il2CppTypeLessENSA_26Il2CppTypeEqualityComparerEE12SortComparerEPS8_EEjT0_SH_SH_SH_SH_T_
Vsh:_UInt16_CompareTo_m2664746316_AdjustorThunk
bhb:__ZN9GfxDevice13SetActiveTierE12GraphicsTier
jRc:__Z29Transfer_Blittable_ArrayFieldI8JSONReadjEvRT_R9ArrayInfoRK23StaticTransferFieldInfo
Tgk:_GC_check_finalizer_nested
lg:__setLetterbox
vlf:_ScrollRect_OnScroll_m3861066534
rah:_Array_InternalArray__ICollection_Contains_TisResourceCacheItem_t51292791_m2991582559_gshared
Joe:__ZL72FormerlySerializedAsAttribute_t2859083114_CustomAttributesCacheGeneratorP21CustomAttributesCache
cbf:_OnValidateInput_Invoke_m1009124904
laj:_PatternCompiler_EmitFastRepeat_m3012952683
O$a:__ZNSt3__26vectorI17BlendShapeChannelNS_9allocatorIS1_EEE6assignINS_11__wrap_iterIPS1_EEEENS_9enable_ifIXaasr21__is_forward_iteratorIT_EE5valuesr16is_constructibleIS1_NS_15iterator_traitsISA_E9referenceEEE5valueEvE4typeESA_SA_
iKb:__Z12SetGfxDeviceP9GfxDevice
bdc:__ZN11TimeManager11GetRealtimeEv
GO:__ZN29AudioEffectInternalDefinitionC2EP26UnityAudioEffectDefinitionb
I2h:_ReadOnlyCollection_1_System_Collections_IList_Remove_m2434650390_gshared
mth:_UInt16_ToString_m3056878594_AdjustorThunk
Ujg:_Interval_get_IsSingleton_m3386290029
$Vj:__ZNSt3__2plIcNS_11char_traitsIcEENS_9allocatorIcEEEENS_12basic_stringIT_T0_T1_EERKS9_PKS6_
lmd:__ZN18UnityConnectClient27OnPlayerSessionStateChangedEjyy
ePa:_stbir_resize
Eeh:_Array_IndexOf_TisCustomAttributeTypedArgument_t2723150157_m3158556463_gshared
Ayg:_Environment_GetOSVersionString_m407782784
Lih:_DecoderExceptionFallback_Equals_m1082173956
M0d:__ZL69Assembly_t_CustomAttributesCacheGenerator_Assembly_GetName_m981771927P21CustomAttributesCache
cla:__ZL59__ManagedRegistrationHelperFunction_AsyncGPUReadbackRequestPv
die:__ZL93Mesh_t3648964284_CustomAttributesCacheGenerator_Mesh_GetAllocArrayFromChannelImpl_m3084065604P21CustomAttributesCache
Teb:__Z37ReadDirectoryInfo_UnityWebAndUnityRawR12FileAccessorRKN20ArchiveStorageHeader6HeaderERNS1_13DirectoryInfoE
O4:__ZNSt3__26__treeINS_12__value_typeIPKciEENS_19__map_value_compareIS3_S4_15compare_tstringIS3_ELb1EEENS_9allocatorIS4_EEE7destroyEPNS_11__tree_nodeIS4_PvEE
MEi:_Array_InternalArray__Insert_TisIntPtr_t_m189626842_gshared
hfg:_X509Certificate2_get_IssuerName_m1277209535
m8i:_RijndaelManaged_CreateEncryptor_m263736311
m_b:__ZN20DynamicPropertySheet14SetValueQueuedEN9ShaderLab16FastPropertyNameEN19ShaderPropertySheet12PropertyTypeEjNS2_8SetFlagsE
kXe:_InvokableCallList_ClearPersistent_m1904264973
iGb:__ZN25PathNamePersistentManagerD2Ev
K5a:__ZN17PersistentManager48IntegrateObjectAndUnlockIntegrationMutexInternalEi
dha:__ZZ29InitializeSortingGroupManagerPvEN44PostLateUpdateSortingGroupsUpdateRegistrator7ForwardEv
Ixe:__ZL55EventTrigger_t1076084509_CustomAttributesCacheGeneratorP21CustomAttributesCache
CSg:_SecurityElement_SearchForChildByTag_m900466299
zp:__ZN6Object12SetHideFlagsENS_9HideFlagsE
s1g:_Convert_ToSingle_m3227075028
Zvk:_emscripten_glGetFramebufferAttachmentParameteriv__wrapper
t7b:__ZN13RendererScene15InitializeUmbraEv
rGa:__Z28CalculateGlobalMatrixInverse23TransformAccessReadOnly
sFh:_GenericEqualityComparer_1_Equals_m3457564127_gshared
mpf:_BigInteger_ModInverse_m2426215562
Hih:_DecoderExceptionFallback__ctor_m4044614564
XZf:_LocalDataStoreSlot__cctor_m644942532
elk:__ZN6il2cpp6icalls8mscorlib6System6Object7GetTypeEP12Il2CppObject
qMd:_MonoProperty_CachePropertyInfo_m2968057423
hpd:__ZNK25UnityWebRequestJavaScript18GetDownloadedBytesEv
J3e:_Ray_GetPoint_m1852405345_AdjustorThunk
mIb:__Z21BeginSplashScreenFadev
tpd:__ZN12HeaderHelper14SetUnvalidatedERKN4core12basic_stringIcNS0_20StringStorageDefaultIcEEEES6_b
OM:__ZN4FMOD6SoundI7releaseEv
Q0c:_cff_parse_num
vfb:__ZN10MemoryFile9SetLengthEy
Lvb:__ZN5RectTIiE8TransferI24GenerateTypeTreeTransferEEvRT_
Bzg:_Exception_get_ClassName_m2428844642
DFb:__Z28scripting_class_is_interface17ScriptingClassPtr
Ch:_glTexStorage2D
hBg:_CultureInfo_ConstructInternalLocaleFromName_m4012802696
VLa:__ZNK9ShaderLab10SubProgram14EnsureCompiledEv
k9f:_MethodBuilder_GetGenericArguments_m1765425737
Z3g:_DateTime_CompareTo_m3687348273
Ifk:_GC_push_marked
w4g:_DateTime_ToUniversalTime_m1945318289_AdjustorThunk
g0g:_Convert_ToInt16_m1336719169
Z7:__Z18BuildScriptClassId17ScriptingClassPtr
Huj:_TextGenerator_Init_m1168488231
ddb:__ZL31DeleteLastPathNameComponentImplRKN4core12basic_stringIcNS_20StringStorageDefaultIcEEEEPKc
p5g:_DBNull_System_IConvertible_ToUInt64_m4072736670
ijd:__ZN18UnityConnectClient15GetCloudServiceEv
prb:__Z29Transfer_Blittable_ArrayFieldI14SafeBinaryRead5RectTIiEEvRT_R9ArrayInfoRK23StaticTransferFieldInfo
yGf:_InternalEnumerator_1_get_Current_m2698009637_gshared
oJj:__ZN6il2cpp2os19SocketHandleWrapperD2Ev
xFb:__ZL28SerializationCommandGroupForRK31TransferFunctionScriptingTraits17ScriptingClassPtr17ScriptingFieldPtrRK20CoreScriptingClasses
xva:__ZN10TagManager32RegisterDefaultTagsAndLayerMasksEv
wph:_WaitHandle_Dispose_m738127030
Hli:__Z50RuntimeInvoker_Double_t594665363_Int32_t2950945753PFvvEPK10MethodInfoPvPS4_
Fui:__Z104RuntimeInvoker_Void_t1185182177_Color_t2555686324_Single_t1397266774_SByte_t1669577662_SByte_t1669577662PFvvEPK10MethodInfoPvPS4_
yJh:_Enumerator_System_Collections_IEnumerator_get_Current_m1540440674_gshared
xTg:_Single_System_IConvertible_ToInt16_m809233024_AdjustorThunk
Did:__Z56Register_UnityEngine_Analytics_CustomEventData_AddUInt32v
Lnk:_fmodf
fla:__ZL47__ManagedRegistrationHelperFunction_CullResultsPv
POb:__ZN4gles8InitCapsEP7ApiGLESP12GraphicsCapsR16GfxDeviceLevelGL
wPa:__ZN6prcore14BlitImageFloatERK14ImageReferenceRS0_NS0_8BlitModeE
MHa:__Z24CalculateVertexLightDataRK15SharedLightDataR14GfxVertexLight
ki:_glEnable
aRj:__ZN15dense_hashtableINSt3__24pairIK10KeyWrapperINS1_IPK12PropertyInfoP11Il2CppClassEEEjEES9_17ReflectionMapHashIS8_EN14dense_hash_mapIS9_jSD_NS9_14EqualsComparerINS0_8equal_toIS8_EEEENS0_9allocatorISB_EEE9SelectKeyESI_SK_E15insert_noresizeERKSB_
cqa:__ZN9Scripting11UnityEngine33ExcludeFromObjectFactoryAttribute12CleanupProxyEv
RLa:__ZNK9ShaderLab7Program28BeginReadUnsupportedVariantsEv
ita:__ZN12CachedWriter11Align4WriteEv
n4a:__ZNSt3__26vectorIN30RuntimeInitializeOnLoadManager9ClassInfoE13stl_allocatorIS2_L18MemLabelIdentifier13ELi16EEE7reserveEj
JMc:__Z35Transfer_Blittable_FixedBufferFieldI9JSONWriteiEvRK29SerializationCommandArgumentsR31RuntimeSerializationCommandInfo
IFh:_Enumerator__ctor_m1590062855_AdjustorThunk
MTj:__ZN14dense_hash_mapI10KeyWrapperINSt3__24pairIPK10MethodInfoP11Il2CppClassEEEj17ReflectionMapHashIS8_ENS9_14EqualsComparerINS1_8equal_toIS8_EEEENS1_9allocatorINS2_IKS9_jEEEEEC2EjRKSB_RKSF_
gA:__ZN26AnimatorControllerPlayable17ProcessRootMotionEP35AnimationPlayableEvaluationConstantP32AnimationPlayableEvaluationInputP33AnimationPlayableEvaluationOutput
vZf:_UnexceptionalStreamReader_Peek_m1842169584
mkd:__ZN11UnityEngine7Connect15DeviceInfoEvent16CollectExtraInfoEv
wTe:_Bounds_GetHashCode_m1844059663_AdjustorThunk
GPe:_CryptographicException__ctor_m1422015889
yaf:_Vector4_Equals_m1779210055_AdjustorThunk
B2g:_Convert_ChangeType_m739676612
TUb:__ZN20ArchiveStorageReader10InitializeER15FileSystemEntryyb
Mdk:__ZThn8_N6il2cpp2vm13CachedCCWBaseINS0_13ManagedObjectEE6AddRefEv
uId:_TypeBuilder_CreateType_m3375483507
QOh:_ModulusRing_BarrettReduction_m167376748
oIe:_RemotingServices_GetRealProxy_m2081098851
rQh:_BlockProcessor_Core_m189015002
fwk:_emscripten_glScissor__wrapper
vo:FUNCTION_TABLE_viifi
wo:FUNCTION_TABLE_viiff
Plg:_X501__cctor_m1166912714
IYd:__ZL37Type_t_CustomAttributesCacheGeneratorP21CustomAttributesCache
it:__ZN9Scripting11UnityEngine14AnimationState9InitProxyEv
YTe:_Bounds_ToString_m4208690781
LUj:__ZN6il2cpp2vm14TypeNameParser5ParseEb
Jpe:__ZL100GameObject_t1113636619_CustomAttributesCacheGenerator_GameObject_SendMessage_m3720186693____options2P21CustomAttributesCache
cYf:_StreamWriter_Initialize_m3490883444
Xrh:_Type_GetGenericArguments_m3500465462
OIj:__ZN15dense_hashtableINSt3__24pairIK10KeyWrapperIP9FieldInfoEiEES5_N6il2cpp5utils11PointerHashIS3_EEN14dense_hash_mapIS5_iSB_NS5_14EqualsComparerINS0_8equal_toIS4_EEEENS0_9allocatorIS7_EEE9SelectKeyESG_SI_E12resize_deltaEjj
Und:__ZN23UnityPurchasingSettingsC2Ev
yKd:_Module_IsDefined_m2423524910
g6f:_DerivedType_create_unmanaged_type_m747846525
_te:__ZL60EventType_t3528516131_CustomAttributesCacheGenerator_repaintP21CustomAttributesCache
lAa:__ZN17GPUFenceInternals7ReleaseEv
_Ce:__ZL66Selectable_t3250028441_CustomAttributesCacheGenerator_m_NavigationP21CustomAttributesCache
yAc:__ZN17MaterialScripting18CreateWithMaterialE21ScriptingObjectOfTypeI8MaterialEPS1_
e8b:__ZL10RenderFaceR9GfxDeviceR18MaterialStateCacheP13RenderTextureiif
AId:_TypeBuilder_GetElementType_m1881206953
TYh:_ReadOnlyCollection_1_System_Collections_IList_RemoveAt_m1980090087_gshared
I4i:_ExtendedKeyUsageExtension_ToString_m2116504780
R8a:__ZNK5Unity9Component38MarkGameObjectAndComponentDependenciesER27GarbageCollectorThreadState
SIg:_BinaryReader_Read_m3708759962
y8:__ZNK11TypeManager15ClassNameToRTTIEPKcb
Ika:__ZL57__ManagedRegistrationHelperFunction_DefaultExecutionOrderPv
uOb:__ZN9GfxDevice26CreateDefaultVertexBuffersEv
zxk:_emscripten_glVertexAttrib2fv__wrapper
IYf:_SynchronizedReader_ReadToEnd_m2160105378
g8g:_Double_System_IConvertible_ToUInt16_m4132603953_AdjustorThunk
gSa:__ZN4crnd12symbol_codec32decode_receive_static_data_modelERNS_25static_huffman_data_modelE
Wuc:__ZN18ScriptingArguments8AddFloatEf
FGd:_Image_set_fillOrigin_m469806249
akd:__ZN11UnityEngine15PlatformWrapper16GetVRRenderScaleEv
JNc:__Z18Transfer_BlittableI9JSONWriteLb0EaEvRK29SerializationCommandArgumentsR31RuntimeSerializationCommandInfo
ZX:__ZN11UnityEngine15CloudWebService14DataDispatcher34OnSessionContainerArchivedAndReadyERNS0_16SessionContainerE
A0e:_ConnectionChangeEvent__ctor_m764126802
SNd:_ResolveEventHandler_Invoke_m1337322179
qIh:_Enumerator_VerifyState_m2621680056_gshared
qej:_UriParser_InternalRegister_m3643767086
Dec:__ZN14SafeBinaryRead19TransferSTLStyleMapINSt3__23mapIN4core12basic_stringIcNS3_20StringStorageDefaultIcEEEEiNS1_4lessIS7_EENS1_9allocatorINS1_4pairIKS7_iEEEEEEEEvRT_17TransferMetaFlags
F5c:_gray_move_to
l5g:_DBNull_System_IConvertible_ToSingle_m13713620
Qtg:_Char_ToLowerInvariant_m1926695830
PYh:_ReadOnlyCollection_1_System_Collections_IList_Contains_m1327645028_gshared
SGd:_Image_GetDrawingDimensions_m3060965396
Rre:__ZL69FontTextureRebuildCallback_t2467502454_CustomAttributesCacheGeneratorP21CustomAttributesCache
osh:_TypeLoadException__ctor_m1154572625
YCc:__Z30RegisterValidateMethodCallbackiPF18ScriptingMethodPtrS_17ScriptingClassPtrP6ObjectEPKc
DNa:__ZNSt3__27__sort4IRPFbRKNS_4pairIN9ShaderLab16FastPropertyNameE10ColorRGBAfEES7_EPS5_EEjT0_SC_SC_SC_T_
Lwf:_Context_get_WriteSequenceNumber_m1115956887
BJi:_Dictionary_2_Do_ICollectionCopyTo_TisKeyValuePair_2_t2401056908_m1169495264_gshared
pHd:_OpCodes__cctor_m3821715395
DAd:_ContentSizeFitter__ctor_m2349275633
V4c:_tt_cmap_init
aSc:__ZN8JSONRead8TransferI9BoundsIntEEvRT_PKc17TransferMetaFlagsb
mb:invoke_viidi
Ffb:__ZN25SingleBlockMemoryFileData9SetLengthEy
aIi:_Array_Sort_TisOrderBlock_t1585977831_m2922111197_gshared
qEd:_Graphic_OnRectTransformDimensionsChange_m3695755375
oOe:_SByte_System_IConvertible_ToChar_m1489191771_AdjustorThunk
EM:__ZN9AudioClip7CleanupEv
Uxc:__Z13RegisterClassI18DelayedCallManagerEvPKc
h_j:__ZNK15dense_hashtableINSt3__24pairIK10KeyWrapperIP11Il2CppClassES4_EES5_N6il2cpp8metadata16SZArrayClassHashEN14dense_hash_mapIS5_S4_SA_NS5_14EqualsComparerINS9_19SZArrayClassCompareEEENS0_9allocatorIS7_EEE9SelectKeyESE_SG_E12test_deletedEj
q0g:_Convert_ToInt16_m1223489986
DQc:__Z18Transfer_BlittableI8JSONReadLb0EdEvRK29SerializationCommandArgumentsR31RuntimeSerializationCommandInfo
FTd:_SynchronizationAttribute_EnterContext_m1660729920
pvj:_Canvas_get_referencePixelsPerUnit_m3420541976
qfj:_Event_get_current_m2393892120
Jlj:_VertexHelper_Clear_m627349662
mKj:__ZN6il2cpp2vm21ThreadPoolCompartment13QueueWorkItemEP17Il2CppAsyncResult
yhb:__ZNK9GfxDevice13GetViewMatrixEv
TZf:_UnmanagedMemoryStream_Dispose_m2681886347
Q7a:__ZN17RemapPPtrTransferC2E24TransferInstructionFlagsb
z$g:_Convert_ToDecimal_m889385228
B9:__ZN8TypeTree8BlobReadERPKhS1_ib
Ppg:_Array_Reverse_m3714848183
MCd:_Dropdown_ClearOptions_m4085591601
Qzd:_CanvasUpdateRegistry_InternalRegisterCanvasElementForGraphicRebuild_m3522560454
X5a:__ZN18LoadSceneOperation23GetAllowSceneActivationEv
qya:__ZN6CameraD0Ev
yz:__ZN7mecanim12AndValueMaskILb0EEEvPKNS_14ValueArrayMaskEPS1_
b4a:__ZN14SafeBinaryRead21TransferSTLStyleArrayINSt3__26vectorIi13stl_allocatorIiL18MemLabelIdentifier13ELi16EEEEEEvRT_17TransferMetaFlags
tjh:_EncoderFallback__cctor_m3806755293
GZc:_raccess_guess_apple_double
nQb:__ZL18ProgramUniform1uivPK7ApiGLESjiihPKv
qwc:__ZN14Texture2DArray13RebuildMipMapEv
NCj:__ZN13Il2CppHashSetIPK17Il2CppGenericInstN6il2cpp8metadata21Il2CppGenericInstHashENS4_24Il2CppGenericInstCompareENSt3__29allocatorI10KeyWrapperIS2_EEEEC2EjRKS5_RKS6_
npb:__Z18Transfer_BlittableI14SafeBinaryReadLb1EaEvRK29SerializationCommandArgumentsR31RuntimeSerializationCommandInfo
Z8j:__ZN6il2cpp2gc16GarbageCollector14RemoveWeakLinkEPPv
mjc:__ZN9ShaderLab20SerializedSubProgram14AddVectorParamEPKcii15ShaderParamTypei
qfd:__ZN2UI14CanvasRenderer12CleanupClassEv
KYg:_Enumerator__ctor_m3362421874
w5j:__ZN6il2cpp2vm6Object3BoxEP11Il2CppClassPv
HYj:__ZN6il2cpp2vm6Thread7SetNameEP12Il2CppThreadP12Il2CppString
sZ:__ZN11UnityEngine15CloudWebService10RestClientINS0_23WebRequestRestHeaderMapEE16SetRequestHeaderERKN4core12basic_stringIcNS4_20StringStorageDefaultIcEEEESA_
g4a:__ZN30RuntimeInitializeOnLoadManager15ClassMethodInfo8TransferI14SafeBinaryReadEEvRT_
oUd:_ConstructionCall_InitDictionary_m2824447813
zW:__ZL22InitializeModule_Audiov
qgb:__ZN16MemoryFileSystem8IsLockedERK13FileEntryData
M$j:__ZN6il2cpp6icalls8mscorlib6System2IO6MonoIO5WriteEiP11Il2CppArrayiiPi
M_e:_Mathf_InverseLerp_m4155825980
Uii:__Z92RuntimeInvoker_RuntimeObject_RuntimeObject_RuntimeObject_SByte_t1669577662_SByte_t1669577662PFvvEPK10MethodInfoPvPS4_
_k:_emscripten_glBindRenderbuffer
cOi:_List_1_System_Collections_IList_Insert_m1011775503_gshared
Igk:_GC_dirty_init
b4j:__ZN6il2cpp2vm5Image33GetCachedMemoryMappedResourceFileEP24Il2CppReflectionAssembly
s4j:__ZN6il2cpp2vm5Field14GetValueObjectEP9FieldInfoP12Il2CppObject
bdd:__ZNK2UI6Canvas16GetTargetDisplayEv
Aid:__Z63Register_UnityEngine_Analytics_CustomEventData_Internal_Destroyv
eqh:_TimeSpan_CompareTo_m3633415627_AdjustorThunk
phf:_MaskableGraphic_OnTransformParentChanged_m329502413
UEb:__ZN13MonoBehaviour17RemoveFromManagerEv
_9e:_Vector3_get_Item_m668685504_AdjustorThunk
eza:__ZN12ImageFilters14AddImageFilterERK11ImageFilter
ESd:_Context_NotifyDynamicSinks_m1841702879
_fj:_GUIUtility_get_pixelsPerPoint_m2369948084
oSg:_WindowsIdentity_System_Runtime_Serialization_IDeserializationCallback_OnDeserialization_m3428853631
e1:__ZN13MemoryManagerC2Ev
K0a:__ZN12SkinMeshInfo10DeallocateEPS_
Ykf:_ScrollRect_SetDirty_m214267968
UCi:__Z74RuntimeInvoker_Int32_t2950945753_UIVertex_t4057497605_UIVertex_t4057497605PFvvEPK10MethodInfoPvPS4_
Kfb:__ZN20ArchiveStorageReader28AcquireAndPrefillUnusedBlockEjPNS_11CacheResultE
mrg:_Boolean_System_IConvertible_ToDateTime_m603510836
lwc:__Z12NHxRoughnessIA4_tEvP9Texture2DPT_iiii
Xnd:__ZN11UnityEngine15PlatformWrapper33GetTimeSinceStartupInMillisecondsEv
fX:__Z6simd4iiiii
Dab:__ZN9Transform5ResetEv
v0g:_Decimal_op_Explicit_m1842265407
$vb:__Z22TransferField_NonArrayI24GenerateTypeTreeTransfer16Converter_StringEvRK23StaticTransferFieldInfoR31RuntimeSerializationCommandInfoRT0_
Yka:__ZL47__ManagedRegistrationHelperFunction_FixedUpdatePv
fwj:_CanvasRenderer_SetAlphaTexture_m2009567627
t1c:_UNITY_FT_CMap_New
vDf:_InternalEnumerator_1_get_Current_m4241643334_AdjustorThunk
pHb:__Z17MainLoopKeepalivePv
BJf:_InternalEnumerator_1_get_Current_m1588647567_AdjustorThunk
N3f:_Assembly_UnprotectedGetName_m600830855
s2d:__ZL51GCHandle_t3351438187_CustomAttributesCacheGeneratorP21CustomAttributesCache
Ebf:_InputField_get_caretBlinkRate_m3620074524
h_b:__Z19SetupLODFadeKeywordR17ShaderPassContexti
kOg:_RSAPKCS1SignatureFormatter_CreateSignature_m3191980616
KLa:__ZN10builtintex16GetDefaultTexEnvE16TextureDimensionb
vSb:__ZL25CheckCopyTextureArgumentsRK7ApiGLESP11GLESTextureS3_
oAk:_glDeleteShader__wrapper
dfa:__ZNK15PlayableMethods18InvokeOnGraphStartER18ScriptingObjectPtrRK9HPlayable
xvb:__Z29Transfer_Blittable_ArrayFieldI24GenerateTypeTreeTransferyEvRT_R9ArrayInfoRK23StaticTransferFieldInfo
yN:__ZN4FMOD7SystemI9playSoundE17FMOD_CHANNELINDEXPNS_5SoundEbPPNS_7ChannelE
mMi:_List_1_System_Collections_IList_Remove_m3140917266_gshared
IHg:_Int64_GetHashCode_m703091690
dma:__ZL60__ManagedRegistrationHelperFunction_ReflectionProbeBlendInfoPv
Dfj:_Event_get_commandName_m4275147343
xz:__ZN27AnimationLayerMixerPlayable17LayerMixerProcessEP35AnimationPlayableEvaluationConstantP32AnimationPlayableEvaluationInputP33AnimationPlayableEvaluationOutputM17AnimationPlayableFvS1_S3_S5_EMS_FvS1_S3_S5_ESA_MS_FvS5_S1_S3_S5_ifE
E$g:_Decimal_op_Implicit_m4256234411
$L:__ZN12AudioManager23VirtualRedirectTransferER18StreamedBinaryReadILb0EE
wfi:__Z60RuntimeInvoker_RuntimeObject_RuntimeObject_Int16_t2552820387PFvvEPK10MethodInfoPvPS4_
HMg:_StreamReader__ctor_m3941437302
wqc:__Z57Register_UnityEngine_Transform_INTERNAL_get_localRotationv
Zsk:dynCall_viif
Qrc:__Z13RegisterClassIN5Unity9ComponentEEvPKc
CYf:_StringReader_ReadLine_m2337102945
dtb:__ZL26Transfer_SimpleNativeClassI17RemapPPtrTransfer8GradientLb0EEvRK29SerializationCommandArgumentsR31RuntimeSerializationCommandInfo
Bhe:__ZL49Shader_t4151988712_CustomAttributesCacheGeneratorP21CustomAttributesCache
iB:__ZN17AnimationPlayable26DisconnectNoTopologyChangeEPS_i
Lrg:_Boolean_Equals_m2410333903_AdjustorThunk
AUi:_List_1_System_Collections_IList_Contains_m2131605266_gshared
n_:__ZN13UploadHandlerD2Ev
_J:__GLOBAL__sub_I_Modules_AssetBundle_Public_1_cpp
yrk:dynCall_viiiiiffi
Atj:_Hacker__ctor_m518604791
wc:_emscripten_glBlendFuncSeparate
s1i:_Collection_1_Add_m809543251_gshared
H5:__Z20scripting_string_newPKc
Bdj:_Parser_IsSingleline_m326238187
mxg:_CollectionBase_get_Count_m1708965601
bRe:_HMAC__ctor_m97939284
Dvh:_ValueType_DefaultEquals_m2927252100
oMc:__ZN9JSONWrite12AppendToNodeEPN5Unity9rapidjson12GenericValueINS1_4UTF8IcEE13JSONAllocatorEEPKcRS6_
$Ph:_ASN1_ToString_m1340204511
igg:_X509Store_get_Certificates_m2149701265
Drh:_Type_GetField_m2961003358
xze:__ZL144StandaloneInputModule_t2760469101_CustomAttributesCacheGenerator_StandaloneInputModule_t2760469101____allowActivationOnMobileDevice_PropertyInfoP21CustomAttributesCache
Eqa:__ZN9Scripting11UnityEngine13ComputeBuffer12CleanupProxyEv
klh:_StringBuilder_set_Chars_m3548656617
xNj:__ZN6il2cpp2os4File17GetFileAttributesERKNSt3__212basic_stringIcNS2_11char_traitsIcEENS2_9allocatorIcEEEEPi
WE:__ZNSt3__26__sortIRPFbPKN8Animator11AnimatorJobES4_EPS4_EEvT0_S9_T_
wT:__ZN17AudioCustomFilterD2Ev
Wzi:__Z56RuntimeInvoker_Void_t1185182177_MonoResource_t4103430009PFvvEPK10MethodInfoPvPS4_
Bek:_GC_unpromote_black_lists
VJ:__ZN9Scripting11UnityEngine2XR5Tango9GridIndex9InitProxyEv
rRb:__ZN18GfxFramebufferGLES18ReleaseFramebufferEP17RenderSurfaceBaseP14GfxContextGLES
tPc:__Z18Transfer_BlittableI8JSONReadLb1EiEvRK29SerializationCommandArgumentsR31RuntimeSerializationCommandInfo
R_:__ZN19CloudServiceHandler34HandleSaveFileWebRequestPlayerLoopEv
WA:__ZN7mecanim21ValueArrayReverseCopyEPKNS_18ValueArrayConstantEPKNS_10ValueArrayES2_PS3_PKi
frd:__ZL47__ManagedRegistrationHelperFunction_XRNodeStatePv
PS:__Z31GetParentSampleClipFromInstancePN11SoundHandle8InstanceE
tsc:__ZNK28RectTransformPropertyBinding13GetFloatValueERKN11UnityEngine9Animation10BoundCurveE
B8b:__ZN6Camera22StandaloneCustomRenderENS_10RenderFlagEP6ShaderRKN4core12basic_stringIcNS3_20StringStorageDefaultIcEEEEPNS_21PerformRenderFunctionE
Yeh:_Array_InternalArray__IndexOf_TisKeyValuePair_2_t2401056908_m4118889689_gshared
f5a:__ZNSt3__26vectorI4PPtrI6ObjectE13stl_allocatorIS3_L18MemLabelIdentifier52ELi16EEE6assignINS_11__wrap_iterIPS3_EEEENS_9enable_ifIXaasr21__is_forward_iteratorIT_EE5valuesr16is_constructibleIS3_NS_15iterator_traitsISD_E9referenceEEE5valueEvE4typeESD_SD_
zlk:__ZN6il2cpp2os16ThreadLocalValue8GetValueEPPv
lfg:_X509Certificate2_get_PublicKey_m370665820
EHj:__ZN6il2cpp2vm13MetadataCache14GetGenericInstEPKPK10Il2CppTypej
fU:__ZN13AudioListener17ReadExtensionNameEi
Zc:_glUniform1uiv
bmd:__ZN11UnityEngine7Connect20RemoteConfigSettings35CallConfigUpdatedOnMainThreadStaticEPS1_
ap:setThrew
jAf:_SslClientStream_OnLocalPrivateKeySelection_m1934775249
dwc:__ZL21BuildEmptyCubeTexturePKci11ColorRGBA3217TextureColorSpace
Msg:_Byte_ToString_m721125428
Gec:__ZN14SafeBinaryRead21TransferSTLStyleArrayINSt3__26vectorIN9ShaderLab20SerializedSubProgramENS1_9allocatorIS4_EEEEEEvRT_17TransferMetaFlags
vfh:_Array_InternalArray__IndexOf_TisX509ChainStatus_t133602714_m48896230_gshared
fdb:__ZN19dynamic_block_arrayI13FileEntryInfoLj32EE4growEj
CPc:__Z15Transfer_StringI8JSONReadLb1EEvRK29SerializationCommandArgumentsR31RuntimeSerializationCommandInfo
s6a:__ZN16LightmapSettings15AppendLightmapsEiRK13dynamic_arrayI12LightmapDataLj0EE
zha:__ZN6prcoreL17RemapGenericFloatI17TexFormatRGBFloat15TexFormatRGHalfEEvPKNS_9InnerInfoE
J3c:_sfnt_load_face
RYc:_UNITY_FT_Render_Glyph_Internal
w0j:__ZNSt3__212basic_stringIDsNS_11char_traitsIDsEENS_9allocatorIDsEEE21__grow_by_and_replaceEjjjjjjPKDs
J1c:_UNITY_ft_service_list_lookup
gJc:__ZN5IMGUI21SelectReceivingWindowER8GUIStateb
rRe:_HMAC_Initialize_m3157696427
PYf:_SynchronizedWriter_Write_m2529550287
Snk:___strchrnul
n2:__ZN13BaseAllocator13TryDeallocateEPv
eeg:_X509SubjectKeyIdentifierExtension__ctor_m2055934916
lLc:__ZN9Scripting19UnityEngineInternal5Input17NativeInputSystem9InitProxyEv
zlj:_Toggle_OnSubmit_m1320104356
Mmk:_sprintf
Ujc:__ZN9Scripting25CreateNullExceptionObjectE18ScriptingObjectPtr
bSh:_PrivateKeyInfo_DecodeRSA_m2889346634
jT:__ZN13AudioListener17RemoveFromManagerEv
sd:_glAttachShader
OAd:_ContentSizeFitter_SetLayoutHorizontal_m2833273874
NXh:_ReadOnlyCollection_1_System_Collections_IList_RemoveAt_m134366701_gshared
Txa:__ZNK6Camera19GetProjectionMatrixEv
JBe:__ZL70InputField_t3762917431_CustomAttributesCacheGenerator_m_SelectionColorP21CustomAttributesCache
ecf:_InputField_SetToCustomIfContentTypeIsNot_m2813459946
uge:__ZL70RuntimePlatform_t4159857903_CustomAttributesCacheGenerator_FlashPlayerP21CustomAttributesCache
EEg:_Guid_GetHashCode_m3042133858_AdjustorThunk
ysa:__Z38PreallocateObjectFromPersistentManagerib
djg:_Interpreter_Backtrack_m2828876822
bRa:__ZNK9Texture2D20GetUnscaledTextureIDEv
EOe:_SByte_System_IConvertible_ToType_m4075253447
Gyk:_glFenceSync__wrapper
Q8e:_Transform_INTERNAL_get_worldToLocalMatrix_m2730237241
MTg:_Single_System_IConvertible_ToUInt64_m3299129161
vdf:_InputField_IsValidChar_m1928072643
gRa:__ZNK9Texture2D26CanReuploadDataToGfxDeviceEv
V6d:__ZL63CodeAccessPermission_t2681295399_CustomAttributesCacheGeneratorP21CustomAttributesCache
R6a:__Z29ClearRepeatingLogMessageStatev
OHf:_InternalEnumerator_1_get_Current_m3191242573_gshared
Dsg:_Byte_Equals_m1161982810_AdjustorThunk
Yca:__ZN21EnlightenSceneMappingaSERKS_
Bva:__ZN14SafeBinaryRead21TransferSTLStyleArrayI13dynamic_arrayI17SortingLayerEntryLj0EEEEvRT_17TransferMetaFlags
vVc:__ZL48__ManagedRegistrationHelperFunction_MeshColliderPv
jUb:__ZN7ApiGLESD2Ev
_wa:__ZN9Transform47ClearTransformHierarchyAndApplyToSerializedDataEv
RQc:__ZN8JSONRead21TransferSTLStyleArrayINSt3__26vectorI8MonoPPtr13stl_allocatorIS3_L18MemLabelIdentifier1ELi16EEEEEEvRT_17TransferMetaFlags
Idf:_InputField_IsSelectionVisible_m3622592134
uqg:_AssemblyLoadEventHandler_Invoke_m1462077361
wya:__ZN6Camera23VirtualRedirectTransferER19StreamedBinaryWriteILb0EE
ntk:dynCall_fidi
AOj:__ZN15dense_hashtableINSt3__24pairIK10KeyWrapperINS1_IPK9FieldInfoP11Il2CppClassEEEjEES9_17ReflectionMapHashIS8_EN14dense_hash_mapIS9_jSD_NS9_14EqualsComparerINS0_8equal_toIS8_EEEENS0_9allocatorISB_EEE9SelectKeyESI_SK_E12resize_deltaEjj
jgj:_GUILayoutEntry__ctor_m2229197035
uBa:__ZN15dense_hashtableINSt3__24pairIKN9ShaderLab7Program23ShaderKeywordSetAndHashEPKNS2_10SubProgramEEES4_NS3_24ShaderKeywordHashFunctorEN14dense_hash_mapIS4_S8_SA_NS0_8equal_toIS4_EE13stl_allocatorIS9_L18MemLabelIdentifier67ELi16EEE9SelectKeyESD_SG_E15insert_noresizeERKS9_
Ipc:__ZNK13MonoBehaviour13GetScriptTypeEv
pJa:__ZN13RenderTexture12SetDimensionE16TextureDimension
Xzf:_SslClientStream_set_ClientCertSelectionDelegate_m1261530976
Voa:__ZN9Scripting11UnityEngine16GradientColorKey9InitProxyEv
ie:_SDL_FreeRW
wed:__Z34CanvasRenderer_Get_Custom_PropCullP12Il2CppObject
PR:__ZN20SoundChannelInstance8getDelayE14FMOD_DELAYTYPEPjS1_
LBa:__ZNSt3__26vectorIN20GpuProgramParameters15StructParameterENS_9allocatorIS2_EEEC2ERKS5_
ABf:_ArrayReadOnlyList_1_Contains_m232667507_gshared
kli:__Z77RuntimeInvoker_Boolean_t97287965_IntPtr_t_Int32_t2950945753_SByte_t1669577662PFvvEPK10MethodInfoPvPS4_
t2e:_PlayableHandle_GetPlayableType_m432385838_AdjustorThunk
FXc:__ZNSt3__26vectorIN20TextRenderingPrivate8FontImpl13CharacterInfoE13stl_allocatorIS3_L18MemLabelIdentifier1ELi16EEE8__appendEj
v:tempBigInt
kFi:_Array_InternalArray__Insert_TisKeyframe_t4206410242_m1558638568_gshared
qe:_emscripten_glVertexAttrib1fv
mfc:__ZNSt3__26vectorIN9ShaderLab20SerializedSubProgram12UAVParameterENS_9allocatorIS3_EEE7reserveEj
tqk:__ZSt11__terminatePFvvE
oO:__ZN12AudioManager14systemCallbackEP11FMOD_SYSTEM24FMOD_SYSTEM_CALLBACKTYPEPvS3_
b6h:_Nullable_1_Equals_m4046255732_gshared
M0h:_ReadOnlyCollection_1_System_Collections_Generic_ICollectionU3CTU3E_Clear_m3451551308_gshared
zyd:_BaseMeshEffect_OnEnable_m3291426649
uHa:__ZN16ReflectionProbes16UpdateSampleDataEv
pJe:_TrackingServices_NotifyUnmarshaledObject_m2784831802
Nvg:_ReadOnlyArrayListWrapper_Sort_m2577012511
Nka:__ZL46__ManagedRegistrationHelperFunction_UnityEventPv
QBg:_CultureInfo_GetCultureInfo_m56098747
p5b:__Z20AddActiveLocalLightsR11CullResultsR27LocalLightCullingParametersPPK15SharedLightDataPK8Vector4fRK9IndexListPfRSA_R12ActiveLightsSG_P5RectTIfEP13TargetEyeMask
Cs:__ZL53__ManagedRegistrationHelperFunction_AnimatorStateInfoPv
p$g:_Convert_ToDecimal_m1284148187
zUh:_Collection_1__ctor_m3489157029_gshared
fka:__ZL52__ManagedRegistrationHelperFunction_AndroidJNIHelperPv
j$c:_cf2_getNormalizedVector
Ne:_JS_Sound_Play
J1h:_ReadOnlyCollection_1_System_Collections_IList_set_Item_m1538987737_gshared
zNf:_DefaultComparer_Compare_m1920986590_gshared
S4e:_RectOffset_t1369453676_marshal_pinvoke_back
QFd:_GridLayoutGroup_set_constraint_m3308895167
CUd:_ConstructionCallDictionary_SetMethodProperty_m3145285304
l1a:__ZN11TimeManagerD2Ev
tCf:_InternalEnumerator_1_System_Collections_IEnumerator_get_Current_m1503522504_gshared
nE:__ZN7mecanim8skeleton13SkeletonAlignEPKNS0_8SkeletonERKN4math7_float4ES7_i
fxc:__ZN19ShaderPropertySheet16SetVectorIndexedEN9ShaderLab16FastPropertyNameEifRK8Vector4fNS_8SetFlagsE
Yqh:_Type_get_IsAbstract_m1120089130
eaf:_Vector3_get_normalized_m2454957984_AdjustorThunk
_ej:_UriFormatException__ctor_m1115096473
WYj:__ZN15dense_hashtableINSt3__24pairIK10KeyWrapperINS1_IP11Il2CppClassjEEES4_EES6_N6il2cpp8metadata14ArrayClassHashEN14dense_hash_mapIS6_S4_SB_NS6_14EqualsComparerINSA_17ArrayClassCompareEEENS0_9allocatorIS8_EEE9SelectKeyESF_SH_E9copy_fromERKSK_j
Thj:_GUIUtility_IsExitGUIException_m3644066650
J$:__ZN11UnityEngine15CloudWebService14DataDispatcher4StopEv
wFg:_Int16_System_IConvertible_ToUInt64_m134975563
ofc:__ZNSt3__26vectorIN9ShaderLab20SerializedSubProgram12UAVParameterENS_9allocatorIS3_EEE8__appendEj
hJc:__ZN5IMGUI9GUIWindow5OnGUIER8GUIState
tTg:_Single_System_IConvertible_ToDecimal_m325860800_AdjustorThunk
Shh:_Array_InternalArray__ICollection_CopyTo_TisSingle_t1397266774_m455540885_gshared
Nja:__ZN17ScriptingGCHandle7AcquireE18ScriptingObjectPtr25ScriptingGCHandleWeakness
zni:__Z74RuntimeInvoker_RuntimeObject_RuntimeObject_Int64_t3736567304_RuntimeObjectPFvvEPK10MethodInfoPvPS4_
isk:dynCall_iifiii
WOa:__Z21HasAlphaTextureFormat13TextureFormat
lW:__ZN12AudioManager6UpdateEv
QOa:__ZN14ImageReference9BlitImageERKS_NS_8BlitModeE
cv:__ZN8Animator12AddToManagerEv
$gg:_X509Chain__ctor_m2674663382
w0:__GLOBAL__sub_I_Runtime_Core_Callbacks_0_cpp
N0h:_ReadOnlyCollection_1_System_Collections_Generic_IListU3CTU3E_Insert_m1121807192_gshared
OFb:__ZN23CachedSerializationDataD2Ev
A7b:__ZNK25CameraStackRenderingState31CalculateStereoCameraTargetTypeEv
UGa:__ZN14RenderSettings23VirtualRedirectTransferER14SafeBinaryRead
WKf:_InternalEnumerator_1_get_Current_m114240259_gshared
oak:__ZN6il2cpp2os10ThreadImpl15CurrentThreadIdEv
LPg:_SymmetricAlgorithm_get_Key_m3241860519
zef:_U3CMouseDragOutsideRectU3Ec__Iterator1_Reset_m2233410497
q0:__GLOBAL__sub_I_Runtime_Camera_5_cpp
w7c:_UNITY_tt_face_load_fpgm
Twa:__Z17IsObjectAvailablei
C1a:__ZN12InputManagerD0Ev
Inh:_ExecutionContext_Capture_m681135907
BDf:_InternalEnumerator_1_System_Collections_IEnumerator_get_Current_m2889979481_AdjustorThunk
npk:_posix_memalign
YPh:_ASN1_GetBytes_m3305539297
K7:__ZNK15MonoScriptCache7ReleaseEv
CBj:__ZN6il2cpp2vm5Class13HasReferencesEP11Il2CppClass
ag:_glBindTexture
Dnk:_snprintf
zui:__Z50RuntimeInvoker_RuntimeObject_Resources_t1597885468PFvvEPK10MethodInfoPvPS4_
yxk:_emscripten_glVertexAttrib1fv__wrapper
Gwc:__ZN16LevelGameManagerC2E10MemLabelId18ObjectCreationMode
gnj:_AudioExtensionManager_RemoveExtensionFromManager_m442924172
T$e:_MonoBehaviour_Internal_IsInvokingAll_m2820042090
Xvk:_emscripten_glGetProgramInfoLog__wrapper
Vt:__ZN25AnimatedPropertyEvaluator29BindCurveToScriptingObjectPtrERKN13AnimationClip10FloatCurveEj18ScriptingObjectPtrb
uRg:_String_Equals_m1744302937
pWe:_Display__ctor_m501911701
iZh:_ReadOnlyCollection_1_System_Collections_Generic_IListU3CTU3E_Insert_m1020890112_gshared
Zxg:_Hashtable__cctor_m4112166779
MBd:_DefaultControls_SetDefaultTextValues_m1943359795
X$b:__Z19SetupMotionMatricesR6CameraR18RPDataMotionVector
Jyj:__ZL7log2_64y
OF:__ZN26AnimatorControllerPlayable18PrepareForPlaybackERN7mecanim6memory9AllocatorE
aG:__ZN8Animator11AnimatorJob11AddPlayableEP17AnimationPlayablef
LFd:_GridLayoutGroup_get_cellSize_m2967185053
Q2g:_CurrentSystemTimeZone_GetUtcOffset_m340358963
i5i:_PKCS12_Decrypt_m1280162536
KDf:_InternalEnumerator_1_get_Current_m3081223448_gshared
wfj:_Event_get_isMouse_m1058251071
eEa:__ZN10VertexDataC2ERKS_17ShaderChannelMask10MemLabelId
Wwg:_CaseInsensitiveHashCodeProvider_AreEqual_m1790260777
k2c:_otv_JSTF_validate
OBa:__ZN22CreateGpuProgramOutputC2Ev
yXe:_PersistentCallGroup_Initialize_m4253175514
lrg:_Boolean_System_IConvertible_ToChar_m4279513009_AdjustorThunk
Sxg:_Hashtable__ctor_m1763145853
PUd:_LogicalCallContext__ctor_m1263247987
g1f:_NumberFormatter_ScaleOrder_m3813786990
NDh:_EqualityComparer_1_System_Collections_IEqualityComparer_GetHashCode_m2027961449_gshared
Zjg:_Interval_get_Size_m4163671410_AdjustorThunk
Ttc:__ZN8GUILayer12CleanupClassEv
Gth:_UInt32_System_IConvertible_ToSByte_m1061556466
YKe:_WellKnownClientTypeEntry__ctor_m2471908952
BBj:__ZN6il2cpp2vm5Class4InitEP11Il2CppClass
ga:invoke_vidi
w2f:_NumberFormatter_FormatRoundtrip_m19342689
CKe:_RemotingServices_CreateClientProxyForContextBound_m783705199
mBc:__ZNK15GUIEventManager15GetEventAtIndexEi
tgd:__ZN2UI14CanvasRenderer17SyncDirtyElementsER8JobFence
NPf:_Enumerator_System_Collections_IEnumerator_get_Current_m3816090481_gshared
jck:__ZN6il2cpp5utils11StringUtils15StringDuplicateEPKc
yBh:_DefaultComparer_Equals_m2480133610_gshared
eBa:__ZNK9ShaderLab21ShaderRasterStateDesc16ToGfxRasterStateEPK19ShaderPropertySheetS3_R14GfxRasterState
xIi:_Array_Sort_TisVector3_t3722313464_m1915176437_gshared
Jlk:__ZN6il2cpp2os9EventImplC2Ebb
DRi:_List_1_get_Item_m2113769949_gshared
Z3:__Z20IsMatrixBuiltinParamPKcPi
cRg:_String_memcpy4_m979367827
Mlh:_UnicodeEncoding_GetBytesInternal_m1902824297
Jwc:__ZN8Renderer19PostInitializeClassEv
teh:_Array_FindIndex_TisRuntimeObject_m2504082708_gshared
pgd:__ZNSt3__26__treeINS_12__value_typeINS_4pairIKiS3_EEN2UI14DepthSortLayerEEENS_19__map_value_compareIS4_S7_NS_4lessIS4_EELb1EEE13stl_allocatorIS7_L18MemLabelIdentifier1ELi16EEE25__emplace_unique_key_argsIS4_JRKNS_21piecewise_construct_tENS_5tupleIJOS4_EEENSK_IJEEEEEENS2_INS_15__tree_iteratorIS7_PNS_11__tree_nodeIS7_PvEEiEEbEERKT_DpOT0_
$6i:_X509Chain_FindCertificateRoot_m1937726457
EMg:_StreamAsyncResult_get_AsyncWaitHandle_m3390046559
gkd:__ZN11UnityEngine15PlatformWrapper21GetVRPlayAreaGeometryER13dynamic_arrayI8Vector3fLj0EE
Xhk:__ZN6il2cpp6icalls8mscorlib6System8Delegate23CreateDelegate_internalEP20Il2CppReflectionTypeP12Il2CppObjectP22Il2CppReflectionMethodb
OQf:_Enumerator_System_Collections_IEnumerator_get_Current_m921113401_AdjustorThunk
fFb:__ZN18DelayedCallManager18CancelCallDelayed2E4PPtrI6ObjectEPF15CallObjectStatePS1_PvES7_
Wua:__ZN25ThreadsafeLinearAllocator10ReallocateEPvji
Eob:__Z18Transfer_BlittableI14SafeBinaryReadLb1E11QuaternionfEvRK29SerializationCommandArgumentsR31RuntimeSerializationCommandInfo
$ga:__ZN18SpriteAtlasManagerD0Ev
vx:__ZN7mecanim9animation10SampleClipERKNS0_12ConstantClipEjPf
mXa:__ZN10Matrix4x4f8TransferI14SafeBinaryReadEEvRT_
DPe:_CryptographicUnexpectedOperationException__ctor_m2381988196
hTj:__ZN14dense_hash_mapI10KeyWrapperIPK22Il2CppGenericParameterEPK24MonoGenericParameterInfoN6il2cpp5utils11PointerHashIS2_EENS4_14EqualsComparerINSt3__28equal_toIS3_EEEENSD_9allocatorINSD_4pairIKS4_S7_EEEEE15set_deleted_keyERSJ_
LF:__ZN14AvatarPlayback8StopTimeEv
nGf:_InternalEnumerator_1_System_Collections_IEnumerator_get_Current_m4213507601_gshared
oba:__Z6AppendRKN4core12basic_stringIcNS_20StringStorageDefaultIcEEEEPKc
J5j:__ZN6il2cpp2vm6Object12NullableInitEPhP12Il2CppObjectP11Il2CppClass
_ma:__ZN9Scripting11UnityEngine16TrackedReference12CleanupProxyEv
r_c:__ZN20TextRenderingPrivate19NativeTextGeneratorC2ERK11UTF16StringPNS_8FontImplE11ColorRGBA32ifRK8Vector2fbifiibffbbP13dynamic_arrayIN2UI8UIVertexELj0EE
Lhj:_GUIUtility_RemoveCapture_m1294193818
fOb:__ZN7ApiGLES18ClearBufferSubDataEjN2gl12BufferTargetEll
Goc:__Z37Camera_Get_Custom_PropAllCamerasCountv
ZPa:__ZN14Texture2DArray8TransferI18StreamedBinaryReadILb0EEEEvRT_
WJc:__Z38Register_UnityEngine_GUIStyle_get_namev
_8c:_Split_Cubic
$a:invoke_fiiii
Ydf:_InputField_OnSubmit_m3583210804
kej:_Uri_CheckHostName_m2213216182
vxk:_emscripten_glBindRenderbuffer__wrapper
dKi:_Mesh_SetUvsImpl_TisVector2_t2156229523_m3009194955_gshared
Cvh:_ValueType_InternalEquals_m1384040357
zIi:_Array_Sort_TisVector4_t3319028937_TisVector4_t3319028937_m4254533673_gshared
fvg:_ArrayListWrapper_Contains_m2641184447
L8c:_ft_black_render
Hki:__Z177RuntimeInvoker_Int32_t2950945753_RuntimeObject_Int32_t2950945753_Int32_t2950945753_RuntimeObject_Int32_t2950945753_EncoderFallbackBufferU26_t2343550713_CharU5BU5DU26_t3299466565PFvvEPK10MethodInfoPvPS4_
utk:dynCall_viiifi
UQb:__ZN18GfxFramebufferGLES20ActiveContextChangedEPP17RenderSurfaceBaseS2_
mlb:__Z19PluginsRenderMarkeri
OI:__ZN10HumanTrait18InitializeBoneNameEv
vfc:__ZNSt3__26vectorIN9ShaderLab20SerializedSubProgram15StructParameterENS_9allocatorIS3_EEE6assignINS_11__wrap_iterIPS3_EEEENS_9enable_ifIXaasr21__is_forward_iteratorIT_EE5valuesr16is_constructibleIS3_NS_15iterator_traitsISC_E9referenceEEE5valueEvE4typeESC_SC_
g4j:__ZNSt3__214__split_bufferIN6il2cpp2vm5Image20EmbeddedResourceDataERNS_9allocatorIS4_EEEC2EjjS7_
wse:__ZL66SkeletonBone_t4134054672_CustomAttributesCacheGenerator_parentNameP21CustomAttributesCache
nid:__Z69Register_UnityEngine_Analytics_UnityAnalyticsHandler_Internal_Destroyv
jgg:_X509Certificate2Collection_Add_m3151757943
YWc:__ZN9Scripting11UnityEngine13CharacterInfo9InitProxyEv
_wg:_CaseInsensitiveHashCodeProvider_get_DefaultInvariant_m4264275163
Zki:__Z195RuntimeInvoker_Int32_t2950945753_RuntimeObject_Int32_t2950945753_Int32_t2950945753_Int32_t2950945753_RuntimeObject_DecoderFallbackBufferU26_t3866396827_ByteU5BU5DU26_t4057885439_SByte_t1669577662PFvvEPK10MethodInfoPvPS4_
mX:__ZN5physx14PxLightCpuTask12addReferenceEv
zDa:__ZNK15InstancingProps35FillInstanceBufferDispatchConstantsIN10Instancing14RenderLoopArgsEEEvPPvjjRK19ShaderPropertySheetRKT_
Ayi:__Z86RuntimeInvoker_Int32_t2950945753_Color32_t2600501292_Color32_t2600501292_RuntimeObjectPFvvEPK10MethodInfoPvPS4_
AWa:__ZN21EnlightenSceneMapping8TransferI19StreamedBinaryWriteILb0EEEEvRT_
C6j:__ZN6il2cpp2gc16GarbageCollector19InitializeFinalizerEv
YA:__ZN7mecanim8skeleton18CreateSkeletonMaskEjPKNS0_19SkeletonMaskElementERNS_6memory9AllocatorE
GKc:__ZN10GUIManager10DoGUIEventER10InputEventb
xub:__Z35Transfer_Blittable_FixedBufferFieldI24GenerateTypeTreeTransferxEvRK29SerializationCommandArgumentsR31RuntimeSerializationCommandInfo
_2c:_otv_LangSys_validate
$4e:_RectOffset_get_right_m2294081512
_qj:__ZL25UnresolvedVirtualCall_154P12Il2CppObjectfPK10MethodInfo
IFi:_Array_InternalArray__set_Item_TisLink_t544317964_m1234244240_gshared
C7c:_UNITY_TT_Init_Glyph_Loading
xNe:_SerializationInfo_GetBoolean_m1756153320
dQ:__Z32AudioMixerDuckingProcessCallbackP21UnityAudioEffectStatePfS1_jii
u$e:_Mesh_get_uv2_m3615020997
Hvc:__ZN26CustomRenderTextureManagerD2Ev
mrc:__Z32Input_Get_Custom_PropInputStringv
tCh:_EqualityComparer_1_System_Collections_IEqualityComparer_Equals_m4172006498_gshared
eM:__ZN12AudioManager8TransferI24GenerateTypeTreeTransferEEvRT_
A_e:_Mathf_Round_m4098141538
sIa:__Z25GetBytesFromTextureFormat13TextureFormat
h$j:__ZN6il2cpp6icalls8mscorlib6System9Threading6Thread20Thread_free_internalEP12Il2CppThreadi
SIb:__ZNK11PreloadData18GetInstanceIDArrayER13dynamic_arrayIiLj0EE
$we:__ZL64UnityAnalyticsHandler_t3011359618_CustomAttributesCacheGeneratorP21CustomAttributesCache
Yag:__KeysEnumerator_get_Current_m2996478063
H8:__Z32scripting_class_get_assemblyname17ScriptingClassPtr
ckd:__ZN11UnityEngine15PlatformWrapper15GetVRDeviceNameEv
lui:__Z99RuntimeInvoker_Boolean_t97287965_Int32_t2950945753_PointerEventDataU26_t867828220_SByte_t1669577662PFvvEPK10MethodInfoPvPS4_
VEf:_InternalEnumerator_1_get_Current_m2128158355_AdjustorThunk
Iib:__ZN9GfxDevice21RegisterNativeTextureE9TextureIDi16TextureDimension
vEd:_GraphicRegistry__ctor_m1851575309
eAi:__Z52RuntimeInvoker_Void_t1185182177_Keyframe_t4206410242PFvvEPK10MethodInfoPvPS4_
Zik:__ZN6il2cpp6icalls8mscorlib6System10Reflection4Emit11TypeBuilder20create_generic_classEP27Il2CppReflectionTypeBuilder
dRb:__ZNK16UniformCacheGLES6SubmitEjRK13dynamic_arrayIN20GpuProgramParameters14ValueParameterELj0EERKS0_IiLj0EE
fch:_PlayableHandle_IsPlayableOfType_TisAnimationLayerMixerPlayable_t3631223897_m201603007_gshared
IU:__Z60Register_UnityEngine_AudioListener_GetNumExtensionPropertiesv
Vi:_emscripten_glUniformMatrix4fv
jZj:__ZN15dense_hashtableINSt3__24pairIK10KeyWrapperINS1_IP11Il2CppClassjEEES4_EES6_N6il2cpp8metadata14ArrayClassHashEN14dense_hash_mapIS6_S4_SB_NS6_14EqualsComparerINSA_17ArrayClassCompareEEENS0_9allocatorIS8_EEE9SelectKeyESF_SH_E13set_empty_keyERKS8_
o9a:__ZN12ScriptMapperD2Ev
GBk:b100
x$e:_Mesh_get_colors32_m1253190811
jfk:_GC_stopped_mark
yrd:__ZL59__ManagedRegistrationHelperFunction_SubsystemDescriptorBasePv
qSe:_AnimationCurve_Finalize_m2397002729
vof:_Text_OnEnable_m616205807
DEi:__Z50RuntimeInvoker_RuntimeObject_ColorTween_t809614380PFvvEPK10MethodInfoPvPS4_
Mdf:_InputField_OnFillVBO_m3649106646
cNe:_SerializationCallbacks__cctor_m1674315180
fHj:__ZNK15dense_hashtableI10KeyWrapperIPK19Il2CppGenericMethodES4_N6il2cpp8metadata23Il2CppGenericMethodHashEN14dense_hash_setIS4_S7_NS4_14EqualsComparerINS6_26Il2CppGenericMethodCompareEEENSt3__29allocatorIS4_EEE8IdentityESB_SE_E23find_position_with_hashERKS4_j
GAa:__ZNSt3__26vectorIN12FlareManager10FlareEntryENS_9allocatorIS2_EEE21__push_back_slow_pathIS2_EEvOT_
jic:__ZN9ShaderLab20SerializedSubProgram16TextureParameter8TransferI19StreamedBinaryWriteILb0EEEEvRT_
Yta:__ZNK7Hash12812PackToUInt32Ev
gwg:_SynchronizedArrayListWrapper_IndexOf_m3642674350
R$:__ZN11UnityEngine15CloudWebService16SessionContainer8AddEventEPNS0_14CloudEventInfoE
Nmb:__Z4TrimRKN4core12basic_stringIcNS_20StringStorageDefaultIcEEEES5_
tJi:_Dictionary_2_Do_ICollectionCopyTo_TisKeyValuePair_2_t3842366416_m1399105608_gshared
vfg:_X509Certificate2_Import_m4026562329
RRf:_Enumerator_System_Collections_IEnumerator_get_Current_m2763095718_AdjustorThunk
Eyk:_glGetStringi__wrapper
iXa:__ZN10VertexData8TransferI14SafeBinaryReadEEvRT_
wga:__ZN13RuntimeStaticI12AdsIdHandlerLb0EE16StaticInitializeEPv
Zgk:_GC_malloc_atomic
oQd:_ActivatedClientTypeEntry_ToString_m2494181680
sGh:_HashSet_1_GetEnumerator_m3346268098_gshared
Mjk:__ZN6il2cpp5utils6Memory13AlignedMallocEjj
cef:_Selectable_get_animator_m2899312855
K6:__ZL20SortItemByInstanceIDRKN18AwakeFromLoadQueue4ItemES2_
N9e:_Vector2_op_Multiply_m2347887432
obg:_TypeConverterAttribute__ctor_m1774069684
hB:__ZNK34AnimationStateMachineMixerPlayable26GetInterruptedPosePlayableEv
Wmd:__ZN20UnityConnectSettings8TransferI24GenerateTypeTreeTransferEEvRT_
QD:__ZN34BlobWriteTransferSTLStyleArrayImplI22OffsetPtrArrayTransferIbEEclERS1_17TransferMetaFlagsR9BlobWrite
bvc:__ZZN12MeshRenderer15InitializeClassEvEN29FunctorImpl_205kDidDeleteMesh4CallEPviR11MessageData
lmg:_Byte_ToString_m4063101981
L$f:_MonoType_GetConstructors_m2574682189
ecg:_ServicePointManager_FindServicePoint_m4119451290
Hda:__ZL31InitializeRendererUpdateManagerPv
cNd:_ParameterInfo__ctor_m2779026345
Xbf:_InputField_set_onValueChange_m1251390545
Gma:__ZN9Scripting11UnityEngine18WaitForFixedUpdate12CleanupProxyEv
Vcd:__ZN2UI13CanvasManager14GetRenderOrderEPKNS_6CanvasE
D1f:_NumberFormatter_get_IsZeroInteger_m2263284741
y3i:_X509Certificate_PEM_m2020851166
GEi:_Array_InternalArray__Insert_TisDateTime_t3738529785_m2308632330_gshared
A1a:__ZN11TimeManager8TransferI19StreamedBinaryWriteILb0EEEEvRT_
Zxf:_TlsServerCertificateRequest_ProcessAsTls1_m3214041063
u3c:_compare_uni_maps
Ukd:__ZN11UnityEngine15PlatformWrapper27GetGraphicsCapsSupportFlagsEv
uJi:_Dictionary_2_Do_ICollectionCopyTo_TisRuntimeObject_m3695543300_gshared
dyb:__ZN12NativeBufferI16Converter_StringE15SetupForWritingER9ArrayInfo
APh:_SequentialSearchPrimeGeneratorBase_GenerateSearchBase_m3595783982
$J:__ZN13RuntimeStaticI18AssetBundleManagerLb1EE16StaticInitializeEPv
Yuk:___cxa_end_catch__wrapper
Pqd:__GLOBAL__sub_I_artifacts_WebGL_codegenerator_0_cpp_7406
Xtg:_Char_ToString_m278452217
vYh:_ReadOnlyCollection_1_System_Collections_IList_set_Item_m4047645019_gshared
Brd:__ZL50__ManagedRegistrationHelperFunction_ReferencePointPv
Spf:_BigInteger_op_RightShift_m460065452
S$j:__ZN6il2cpp6icalls8mscorlib6System5Array13ClearInternalEP11Il2CppArrayii
rif:_RectMask2D_get_rootCanvasRect_m2913509457
z9c:__Z38TextGenerator_Get_Custom_PropLineCountP12Il2CppObject
J2i:_InternalAsyncResult_SetComplete_m963842420
fkh:_Encoding_GetEncoding_m2801244948
eLc:__ZN11IMGUIModule25GetGUIStyleScriptingClassEv
U5c:_tt_get_interface
N2i:_SslStreamBase_EndRead_m495357226
U_j:__ZN6il2cpp5utils9PathUtils7CombineIcEENSt3__212basic_stringIT_NS3_11char_traitsIS5_EENS3_9allocatorIS5_EEEERKSA_SC_
rni:__Z64RuntimeInvoker_RuntimeObject_SByte_t1669577662_SByte_t1669577662PFvvEPK10MethodInfoPvPS4_
Qzc:__ZN13PlayableGraph21InvalidateMultithreadEv
lhj:_GUIScrollGroup_CalcHeight_m3173593443
$6f:_EnumBuilder_GetConstructorImpl_m3068576149
K5:__Z18ConvertUTF16toUTF8PPKtS0_PPhS2_15ConversionFlags
Tak:__ZN6il2cpp2os20PathErrnoToErrorCodeERKNSt3__212basic_stringIcNS1_11char_traitsIcEENS1_9allocatorIcEEEEi
zBe:__ZL68InputField_t3762917431_CustomAttributesCacheGenerator_m_KeyboardTypeP21CustomAttributesCache
bCc:__Z24GetActualTargetFrameRatev
wyj:__ZL16my_g_bit_nth_msfj
vPg:_SHA512Managed_Sigma1_m922902398
pXi:_Enumerator_MoveNext_m3662315381_AdjustorThunk
Hxf:_TlsClientFinished_ProcessAsTls1_m2429863130
_Yb:__Z23SetupStereoFlareElementP11FlareVertexRK8Vector2fS3_S3_RK11ColorRGBA32RK10Matrix4x4fRK8Vector3fb
PBj:__ZN6il2cpp2vm5Class15GetInstanceSizeEPK11Il2CppClass
sa:invoke_iiiifiiii
YPf:_Enumerator_System_Collections_IDictionaryEnumerator_get_Key_m2502357460_AdjustorThunk
IDb:__ZNSt3__224__buffered_inplace_mergeIRN10vector_mapI17ScriptingClassPtrPKN5Unity4TypeENS_4lessIS2_EENS_9allocatorINS_4pairIS2_S6_EEEEE13value_compareENS_11__wrap_iterIPSB_EEEEvT0_SJ_SJ_T_NS_15iterator_traitsISJ_E15difference_typeESN_PNSM_10value_typeE
J9e:_Vector2_Equals_m832062989_AdjustorThunk
wTf:_ShimEnumerator_MoveNext_m2406150314_gshared
xRb:__ZL19BlitFramebufferImplRN4gles23BlitFramebufferDrawQuadER9GfxDevice9TextureIDRK8Vector4f
bPj:__ZN15dense_hashtableINSt3__24pairIK10KeyWrapperIPK10Il2CppTypeEjEES6_N6il2cpp8metadata14Il2CppTypeHashEN14dense_hash_mapIS6_jSB_NS6_14EqualsComparerINSA_26Il2CppTypeEqualityComparerEEENS0_9allocatorIS8_EEE9SelectKeyESF_SH_E4findERS7_
gsk:dynCall_viiiiiiiiiiiiii
vZc:_UNITY_FT_List_Add
fwc:__ZN14Texture2DArray11InitTextureEiii13TextureFormatb
u4i:_X509Extension__ctor_m1474351312
C8h:_InvokableCall_1_Invoke_m1524307439_gshared
jJg:_Directory_CreateDirectoriesInternal_m3735342319
eFc:__Z41Camera_CUSTOM_WorldToScreenPoint_InjectedP12Il2CppObjectRK8Vector3fRS1_
mgf:_LayoutUtility_GetLayoutProperty_m3731360667
YTj:__ZN15dense_hashtableINSt3__24pairIK10KeyWrapperINS1_IPK11Il2CppImageP11Il2CppClassEEEjEES9_17ReflectionMapHashIS8_EN14dense_hash_mapIS9_jSD_NS9_14EqualsComparerINS0_8equal_toIS8_EEEENS0_9allocatorISB_EEE9SelectKeyESI_SK_E14squash_deletedEv
APg:_SHAConstants__cctor_m1699027474
t1b:__ZNK6Camera26GetStereoSingleCullEnabledEv
r4a:__Z14resize_trimmedINSt3__26vectorIN4core12basic_stringIcNS2_20StringStorageDefaultIcEEEE13stl_allocatorIS6_L18MemLabelIdentifier13ELi16EEEEEvRT_j
k0:__GLOBAL__sub_I_Runtime_2D_SpriteAtlas_0_cpp
mpb:__Z18Transfer_BlittableI14SafeBinaryReadLb0EaEvRK29SerializationCommandArgumentsR31RuntimeSerializationCommandInfo
$tg:_CharEnumerator_System_Collections_IEnumerator_get_Current_m1328529384
ZUa:__ZN4core8hash_setINS_4pairIKiiLb0EEENS_9hash_pairINS_4hashIiEES2_iEENS_10equal_pairINSt3__28equal_toIiEES2_iEEE6insertERKS3_
Pwj:_AnimationLayerMixerPlayable__ctor_m860721801
M7c:_UNITY_FT_List_Iterate
utg:_Char_System_IConvertible_ToUInt64_m3536560782
PBh:_EqualityComparer_1__cctor_m3452395357_gshared
yXb:__Z20SyncFenceCullResultsR11CullResults
dTb:__ZN15TextureTFMethod20IsBoneCountSupportedEi
x8g:_Double_ToString_m3828879243_AdjustorThunk
Itb:__Z22TransferField_NonArrayI17RemapPPtrTransfer27Converter_SimpleNativeClassI8GUIStyleEEvRK23StaticTransferFieldInfoR31RuntimeSerializationCommandInfoRT0_
bZf:_TextReader_Synchronized_m3004980758
Xpd:__ZNK20UnityWebRequestProtoI24UnityWebRequestTransport16AtomicRefCounter14RedirectHelper14ResponseHelper15DownloadHandler13UploadHandler18CertificateHandler12HeaderHelper14AsyncOperationE16GetUploadedBytesEv
Pqc:__ZNK17AnimationCurveTplIfE20EvaluateWithoutCacheEfRf
tri:__Z67RuntimeInvoker_Boolean_t97287965_Rect_t2360479859_SByte_t1669577662PFvvEPK10MethodInfoPvPS4_
XBa:__ZN19ShaderPropertySheet10SetTextureERK23FastTexturePropertyNameP7Texture
N4f:_CustomAttributeData__ctor_m2966233049
Dzd:_CanvasUpdateRegistry_PerformUpdate_m1793997159
Zwf:_Context_set_ClientWriteIV_m3405909624
OAc:__ZN4Mesh10SetNormalsEPK8Vector3fj
Kij:_AesManaged_CreateDecryptor_m692040246
ack:__ZNSt3__212basic_stringIDsNS_11char_traitsIDsEENS_9allocatorIDsEEE9__grow_byEjjjjjj
GH:__ZN17AnimationCurveTplIfE8TransferI14SafeBinaryReadEEvRT_
OFi:_Array_InternalArray__set_Item_TisInt16_t2552820387_m2544074754_gshared
xog:_ArithmeticException__ctor_m3551809662
TR:__ZNK11AudioSource9IsPlayingEv
GTa:__ZNSt3__26vectorIN15QualitySettings14QualitySettingENS_9allocatorIS2_EEE6assignIPS2_EENS_9enable_ifIXaasr21__is_forward_iteratorIT_EE5valuesr16is_constructibleIS2_NS_15iterator_traitsIS9_E9referenceEEE5valueEvE4typeES9_S9_
rCh:_EqualityComparer_1__cctor_m3995042002_gshared
HLh:_List_1_CheckCollection_m1671972112_gshared
ivf:_CipherSuiteFactory_GetSsl3SupportedCiphers_m3757358569
Ylh:_UnicodeEncoding_GetPreamble_m3002287178
UVc:__GLOBAL__sub_I_artifacts_WebGL_codegenerator_0_cpp_5476
Omj:_AudioSource_get_spatialize_m3609701298
HDe:__ZL56Toggle_t2735377061_CustomAttributesCacheGenerator_m_IsOnP21CustomAttributesCache
tmb:__ZN20GpuProgramParameters14AddVectorParamEPKcii15ShaderParamTypeiiiP16PropertyNamesSet
Wod:__ZN9Scripting19UnityEngineInternal15WebRequestUtils12CleanupProxyEv
rpd:__ZNK12HeaderHelper3GetERKN4core12basic_stringIcNS0_20StringStorageDefaultIcEEEE
T1a:__ZN9InputAxis8TransferI14SafeBinaryReadEEvRT_
Z6:__ZNK21ExecutionOrderManager30GetCustomAwakeFromLoadQueueForEPKN5Unity4TypeE
qod:__Z27RegisterModule_UnityConnectv
Ysc:__ZZL31RegisterRectTransformPropertiesR22GenericPropertyBindingEN32Wrapper_RectTransformSizeDeltax013GetFloatValueEPv
HLg:_MemoryStream_Expand_m3554752073
tSj:__ZN6il2cpp2vm10Reflection27GetCustomAttributesCacheForEP25Il2CppReflectionParameter
D6e:_ScriptableObject_CreateInstance_m2611081756
gLe:_ObjectRecord_get_IsInstanceReady_m2304516395
VKf:_InternalEnumerator_1_System_Collections_IEnumerator_get_Current_m1635397542_gshared
mMg:_Path__cctor_m3273994011
kjj:_AnalyticsEventTracker__ctor_m3064238498
zqk:__ZNSt11logic_errorD2Ev
u3g:_DateTimeUtils_CountRepeat_m3396693018
mLj:_WeakReference_get_Target_m168713953
Kwk:_glBindRenderbuffer__wrapper
eP:__ZN10ObjectPoolIN4FMOD12ChannelGroupENS0_13ChannelGroupIEE7SetSizeEi
vij:_SymmetricTransform_FinalDecrypt_m764004682
uak:__ZN6il2cpp2os10ThreadImpl33UnregisterCurrentThreadForCleanupEv
XSc:__ZN9Scripting11UnityEngine26ParticleSystemVertexStream9InitProxyEv
FVi:_List_1_System_Collections_IList_get_Item_m1315368445_gshared
fbj:_Parser_ParseGroupingConstruct_m263270497
ood:__ZN11UnityEngine9Analytics22EventLimitReachedEventC2EjyyRKN4core12basic_stringIcNS2_20StringStorageDefaultIcEEEEb
cUj:__ZN14dense_hash_mapI10KeyWrapperINSt3__24pairIPK9EventInfoP11Il2CppClassEEEj17ReflectionMapHashIS8_ENS9_14EqualsComparerINS1_8equal_toIS8_EEEENS1_9allocatorINS2_IKS9_jEEEEE15set_deleted_keyERSH_
_qb:__Z14resize_trimmedINSt3__26vectorI17AnimationCurveTplIfE13stl_allocatorIS3_L18MemLabelIdentifier1ELi16EEEEEvRT_j
ipc:__Z12GUIDToStringRK9UnityGUID
Eaf:_Vector4_op_Division_m264790546
IR:__ZN11SoundHandleC2ERKS_
qv:__ZN17AnimationPlayableC2E18DirectorPlayerType
Zaf:_InputField_set_shouldHideMobileInput_m1650743574
jHj:__ZNK6il2cpp5utils11collections13ArrayValueMapIPK10Il2CppType17Il2CppInteropData26InteropDataToTypeConverterNS_8metadata14Il2CppTypeLessENS8_26Il2CppTypeEqualityComparerEE10find_firstERKS5_
cKg:_FileStream_get_CanSeek_m331583577
wr:__ZNSt3__26__sortIR23DependencySortPredicatePN4core4pairIiP9BehaviourLb0EEEEEvT0_S9_T_
IEc:__Z47Register_UnityEngine_MonoBehaviour_CancelInvokev
GQe:_DSAParameters_t1885824122_marshal_pinvoke_back
RB:__ZN8Animator22OnGraphTopologyChangedEP8Playablei
pPh:_Kernel_MultiplyByDword_m1266935086
Zx:__ZN17AnimationPlayable18DeallocateBindingsEv
Qgi:__Z158RuntimeInvoker_Boolean_t97287965_RuntimeObject_Int32U26_t1369213839_Int32_t2950945753_Int32_t2950945753_RuntimeObject_SByte_t1669577662_ContextU26_t3937453398PFvvEPK10MethodInfoPvPS4_
ZUg:_String_Trim_m3384720403
YGa:__ZN14RenderSettings18TransferDeprecatedI14SafeBinaryReadEEvRT_
eli:__Z93RuntimeInvoker_Single_t1397266774_SingleU26_t1922108698_Single_t1397266774_Single_t1397266774PFvvEPK10MethodInfoPvPS4_
l0j:__ZN6il2cpp2vm9Exception27RaiseNullReferenceExceptionERKNS_5utils10StringViewIDsEEP19Il2CppSequencePoint
lfj:_Event__ctor_m526447123
ooi:__Z88RuntimeInvoker_RuntimeObject_RuntimeObject_RuntimeObject_RuntimeObject_Int32_t2950945753PFvvEPK10MethodInfoPvPS4_
Wrh:_Type_ToString_m3975981286
t2:__ZN12TLSAllocatorI14StackAllocatorE8AllocateEji
boj:_ConsumeSampleFramesNativeFunction_BeginInvoke_m342678987
Y7:__ZN16ScriptingManager18GetMonoScriptCacheEi
gVb:__ZN20ArchiveStorageHeader13GetDataOffsetERKNS_6HeaderE
tbj:_ExpressionAssertion__ctor_m2554412824
ZGh:_Enumerator_System_Collections_IEnumerator_get_Current_m2237476582_gshared
tpb:__Z18Transfer_BlittableI14SafeBinaryReadLb1EyEvRK29SerializationCommandArgumentsR31RuntimeSerializationCommandInfo
nLj:_WeakReference_Finalize_m2841826116
T0f:_NullReferenceException__ctor_m3076065613
kMc:__ZN8JSONRead8TransferIfEEvRT_PKc17TransferMetaFlagsb
Wic:__ZN9ShaderLab7Program22ComputeSupportsShadowsEv
heg:_X509SubjectKeyIdentifierExtension_Decode_m1505409124
cjc:__ZL23AddGpuProgramParametersR20GpuProgramParametersRKNSt3__26vectorIN9ShaderLab20SerializedSubProgram15MatrixParameterENS1_9allocatorIS5_EEEERKNS2_INS4_15VectorParameterENS6_ISB_EEEEiiP16PropertyNamesSet
Oha:__ZN6prcoreL17RemapGenericFloatI18TexFormatARGBFloat17TexFormatRGBAHalfEEvPKNS_9InnerInfoE
hjj:_AnalyticsEventParamListContainer__ctor_m1995104893
CUg:_String_System_IConvertible_ToUInt16_m2888090399
IQ:__ZN11AudioSource21ApplyCachedParametersE12SoundChannel
J3f:_Assembly_InternalGetType_m3065345470
hX:__ZN13Simd4iFactoryIN6detail9FourTupleEEC2Eiiii
IOd:_ResourceSet__ctor_m3356376607
d3d:__ZL56_ParameterInfo_t489405856_CustomAttributesCacheGeneratorP21CustomAttributesCache
aWa:__ZN15SerializeTraitsI33EnlightenTerrainChunksInformationE8TransferI14SafeBinaryReadEEvRS0_RT_
cxc:__ZNK32RendererMaterialAnimationBinding9BindValueER6ObjectRKN11UnityEngine9Animation14GenericBindingERNS3_10BoundCurveE
MVf:_Transform_1_Invoke_m1731820209_gshared
gCj:__ZN6il2cpp2vm5Class11IsInterfaceEPK11Il2CppClass
qPa:__ZL18stbir__support_onef
VTg:_Single_CompareTo_m189772128
ZNc:__Z26Transfer_UnityEngineObjectI9JSONWriteLb0EEvRK29SerializationCommandArgumentsR31RuntimeSerializationCommandInfo
iNf:_DefaultComparer_Compare_m4042058291_gshared
sGd:_Image_set_overrideSprite_m3213596394
YMa:__ZNSt3__26vectorIN4core12basic_stringIcNS1_20StringStorageDefaultIcEEEE13stl_allocatorIS5_L18MemLabelIdentifier1ELi16EEE6assignINS_11__wrap_iterIPS5_EEEENS_9enable_ifIXaasr21__is_forward_iteratorIT_EE5valuesr16is_constructibleIS5_NS_15iterator_traitsISF_E9referenceEEE5valueEvE4typeESF_SF_
mgd:__ZNSt3__27__sort5IRNS_6__lessIN2UI14DepthSortEntryES3_EEPS3_EEjT0_S7_S7_S7_S7_T_
OJg:_FileLoadException_ToString_m2989457882
enj:_AudioListener_ClearExtensionProperties_m3849891634
aZc:_UNITY_FT_DivFix
FKi:_Array_InternalArray__get_Item_TisDecimal_t2948259380_m3511003792_gshared
WK:__ZL45__ManagedRegistrationHelperFunction_AudioClipPv
oRg:_SecurityElement_IsValidAttributeValue_m948345692
rwc:__ZN14Texture2DArrayC2E10MemLabelId18ObjectCreationMode
Ba:invoke_vdd
vn:FUNCTION_TABLE_fiii
Iee:__ZL75g_UnityEngine_SharedInternalsModule_Assembly_CustomAttributesCacheGeneratorP21CustomAttributesCache
pzc:__Z19RegisterModule_Corev
gad:__ZZ29InitializeTextRenderingModulevEN27cleanupAfterLoadRegistrator7ForwardEv
wz:__ZN27AnimationLayerMixerPlayable24ProcessAnimationLayerMixEP33AnimationPlayableEvaluationOutputP35AnimationPlayableEvaluationConstantP32AnimationPlayableEvaluationInputS1_if
Xzg:_CCFixed_FromDateTime_m3894190577
n7b:__Z29PluginsIssueRenderingExtEvent26UnityRenderingExtEventTypePv
egi:__Z116RuntimeInvoker_RuntimeObject_RuntimeObject_Int32_t2950945753_RuntimeObject_RuntimeObject_RuntimeObject_RuntimeObjectPFvvEPK10MethodInfoPvPS4_
rSh:_RSAManaged_ToXmlString_m645792083
NLe:_MessageFormatter_ReadMethodCall_m2327590823
Vvc:__Z14RandomRotationP9Texture2DPhiiii
Qgh:_Array_InternalArray__ICollection_Add_TisUInt16_t2177724958_m3981262878_gshared
d6g:_Decimal_GetBits_m453754410
pGh:_HashSet_1_Contains_m3173358704_gshared
blj:_ToggleEvent__ctor_m834619998
csf:_PKCS1_Encode_v15_m2077073129
Cnb:__ZN10Instancing11DrawAPIArgsC2ERK19ShaderPropertySheetPK8Vector4fS6_S6_i
_4e:_RectOffset_get_left_m1232181034
VZj:__ZNSt3__214__split_bufferIN6il2cpp8metadata18GenericArrayMethodERNS_9allocatorIS3_EEED2Ev
ij:_JS_WebRequest_SetResponseHandler
nAk:_glDeleteProgram__wrapper
CPa:__ZN6prcoreL18BlitFloatToIntegerERK14ImageReferenceRS0_
o5g:_DBNull_System_IConvertible_ToUInt32_m3784627971
awf:_ClientSessionCache_Add_m964342678
m$:__ZN11UnityEngine15CloudWebService14RestDownloader17OnCompleteContentEv
UNj:__ZN15dense_hashtableINSt3__24pairIK10KeyWrapperINS1_IPK14Il2CppAssemblyP11Il2CppClassEEEjEES9_17ReflectionMapHashIS8_EN14dense_hash_mapIS9_jSD_NS9_14EqualsComparerINS0_8equal_toIS8_EEEENS0_9allocatorISB_EEE9SelectKeyESI_SK_E15insert_noresizeERKSB_
Anb:__ZN10Instancing11DrawAPIArgsC2Ev
H8e:_Transform_get_localScale_m129152068
t6g:_DivideByZeroException__ctor_m3496959969
Na:invoke_viffi
zB:__ZN17AnimationPlayable28UpdateInternalStateRecursiveILi1ELb0EEEvPK35AnimationPlayableEvaluationConstant
Q6j:__ZN6il2cpp2gcL10CleanupCCWEPvS1_
Qa:invoke_vifff
$yk:_glGetVertexAttribiv__wrapper
H6h:_Predicate_1_Invoke_m851618236_gshared
GGb:__ZN20LocalFileSystemWebGL6DeleteER13FileEntryDatab
Oe:_emscripten_glDisableVertexAttribArray
Bbh:_Array_InternalArray__ICollection_Remove_TisSingle_t1397266774_m3361324455_gshared
Vm:FUNCTION_TABLE_iiiifiiii
gc:invoke_fifffi
DUh:_Collection_1_System_Collections_IList_Add_m2969482770_gshared
bQh:_BitConverterLE_GetBytes_m4130646282
NPb:__ZN4gles23ClearCurrentFramebufferEP7ApiGLESbbbRK10ColorRGBAffi
Sz:__ZN7mecanim12statemachine20CreateStateWorkspaceEjjjRNS_6memory9AllocatorE
yai:_UnityEvent_1_Invoke_m3604335408_gshared
Ze:_emscripten_glDeleteObjectARB
w7e:_StackTraceUtility__cctor_m1981266436
uSa:__Z14DecompressDXT3iiiPKjPj
Zji:__Z131RuntimeInvoker_Void_t1185182177_RuntimeObject_RuntimeObject_Int64_t3736567304_ObjectU26_t2146539884_SerializationInfoU26_t419328957PFvvEPK10MethodInfoPvPS4_
RQh:_DSAManaged_CreateSignature_m2233977444
Ilg:_PKCS12_RemoveCertificate_m1421555398
fia:__ZN6prcoreL17RemapGenericFloatI17TexFormatRGBAHalf18TexFormatARGBFloatEEvPKNS_9InnerInfoE
hKc:__Z14GetBuiltinSkini
eHe:_MethodDictionary_get_Item_m1201458851
KW:___cxx_global_var_init_13
ZW:___cxx_global_var_init_10
_W:___cxx_global_var_init_11
il:_JS_SystemInfo_GetBrowserVersionString
V9a:__ZN2UI13RectTransform23VirtualRedirectTransferER14SafeBinaryRead
Igc:__ZNSt3__26vectorIN9ShaderLab20SerializedSubProgramENS_9allocatorIS2_EEE6assignIPS2_EENS_9enable_ifIXaasr21__is_forward_iteratorIT_EE5valuesr16is_constructibleIS2_NS_15iterator_traitsIS9_E9referenceEEE5valueEvE4typeES9_S9_
kQc:__Z18Transfer_BlittableI8JSONReadLb0E8BitFieldEvRK29SerializationCommandArgumentsR31RuntimeSerializationCommandInfo
Vtg:_Char_ToString_m3588025615_AdjustorThunk
jGh:_HashSet_1_CopyTo_m2849056227_gshared
xzb:__ZL17Transfer_GUIStyleI18StreamedBinaryReadILb1EELb0EEvRK29SerializationCommandArgumentsR31RuntimeSerializationCommandInfo
LHc:__ZN9Scripting11UnityEngine15ScrollViewState9InitProxyEv
ZOh:_ModulusRing_Multiply_m343333088
lse:__ZL76AnimatorTransitionInfo_t2534804151_CustomAttributesCacheGenerator_m_AnyStateP21CustomAttributesCache
Cec:__ZN9ShaderLab14SerializedPass8TransferI14SafeBinaryReadEEvRT_
EJc:__Z71Register_UnityEngine_GUILayoutUtility_INTERNAL_CALL_Internal_MoveWindowv
bU:__ZN12AudioManager16SetListenerPauseEb
o4a:__ZNSt3__26vectorIN30RuntimeInitializeOnLoadManager9ClassInfoE13stl_allocatorIS2_L18MemLabelIdentifier13ELi16EEE6assignINS_11__wrap_iterIPS2_EEEENS_9enable_ifIXaasr21__is_forward_iteratorIT_EE5valuesr16is_constructibleIS2_NS_15iterator_traitsISC_E9referenceEEE5valueEvE4typeESC_SC_
rUc:__ZL50__ManagedRegistrationHelperFunction_ContactPoint2DPv
da:invoke_viiiiiiiiiii
qmk:___syscall_ret
l5i:_DeriveBytes_set_Salt_m1400945044
Rvd:_PointerEventData_set_worldNormal_m1888481930
bcj:_AnchorInfo__ctor_m46784903
Iuf:_CipherSuiteCollection_get_Item_m4188309062
R1i:_SslHandshakeHash_HashFinal_m2573455475
xTd:_SynchronizationAttribute_ReleaseLock_m1030353464
WUj:__ZNSt3__212basic_stringIcNS_11char_traitsIcEENS_9allocatorIcEEE6assignINS_11__wrap_iterIPKcEEEENS_9enable_ifIXaasr21__is_forward_iteratorIT_EE5valuesr38__libcpp_string_gets_noexcept_iteratorISC_EE5valueERS5_E4typeESC_SC_
Hid:__Z56Register_UnityEngine_Analytics_CustomEventData_AddDoublev
cYa:__ZN11ChannelInfo8TransferI19StreamedBinaryWriteILb0EEEEvRT_
dck:__ZN4utf88internal13validate_nextIPKcEENS0_9utf_errorERT_S5_Rj
IDe:__ZL53ToggleGroup_t123837990_CustomAttributesCacheGeneratorP21CustomAttributesCache
e3d:__ZL59_PropertyBuilder_t1366136710_CustomAttributesCacheGeneratorP21CustomAttributesCache
Pdf:_InputField_CreateCursorVerts_m3585916868
nmc:__Z34Register_UnityEngine_Gradient_Initv
MSd:_Context_ToString_m1073616138
fZa:__ZN13ScreenManager23SetIsOrientationEnabledE18EnabledOrientationb
Taf:_InputField_EnforceTextHOverflow_m3400115777
vWc:__ZN9Scripting11UnityEngine12TreeInstance9InitProxyEv
X1a:__ZN9InputAxis8TransferI19StreamedBinaryWriteILb0EEEEvRT_
UFg:__Z33il2cpp_codegen_check_sub_overflowxx
Mbf:_InputField_get_caretColor_m2973283772
lif:_RectMask2D_get_Canvas_m9990042
YLi:_Resources_ConvertObjects_TisRuntimeObject_m1486780300_gshared
Y7g:_Double_System_IConvertible_ToInt16_m3591921965_AdjustorThunk
n4h:_Comparison_1_Invoke_m2925518770_gshared
zwa:__ZN10GameObject23VirtualRedirectTransferER18StreamedBinaryReadILb0EE
eij:_SymmetricTransform__ctor_m2693628991
cFc:__Z36Camera_CUSTOM_get_pixelRect_InjectedP12Il2CppObjectR5RectTIfE
pg:_glFrontFace
nhf:_MaskUtilities_IsDescendantOrSelf_m2247511982
Kxa:__ZN12BaseRenderer21SetGlobalLayeringDataE18GlobalLayeringDataj
N9c:__Z51Register_UnityEngine_TextGenerator_GetLinesInternalv
Qoa:__ZN9Scripting11UnityEngine15HideInInspector12CleanupProxyEv
ySg:_SecurityElement__cctor_m3326869319
Rij:_AesManaged_set_Key_m767972181
XEg:_Int16_System_IConvertible_ToBoolean_m1656400658_AdjustorThunk
osg:_Byte_System_IConvertible_ToInt64_m285584218
wha:__ZN6prcoreL17RemapGenericFloatI17TexFormatRGBFloat18TexFormatRGBAFloatEEvPKNS_9InnerInfoE
jgh:_Array_InternalArray__ICollection_Add_TisDictionaryEntry_t3123975638_m665385049_gshared
Dge:__ZL57BootConfigData_t3818279794_CustomAttributesCacheGeneratorP21CustomAttributesCache
E_f:_MissingMemberException__ctor_m2707802176
Ewc:__ZN28ReflectionProbeAnchorManager10InitializeEv
kvj:_Canvas_get_renderMode_m841659411
cWg:_String_Join_m2050845953
tNe:_SerializationInfo_GetValue_m42271953
HS:__ZN9AudioClip11CreateSoundEv
XPa:__ZN29SerializeTraitsForStringTypesIN4core12basic_stringIcNS0_20StringStorageDefaultIcEEEEE8TransferI24GenerateTypeTreeTransferEEvRS4_RT_
qUj:__ZN14dense_hash_mapI10KeyWrapperINSt3__24pairIPK9FieldInfoP11Il2CppClassEEEj17ReflectionMapHashIS8_ENS9_14EqualsComparerINS1_8equal_toIS8_EEEENS1_9allocatorINS2_IKS9_jEEEEEC2EjRKSB_RKSF_
G0e:_PlayerConnection_GetConnectionNativeApi_m3116196780
PPj:__ZNK15dense_hashtableINSt3__24pairIK10KeyWrapperINS1_IPK10MethodInfoP11Il2CppClassEEEjEES9_17ReflectionMapHashIS8_EN14dense_hash_mapIS9_jSD_NS9_14EqualsComparerINS0_8equal_toIS8_EEEENS0_9allocatorISB_EEE9SelectKeyESI_SK_E13find_positionERSA_
Cnd:__ZN11UnityEngine7Connect16PersistentValues13RestoreValuesER8JSONRead
Ead:__ZN9Scripting11UnityEngine8Tilemaps8TileData9InitProxyEv
KEg:_Guid_BaseToString_m3600006650
Eeb:__ZN20ArchiveStorageReader31TryToReadDirectoryFromBlockDataEyPKvj
K2j:__ZN6il2cpp2vmL11GetIdentityEP14Il2CppIUnknown
Ofk:_GC_push_gc_structures
Rxf:_TlsServerCertificate_ProcessAsTls1_m819212276
JJi:_Dictionary_2_Do_ICollectionCopyTo_TisRuntimeObject_m3942192587_gshared
EMj:__ZN6il2cpp6icalls8mscorlib6SystemL8IsPublicEPK9EventInfo
qqf:_PrimalityTests_RabinMillerTest_m2544317101
vpf:_Kernel_DwordDivMod_m1540317819
kXi:_Enumerator_System_Collections_IEnumerator_get_Current_m1399273671_gshared
KId:_TypeBuilder_GetPropertyImpl_m3104345782
wYa:__ZNSt3__213__stable_sortIRNS_4lessI4PPtrI11SpriteAtlasEEENS_11__wrap_iterIPS4_EEEEvT0_SA_T_NS_15iterator_traitsISA_E15difference_typeEPNSD_10value_typeEi
_Hg:_Int64_ToString_m2085073918_AdjustorThunk
HUf:_Transform_1_Invoke_m4084479750_gshared
BJd:_FieldInfo_GetFieldOffset_m1356898082
qUe:_Camera_RaycastTry_m3913529496
Fdc:__ZN10BootConfig4Data14InitFromStringEPPKcjS2_
z3:__ZN8keywords6CreateEPKc
Kyj:__ZL7log2_32j
j3e:_Quaternion_Inverse_Injected_m4070500351
S:Math_imul
Iod:__Z58Register_UnityEngine_RemoteConfigSettings_Internal_Destroyv
Bqa:__ZN9Scripting11UnityEngine11ContextMenu9InitProxyEv
kyf:_TlsServerKeyExchange_Update_m453798279
UTa:__ZN11PlayerPrefs6GetIntERKN4core12basic_stringIcNS0_20StringStorageDefaultIcEEEEi
Puf:_CipherSuiteCollection_System_Collections_IList_IndexOf_m1361500977
uof:_Text_set_fontStyle_m648756124
v9c:__Z45TextGenerator_CUSTOM_INTERNAL_get_rectExtentsP12Il2CppObjectP5RectTIfE
fK:__ZN9Scripting11UnityEngine18AssetBundleRequest12CleanupProxyEv
V2g:_DateTime__ctor_m2135476686_AdjustorThunk
ZQc:__ZN13GUIStyleState8TransferI8JSONReadEEvRT_
oU:__ZN11AudioSource12SetAudioClipEP9AudioClip
L5e:_RectTransform_GetLocalCorners_m823861473
owg:_SynchronizedArrayListWrapper_GetEnumerator_m1579424644
tjf:_Scrollbar_get_value_m760470106
z5:__ZN18ScriptingArguments9AddObjectE18ScriptingObjectPtr
Mdd:__Z39CanvasGroup_Get_Custom_PropInteractableP12Il2CppObject
TX:__ZN11UnityEngine15CloudWebService16SessionContainerD2Ev
emd:__ZL38InitializeUnityConnectScriptingClassesv
X7b:__ZN13ProbeRenderer8ConvolveEbijjb
Whj:_GUIUtility_set_systemCopyBuffer_m608712289
hQb:__ZN17GenericDynamicVBOC2ER9GfxDevice13GfxBufferModejj
BKc:__ZZN10GUIManager14InitGUIManagerEvEN41PreUpdateIMGUISendQueuedEventsRegistrator7ForwardEv
kdg:_ServicePointManager_get_SecurityProtocol_m966397919
gAg:_CCGregorianCalendar_day_from_fixed_m1674702403
lZ:__ZN11UnityEngine15CloudWebService17SessionEventQueue10PurgeItemsEj
A8b:__ZN6Camera16StandaloneRenderENS_10RenderFlagEP6ShaderRKN4core12basic_stringIcNS3_20StringStorageDefaultIcEEEE
Nfg:_X509Chain_PrepareForNextCertificate_m3691934993
nwa:__ZN16LevelGameManager23VirtualRedirectTransferER24GenerateTypeTreeTransfer
Ryb:__Z18Transfer_BlittableI18StreamedBinaryReadILb1EELb1EtEvRK29SerializationCommandArgumentsR31RuntimeSerializationCommandInfo
Yte:__ZL58EventType_t3528516131_CustomAttributesCacheGenerator_keyUpP21CustomAttributesCache
l5d:__ZL57X509Certificate_t713131622_CustomAttributesCacheGeneratorP21CustomAttributesCache
bYa:__ZN12BoneWeights48TransferI19StreamedBinaryWriteILb0EEEEvRT_
vib:__ZN9GfxDevice20DeallocRenderSurfaceEP17RenderSurfaceBase
zmb:__ZN20GpuProgramParameters36UpdatePrepareValuesMaximumBufferSizeEv
QMh:_SimpleCollator_GetContraction_m2205549079
_qf:_ARC4Managed_GenerateKey_m1607343060
yhh:_Array_InternalArray__ICollection_CopyTo_TisDecimal_t2948259380_m2749946216_gshared
X3a:__ZN30RuntimeInitializeOnLoadManager23VirtualRedirectTransferER14SafeBinaryRead
NXc:__ZN20TextRenderingPrivate8FontImpl13CharacterInfo8TransferI18StreamedBinaryReadILb0EEEEvRT_
awb:__Z29Transfer_Blittable_ArrayFieldI24GenerateTypeTreeTransferfEvRT_R9ArrayInfoRK23StaticTransferFieldInfo
IXe:_UnityEvent_FindMethod_Impl_m2312362624
bac:__ZN19CustomRenderTexture9AddParentE4PPtrIS_E
Rqb:__ZN8Gradient8TransferI14SafeBinaryReadEEvRT_
uTe:_Vector3_GetHashCode_m2879461828
dbj:_Parser_ParseSpecial_m1961501104
NTg:_Single_System_IConvertible_ToUInt64_m3299129161_AdjustorThunk
XMa:__ZNSt3__26vectorIN4core12basic_stringIcNS1_20StringStorageDefaultIcEEEE13stl_allocatorIS5_L18MemLabelIdentifier1ELi16EEE7reserveEj
bZc:__ZN20TextRenderingPrivate15DynamicFontData36GetFaceForCharacterIfAvailableInFontERKNS_7FontRefERK13dynamic_arrayI4PPtrIN13TextRendering4FontEELj0EEj
Rcg:_IPv6Address_AsIPv4Int_m844941024
Lyf:_RecordProtocol__cctor_m1280873827
X_e:_Matrix4x4_MultiplyPoint_m1575665487_AdjustorThunk
SPd:_Marshal__cctor_m4007734770
Iek:_GC_new_free_list_inner
KSh:_SymmetricTransform_Random_m2004892672
nek:_GC_err_printf
jrd:__ZN9Scripting11UnityEngine2XR13InputTracking12CleanupProxyEv
Ksf:_RSAManaged_DecryptValue_m1804388365
bCf:_InternalEnumerator_1_System_Collections_IEnumerator_get_Current_m2980550840_AdjustorThunk
qH:__ZN25RuntimeAnimatorController8TransferI14SafeBinaryReadEEvRT_
_Qc:__ZN8JSONRead8TransferI10RectOffsetEEvRT_PKc17TransferMetaFlagsb
WY:__ZN9JSONWrite8TransferIN11UnityEngine15CloudWebService14DataErrorEvent15FileErrorDetailEEEvRT_PKc17TransferMetaFlags
QGg:_Int32_Parse_m2087562008
zMd:_MonoProperty_GetAccessors_m412928203
Ixj:_TweenRunner_1_Start_m3757154622_gshared
LN:__ZN12SoundManager20RegisterModifiedClipEP10SampleClip
xJe:_RemotingServices_GetClientChannelSinkChain_m1499550585
K3f:_Assembly_FillName_m1660001542
U2d:__ZL56_EventBuilder_t2558055199_CustomAttributesCacheGeneratorP21CustomAttributesCache
aPg:_SHA384Managed_processBlock_m1272529332
yQ:__ZN11AudioSource4PlayEd
Ytg:_Char_ToString_m278452217_AdjustorThunk
OEj:__ZN15dense_hashtableI10KeyWrapperIPK17Il2CppGenericInstES4_N6il2cpp8metadata21Il2CppGenericInstHashEN14dense_hash_setIS4_S7_NS4_14EqualsComparerINS6_24Il2CppGenericInstCompareEEENSt3__29allocatorIS4_EEE8IdentityESB_SE_E13set_empty_keyERKS4_
Gdi:__Z63RuntimeInvoker_Char_t3634460470_Int16_t2552820387_RuntimeObjectPFvvEPK10MethodInfoPvPS4_
N$g:_Convert_ToDouble_m2924063577
rba:__Z17GetCoreModuleSpecv
mJh:_Enumerator_System_Collections_IEnumerator_get_Current_m3594024719_gshared
h5f:_CustomAttributeNamedArgument_ToString_m1488801416_AdjustorThunk
YQa:__ZN7Cubemap23VirtualRedirectTransferER18StreamedBinaryReadILb0EE
Uqc:__ZNSt3__27__sort4IRNS_6__lessI11KeyframeTplIfES3_EEPS3_EEjT0_S7_S7_S7_T_
y6c:_Read_CVT
Reb:__ZN12FileAccessor4SeekEx10FileOrigin
bt:__ZN9Scripting11UnityEngine25RuntimeAnimatorController12CleanupProxyEv
Pub:__ZL26Transfer_SimpleNativeClassI24GenerateTypeTreeTransfer17AnimationCurveTplIfELb0EEvRK29SerializationCommandArgumentsR31RuntimeSerializationCommandInfo
c$g:_Convert_ToDecimal_m1783778724
sTf:_ShimEnumerator_get_Value_m153531060_gshared
BAg:_DateTimeFormatInfo__ctor_m3106345035
Fvf:_TlsServerKeyExchange_verifySignature_m3412856769
GBh:_EqualityComparer_1_System_Collections_IEqualityComparer_GetHashCode_m4137147946_gshared
w0i:_Collection_1_System_Collections_ICollection_CopyTo_m5285659_gshared
Wca:__ZN16LightmapSettings20DidChangeActiveSceneEP10UnitySceneS1_
OGe:__ZL59g_AssemblyU2DCSharp_Assembly_CustomAttributesCacheGeneratorP21CustomAttributesCache
SMj:__ZN6il2cpp5utils9PathUtils8BasenameIcEENSt3__212basic_stringIT_NS3_11char_traitsIS5_EENS3_9allocatorIS5_EEEERKSA_
LP:__ZN10AudioMixer11SetupGroupsEv
Gt:__ZN9Scripting11UnityEngine10Animations21AnimationClipPlayable9InitProxyEv
EIc:__Z35Register_UnityEngine_Event_get_typev
yna:__ZN9Scripting11UnityEngine9Rendering18GraphicsDeviceType12CleanupProxyEv
s0j:__ZN6il2cpp2vm9Exception23GetInvalidCastExceptionERKNS_5utils10StringViewIDsEE
puk:_emscripten_glDepthRange__wrapper
wB:__ZN8Animator28BuildControllerPlayableCacheEv
z6:__Z63ThreadAndSerializationSafeCheckGetMonoBehaviourBeingTransferredv
Doa:__ZN9Scripting11UnityEngine12LightmapData9InitProxyEv
QOi:_List_1_set_Item_m4224739467_gshared
U5f:_ConstructorBuilder_get_Name_m2426555260
yrc:__Z37Register_UnityEngine_Input_GetAxisRawv
tmd:__ZN11UnityEngine7Connect13ConfigHandler13ConfigChangedERKN4core12basic_stringIcNS2_20StringStorageDefaultIcEEEEbbi
ebj:_Parser_ParseCharacterClass_m4285351396
f1g:_Convert_ToSByte_m2653418303
uXg:_SyncHashtable__ctor_m2449935938
lQ:__ZN11AudioSource5ResetEv
f1f:_NumberFormatter_DecHexLen_m510984344
mOg:_RSAPKCS1SignatureFormatter_SetKey_m2935054088
mZb:__ZN12ImageFilters27SetSurfaceUseResolvedBufferEP13RenderTextureb
Rnb:__ZN14SafeBinaryRead21TransferSTLStyleArrayI10vector_setI4PPtrI10MonoScriptENSt3__24lessIS4_EE13stl_allocatorIS4_L18MemLabelIdentifier79ELi16EEEEEvRT_17TransferMetaFlags
COa:__ZN14Texture2DArray23VirtualRedirectTransferER18StreamedBinaryReadILb0EE
Hmh:_UTF7Encoding_GetByteCount_m209415911
M9a:__ZN2UI13RectTransform13AwakeFromLoadE17AwakeFromLoadMode
Mdj:_RegularExpression_Compile_m2385682508
I2b:__ZN14qsort_internal30FindAndMovePivotToLastPositionIP20ShadowCasterSortDatai26ShadowCasterSortDataSorterEEvT_S4_T0_T1_
kob:__Z18Transfer_BlittableI14SafeBinaryReadLb1EiEvRK29SerializationCommandArgumentsR31RuntimeSerializationCommandInfo
Tfg:_X509ExtensionEnumerator_get_Current_m256207749
pzg:_EventArgs__cctor_m1889823314
cqg:_Array_Sort_m182264525
fff:_LayoutGroup_set_padding_m282562135
C4f:_Default_IsArrayAssignable_m953489228
hth:_UInt16_ToString_m355311020_AdjustorThunk
Fk:_glGetStringi
Jih:_DecoderExceptionFallback_CreateFallbackBuffer_m1133375601
Z4j:__ZNK15dense_hashtableI10KeyWrapperIP18Il2CppGenericClassES3_N6il2cpp8metadata22Il2CppGenericClassHashEN14dense_hash_setIS3_S6_NS3_14EqualsComparerINS5_25Il2CppGenericClassCompareEEENSt3__29allocatorIS3_EEE8IdentityESA_SD_E10test_emptyERK30dense_hashtable_const_iteratorIS3_S3_S6_SF_SA_SD_E
vQf:_Enumerator_get_CurrentKey_m889650866_gshared
sD:__ZN8Animator9WriteStepEy
rza:__ZN9Coroutine16SetCurrentMethodE18ScriptingMethodPtr
HZ:__ZN11UnityEngine15CloudWebService20WebRequestRestClient18GetResponseHeadersEv
$zc:__ZN16PropertyAccessorC2Ev
n_i:_Collection_1_ConvertItem_m1743542180_gshared
C9c:__Z38Register_UnityEngine_Font_HasCharacterv
W6b:__Z35IntersectSpherePlaneBoundsOptimizedRKN4math7_float4EPS1_i
tNg:_RNGCryptoServiceProvider__cctor_m3587754670
Vaa:__ZN17TransformInternal21DetachTransformThreadER18TransformHierarchyjj
w7j:__ZN6il2cpp2os5posix15PosixWaitObject13InterruptWaitEv
Bca:__Z22CleanupLODGroupManagerPv
AIc:__Z21Event_CUSTOM_PopEventP12Il2CppObject
ol:_glUniform3fv
Fkk:__ZNK6il2cpp8metadata24Il2CppGenericInstCompareclERK10KeyWrapperIPK17Il2CppGenericInstES8_
mgg:_X509ChainElement_Set_m655180762
ezj:_CustomEventData_AddInt32_m548429697
k1b:__ZNK16LightmapSettings31GetRealtimeLightmapDecodeValuesEv
uP:__ZN5audio5mixer12SetSuspendedERNS0_16AudioMixerMemoryEb
W8a:__ZN17PersistentManager21UnloadNonDirtyStreamsEv
Jki:__Z96RuntimeInvoker_Int32_t2950945753_RuntimeObject_Int32_t2950945753_RuntimeObject_Int32_t2950945753PFvvEPK10MethodInfoPvPS4_
Ejj:_AnalyticsEventTracker_OnEnable_m1121905268
lej:_Uri_get_Parser_m3737125102
tvj:_Canvas_get_overrideSorting_m2740418462
WVe:_Debug_LogFormat_m309087137
lsg:_Byte_System_IConvertible_ToInt16_m4136764794_AdjustorThunk
SZa:__ZN12ImageFilters4BlitER17ShaderPassContextP7TextureP13RenderTextureiPK18SharedMaterialDataPKcP6ShaderiNS_9BlitFlagsE11CubemapFaceRK8Vector2fSH_
AVg:_String_LastIndexOf_m3451222878
b9i:_Mark_get_Index_m3048692661
UDe:__ZL69CanvasScaler_t2767979955_CustomAttributesCacheGenerator_m_ScaleFactorP21CustomAttributesCache
DRd:_ConfigHandler_CheckPath_m3079311646
vZ:__ZN11UnityEngine15CloudWebService10RestClientINS0_23WebRequestRestHeaderMapEED2Ev
Ll:_emscripten_glDepthMask
AKe:_RemotingServices_CreateClientProxy_m3886727610
iSa:__ZN4crnd25static_huffman_data_model22prepare_decoder_tablesEv
Qyf:_RecordProtocol_GetMessage_m2086135164
$ca:__Znaj
NAk:_emscripten_glEnableClientState__wrapper
ppd:__ZN20UnityWebRequestProtoI24UnityWebRequestTransport16AtomicRefCounter14RedirectHelper14ResponseHelper15DownloadHandler13UploadHandler18CertificateHandler12HeaderHelper14AsyncOperationE26Job_ExecuteUnityWebRequestEPS9_
D2:__ZN17MessageIdentifierC2EPKcNS_7OptionsEPKN5Unity4TypeES1_
M$e:_Mesh_SetTriangles_m1523451247
CTg:_Single_System_IConvertible_ToSByte_m1208276900
BGi:_Array_InternalArray__set_Item_TisVector4_t3319028937_m757305038_gshared
ptc:__ZNSt3__26__treeIPc15compare_tstringIPKcENS_9allocatorIS1_EEE25__emplace_unique_key_argsIS1_JS1_EEENS_4pairINS_15__tree_iteratorIS1_PNS_11__tree_nodeIS1_PvEEiEEbEERKT_DpOT0_
aji:__Z105RuntimeInvoker_Void_t1185182177_RuntimeObject_RuntimeObject_RuntimeObject_RuntimeObject_Int32_t2950945753PFvvEPK10MethodInfoPvPS4_
UWf:_ValueCollection_System_Collections_Generic_ICollectionU3CTValueU3E_Add_m3298059628_gshared
cei:__Z64RuntimeInvoker_RuntimeObject_Int16_t2552820387_Int16_t2552820387PFvvEPK10MethodInfoPvPS4_
RU:__Z55Register_UnityEngine_AudioSource_get_spatializeInternalv
iK:__ZN14SafeBinaryRead8TransferI14ConstantStringEEvRT_PKc17TransferMetaFlags
pXb:__ZNK6Camera16GetStereoEnabledEv
Lni:__Z72RuntimeInvoker_Int32_t2950945753_TimeSpan_t881159249_TimeSpan_t881159249PFvvEPK10MethodInfoPvPS4_
pzf:_SendRecordAsyncResult_SetComplete_m153213906
JVa:__ZN16LightmapSettings23VirtualRedirectTransferER19StreamedBinaryWriteILb0EE
uwc:__ZN12LightManager15InitializeClassEv
rph:_WaitHandle__cctor_m4242752477
ILa:__ZN9ShaderLab11shaderprops16GetComputeBufferEPK19ShaderPropertySheetS3_NS_16FastPropertyNameE
Fck:__ZN6il2cpp6icalls8mscorlib6System10Reflection10MethodBase31GetMethodFromHandleInternalTypeEii
u8:__ZN23ManagedAttributeManager35CallManagedGetDefaultExecutionOrderE17ScriptingClassPtr
N5:__ZN18ScriptingArgumentsC2Ev
QTe:_Vector3_op_Equality_m4231250055
iwk:_emscripten_glBlendFuncSeparate__wrapper
dWa:__ZN15SerializeTraitsI13dynamic_arrayI7Hash128Lj0EEE19ResizeSTLStyleArrayERS2_i
AJg:_FileSystemInfo__ctor_m3769019897
nLi:_Array_InternalArray__get_Item_TisContentType_t1787303396_m421427711_gshared
OYb:__ZNK25CameraStackRenderingState27GetStereoImageEffectTextureEb
DRe:_HMACSHA384__ctor_m1677515580
pNg:_RIPEMD160Managed_J_m1336489154
jHc:__ZL52__ManagedRegistrationHelperFunction_PlayableDirectorPv
qJj:__ZN6il2cpp6icalls6System6System3Net7Sockets6Socket7ReceiveEiP11Il2CppArrayiiNS4_11SocketFlagsEPi
to:FUNCTION_TABLE_ii
Nva:__ZN10TagManager8TransferI18StreamedBinaryReadILb0EEEEvRT_
zNc:__Z18Transfer_BlittableI9JSONWriteLb0E8BitFieldEvRK29SerializationCommandArgumentsR31RuntimeSerializationCommandInfo
xLg:_MemoryStream_set_Capacity_m1773624579
bZj:__ZNK15dense_hashtableINSt3__24pairIK10KeyWrapperINS1_IP11Il2CppClassjEEES4_EES6_N6il2cpp8metadata14ArrayClassHashEN14dense_hash_mapIS6_S4_SB_NS6_14EqualsComparerINSA_17ArrayClassCompareEEENS0_9allocatorIS8_EEE9SelectKeyESF_SH_E10test_emptyEj
wfc:__ZNSt3__26vectorIN9ShaderLab20SerializedSubProgram15StructParameterENS_9allocatorIS3_EEE8__appendEj
rb:invoke_diiii
Tuk:b47
ks:__ZL57__ManagedRegistrationHelperFunction_AnimationClipPlayablePv
Qpi:__Z95RuntimeInvoker_Void_t1185182177_RuntimeObject_RuntimeObject_SByte_t1669577662_SByte_t1669577662PFvvEPK10MethodInfoPvPS4_
Ecc:__Z24CreateDirectoryRecursiveRKN4core12basic_stringIcNS_20StringStorageDefaultIcEEEE
Huk:b41
Khc:__ZN9ShaderLab20SerializedSubProgram8TransferI18StreamedBinaryReadILb0EEEEvRT_
Euk:b40
pQ:__ZN11AudioSource23VirtualRedirectTransferER17RemapPPtrTransfer
fge:__ZL54ContextMenu_t1295656858_CustomAttributesCacheGeneratorP21CustomAttributesCache
f4:__ZN13RuntimeStaticI21ScalableBufferManagerLb0EE13StaticDestroyEPv
gcd:__ZN2UI13CanvasManager9AddCanvasEPNS_6CanvasE
IZa:__ZN9Texture3D8TransferI19StreamedBinaryWriteILb0EEEEvRT_
WZb:__ZNK6Camera22CalculateRenderingPathEv
Iuk:b42
UOc:__ZN9JSONWrite8TransferI5RectTIfEEEvRT_PKc17TransferMetaFlags
eF:__ZN11UnityEngine9Animation37SetGenericRootTransformPropertyValuesERKNS0_30AnimatorGenericBindingConstantERKN7mecanim10ValueArrayER9Transformbb
MRb:__Z13ConvertMipmap14GraphicsFormatPKvS_Pviiii
hWa:__ZN28EnlightenRendererInformation8TransferI14SafeBinaryReadEEvRT_
RJ:__ZN9Scripting11UnityEngine2XR5Tango24MeshReconstructionServer9InitProxyEv
vtb:__ZL12InvokeMethodI17RemapPPtrTransferEvRK29SerializationCommandArgumentsR31RuntimeSerializationCommandInfo
Pbg:_RemoteCertificateValidationCallback_Invoke_m3086073466
AWg:_StringComparer_Compare_m991165676
k4c:_tt_sbit_decoder_load_image
$Ja:__Z14IsHalfRTFormat19RenderTextureFormat
MEg:_Guid_ToString_m3279186591
Nbi:_U3CStartU3Ec__Iterator0_Dispose_m261027331_gshared
LKc:__ZNSt3__24listIN10GUIManager12SortedScriptE11memory_poolIS2_EE6__sortI13OldSortScriptEENS_15__list_iteratorIS2_PvEESA_SA_jRT_
h1i:_Collection_1_System_Collections_IList_Add_m3364892189_gshared
kPi:_List_1_AddEnumerable_m3500350831_gshared
psf:_PrivateKeyInfo_get_PrivateKey_m3647771102
g$j:__ZN6il2cpp6icalls8mscorlib6System9ThreadingL11ThreadStartEPv
qfa:__ZN15DirectorManager12OnSampleTimeEv
pId:_TypeBuilder_check_not_created_m3652863637
jxd:_StandaloneInputModule_UpdateModule_m450861257
H2h:_ReadOnlyCollection_1_System_Collections_IList_Insert_m2928873627_gshared
iDh:_EqualityComparer_1__cctor_m314889309_gshared
bta:__ZN12CachedReader10Align4ReadEv
Z5i:_X501__cctor_m2428304915
svj:_Canvas_get_renderOrder_m1489855841
Bei:__Z50RuntimeInvoker_Void_t1185182177_Single_t1397266774PFvvEPK10MethodInfoPvPS4_
dlg:_X501_ToString_m4186311521
Bfj:_Event_ToString_m1688862299
Mta:__ZNK9Behaviour22GetTypeVirtualInternalEv
nXb:__ZN13RendererScene17BeginCameraRenderEv
fAg:_CCGregorianCalendar_month_from_fixed_m4268992710
geh:_Array_compare_TisUICharInfo_t75501106_m1310495481_gshared
Q7b:__Z21GetScriptingArraySize17ScriptingArrayPtr
jXc:__ZN20TextRenderingPrivate8FontImpl8TransferI14SafeBinaryReadEEvRT_
ula:__ZL51__ManagedRegistrationHelperFunction_HideInInspectorPv
kse:__ZL82AnimatorTransitionInfo_t2534804151_CustomAttributesCacheGenerator_m_NormalizedTimeP21CustomAttributesCache
W0h:_ReadOnlyCollection_1_System_Collections_IList_Clear_m4022532825_gshared
hkh:_Encoding_get_ASCII_m3595602635
fjb:__ZN9GfxDevice17ImmediateTexCoordEifff
O6f:_DerivedType_GetCustomAttributes_m3536779709
d8d:__ZL93Interlocked_t2273387594_CustomAttributesCacheGenerator_Interlocked_CompareExchange_m388540288P21CustomAttributesCache
xId:_MethodBase_get_IsAbstract_m428833029
Nr:__ZN13ConstraintJob23ConstraintComponentDataC2ERK18PositionConstraint
fuk:_emscripten_glUniform4f__wrapper
DJh:_Enumerator_MoveNext_m2595190390_AdjustorThunk
Efh:_Array_InternalArray__IndexOf_TisColor32_t2600501292_m3783551884_gshared
Z$b:__ZNK6Camera16GetProjectionFarEv
gr:__Z24InverseTransformRotationRK23TransformAccessReadOnlyRKN4math7_float4E
UTc:__ZN11UnityEngine9Analytics16StartupTimeEvent23SetSplashScreenTimeInfoEyyy
Z6i:_X509Chain_Build_m2469702749
sQ:__ZN11AudioSource6UpdateEv
God:__Z31GetPerformanceReportingSettingsv
eOa:__ZNK14PlayableOutput11DerivesFromE17ScriptingClassPtr
jQa:__ZN7Texture34CreateFileTextureUploadInstructionE18TextureUploadFlagsj
qTd:__ZN25GenericVirtActionInvoker06InvokeEPK10MethodInfoP12Il2CppObject
tVd:__ZL64SerializableAttribute_t1992588303_CustomAttributesCacheGeneratorP21CustomAttributesCache
yfb:__ZN25SingleBlockMemoryFileDataC2E10MemLabelIdPvjb
gG:__ZN8Animator8TransferI14SafeBinaryReadEEvRT_
saa:__Z23AsyncReadForceCloseFileRKN4core12basic_stringIcNS_20StringStorageDefaultIcEEEE
gW:__ZN16BaseVideoTexture19UpdateVideoTexturesEv
yLd:_MonoField_GetValue_m3124733531
v7a:__ZNK16LightmapSettings23HasLightProbeTetrahedraEv
NWa:__ZN6Sprite23VirtualRedirectTransferER19StreamedBinaryWriteILb0EE
Rlc:__ZN2UI13RectTransform12SetAnchorMaxERK8Vector2f
nZj:__ZN14dense_hash_mapI10KeyWrapperIP11Il2CppClassES2_N6il2cpp8metadata16SZArrayClassHashENS3_14EqualsComparerINS5_19SZArrayClassCompareEEENSt3__29allocatorINSA_4pairIKS3_S2_EEEEE13set_empty_keyERSD_
Ytd:_EventTrigger_Execute_m2453060771
W3h:_Comparison_1_Invoke_m517083441_gshared
ROj:__ZNK15dense_hashtableINSt3__24pairIK10KeyWrapperINS1_IPK9FieldInfoP11Il2CppClassEEEjEES9_17ReflectionMapHashIS8_EN14dense_hash_mapIS9_jSD_NS9_14EqualsComparerINS0_8equal_toIS8_EEEENS0_9allocatorISB_EEE9SelectKeyESI_SK_E5beginEv
P9j:__ZN6il2cpp2os6Thread15CurrentThreadIdEv
fE:__ZN15SerializeTraitsIN4math4trsXEE8TransferI8BlobSizeEEvRS1_RT_
tPb:__ZN14DataBufferGLES11CopySubDataEPKS_jjj
ee:_emscripten_glVertexPointer
dNj:__ZN6il2cpp2vm7Runtime47RaiseExecutionEngineExceptionIfMethodIsNotFoundEPK10MethodInfo
J9i:_PatternCompiler_GetMachineFactory_m3758869886
n3b:__Z17GetFrustumPortionPK8Vector3fffPS_
f2j:__ZN15dense_hashtableINSt3__24pairIK10KeyWrapperIP14Il2CppIUnknownEjEES5_N6il2cpp5utils11PointerHashIS3_EEN14dense_hash_mapIS5_jSB_NS5_14EqualsComparerINS0_8equal_toIS4_EEEENS0_9allocatorIS7_EEE9SelectKeyESG_SI_E14squash_deletedEv
nud:_EventTrigger_OnCancel_m585099428
Rgj:_GUILayoutEntry_ApplyOptions_m1741659338
hOe:_RuntimeTypeHandle_Equals_m2857439487_AdjustorThunk
Chb:__ZNK9GfxDevice27GetPlatformAdjustedViewportEv
xna:__ZN9Scripting11UnityEngine9Rendering18GraphicsDeviceType9InitProxyEv
SZh:_ReadOnlyCollection_1_System_Collections_Generic_IListU3CTU3E_set_Item_m88350439_gshared
c9:__ZNSt3__26vectorINS_4pairIiiEE13stl_allocatorIS2_L18MemLabelIdentifier38ELi16EEE6insertENS_11__wrap_iterIPKS2_EEOS2_
bfa:__ZNSt3__26__treeINS_12__value_typeIPvsEENS_19__map_value_compareIS2_S3_NS_4lessIS2_EELb1EEE13stl_allocatorIS3_L18MemLabelIdentifier86ELi16EEE25__emplace_unique_key_argsIS2_JNS_4pairIS2_sEEEEENSD_INS_15__tree_iteratorIS3_PNS_11__tree_nodeIS3_S2_EEiEEbEERKT_DpOT0_
Bkj:_StandardEventPayload_IsRequiredDataValid_m361738930
K5h:_Func_3_Invoke_m1194147890_gshared
rcj:_Reference_Compile_m4195878675
Ptj:_InputBuffer_remove_onCommandSent_m3139499669
p0h:_ReadOnlyCollection_1_System_Collections_ICollection_CopyTo_m2672196987_gshared
cAc:__ZN16StreamedResource8TransferI24GenerateTypeTreeTransferEEvRT_
k5e:_RectTransform_get_anchorMin_m2928307238
hug:_ArrayList__ctor_m3828927650
iDa:__ZN10Matrix3x3f15InvertTransposeEv
bhj:_GUILayoutGroup_SetHorizontal_m996475327
Ugj:_GUILayoutEntry__cctor_m663865902
KWb:__Z11IsBatchmodev
gIh:_Enumerator_System_Collections_IEnumerator_get_Current_m713684915_gshared
Xrb:__Z29Transfer_Blittable_ArrayFieldI14SafeBinaryRead8Vector3fEvRT_R9ArrayInfoRK23StaticTransferFieldInfo
_Xc:__ZN20TextRenderingPrivate8FontImpl18ResetCachedTextureEv
HLj:__ZN6il2cpp6icalls8mscorlib6SystemL16GetFieldFromTypeINS_5utils10functional6FilterINSt3__212basic_stringIcNS7_11char_traitsIcEENS7_9allocatorIcEEEENS4_13VmStringUtils21CaseSensitiveComparerEEEEEP21Il2CppReflectionFieldP11Il2CppClassSK_iRKT_
keg:_X509KeyUsageExtension_Decode_m3150759625
qfk:_GC_print_finalization_stats
Ihj:_GUITargetAttribute_GetGUITargetAttrValue_m2954410352
umc:__Z53Register_UnityEngine_Behaviour_get_isActiveAndEnabledv
kqg:_SimpleEnumerator_get_Current_m72361444
Iq:__ZNSt3__26vectorIN4core12basic_stringIcNS1_20StringStorageDefaultIcEEEENS_9allocatorIS5_EEE8__appendEj
rW:__ZN13ProduceHelperI10SampleClipLb0EE7ProduceE10MemLabelId18ObjectCreationMode
H2a:__ZN26PlayerSettingsSplashScreen8TransferI17RemapPPtrTransferEEvRT_
VPh:_ASN1_set_Value_m2803403806
OLj:__ZN6il2cpp6icalls8mscorlib6SystemL17CollectTypeFieldsINS_5utils10functional10TrueFilterEEEvP11Il2CppClassPKS7_iRNSt3__26vectorIP9FieldInfoNSB_9allocatorISE_EEEERKT_
pnc:__Z13GetTagManagerv
Ong:_Hashtable__ctor_m1815022027
cnh:_UTF8Encoding_GetChars_m1433288684
dF:__ZN11UnityEngine9Animation37HasGenericRootTransformPropertyValuesERKNS0_30AnimatorGenericBindingConstantEb
RX:__ZN11UnityEngine15CloudWebService17CloudJobSchedulerD0Ev
_5a:__ZN18LoadSceneOperation7PerformEv
nTc:__ZN11UnityEngine9Analytics26PerformanceReportingConfig13ConfigChangedERKN4core12basic_stringIcNS2_20StringStorageDefaultIcEEEER8JSONRead
xei:__Z96RuntimeInvoker_Boolean_t97287965_RuntimeObject_RuntimeObject_Int32_t2950945753_Int32_t2950945753PFvvEPK10MethodInfoPvPS4_
Jeh:_Array_IndexOf_TisUICharInfo_t75501106_m3198896198_gshared
jbd:__ZNK2UI11CanvasGroup22GetTypeVirtualInternalEv
fxf:_Context_get_Current_m2853615040
WKc:__Z21CleanupGlobalGUIStatev
Rrh:_Type_IsContextfulImpl_m3693603908
_Ih:_Enumerator_VerifyState_m2873941769_gshared
sBb:__Z18Transfer_BlittableI18StreamedBinaryReadILb0EELb1EN4math12int3_storageEEvRK29SerializationCommandArgumentsR31RuntimeSerializationCommandInfo
aUb:__ZN22VertexDeclarationCache5ClearEv
OPe:_CspParameters__ctor_m3852972821
Uac:__ZN17PersistentManager12SetPathRemapERKN4core12basic_stringIcNS0_20StringStorageDefaultIcEEEES6_
Ny:__Z27ProcessRootMotionEmptyMixerP35AnimationPlayableEvaluationConstantP32AnimationPlayableEvaluationInputP33AnimationPlayableEvaluationOutput
U4b:__ZN6Camera24PrepareCullingParametersERK23CameraCullingParameters13RenderingPathR11CullResults
d5b:__Z20CullReflectionProbesR8JobFenceRK22SceneCullingParametersRK23ReflectionProbesContextPKjjPjS9_
j6a:__ZN19RuntimeSceneManager22EndIntegrateMainThreadEP10UnitySceneNS_11LoadingModeE
lIi:_Array_Sort_TisUICharInfo_t75501106_m3474449559_gshared
nkg:_Buffer_BlockCopy_m2884209081
Gaj:_QuickSearch_GetShiftDistance_m2542665852
NKi:_Array_InternalArray__get_Item_TisCustomAttributeTypedArgument_t2723150157_m2639399822_gshared
hOh:_BigInteger_GenerateRandom_m3141592944
Tvb:__Z29Transfer_Blittable_ArrayFieldI24GenerateTypeTreeTransfer4AABBEvRT_R9ArrayInfoRK23StaticTransferFieldInfo
IHc:__ZN9Scripting11UnityEngine12StylePainter12CleanupProxyEv
ckg:_Interval_Contains_m1454846757
wEd:_Graphic_CacheCanvas_m1120385152
oI:__ZN26AnimatorOverrideController15InitializeClassEv
MHc:__ZN9Scripting11UnityEngine15ScrollViewState12CleanupProxyEv
acf:_InputField_set_contentType_m1277230266
mmk:_emscripten_GetProcAddress
Ca:invoke_fiiifii
Hnk:_modff
gIa:__ZN20SphericalHarmonicsL219AddDirectionalLightERKN4math7_float3ERKNS0_7_float4E
hfa:__Z26ScheduleJobForEachInternalR8JobFencePFvPvjES1_iPFvS1_E11JobPriority
gWb:__ZZ23InitPlayerLoopCallbacksvEN41PostLateUpdateProfilerEndFrameRegistrator7ForwardEv
Vjc:__ZN9Scripting18RaiseMonoExceptionEPKcz
_yc:__ZN10GameObject17WillHandleMessageERK17MessageIdentifier
wRg:_StrongNamePublicKeyBlob_Equals_m3655422942
tSg:_SecurityContext__ctor_m1730177197
xwj:_RectTransformUtility_GetTransposed_m3952754222
dxc:__ZN9ShaderLab16FastPropertyName15InitBy28BitHashEj
kOi:_List_1_System_Collections_IList_set_Item_m4182383657_gshared
m0e:_MonoBehaviour_StopCoroutineManaged_m3194025768
Fhi:__Z96RuntimeInvoker_Void_t1185182177_Int32_t2950945753_Single_t1397266774_RuntimeObject_RuntimeObjectPFvvEPK10MethodInfoPvPS4_
wPf:_Enumerator_System_Collections_IDictionaryEnumerator_get_Key_m195047678_AdjustorThunk
rvj:_Canvas_get_pixelPerfect_m333060872
G$a:__ZN17PackedFloatVector12UnpackFloatsEPfiiii
WB:__ZN17AnimationPlayable28UpdateInternalStateRecursiveILi3ELb0EEEvPK35AnimationPlayableEvaluationConstant
aNb:__ZN13GfxDeviceGLES21DestroyComputeProgramER12ObjectHandleI18ComputeProgram_TagPvE
$bh:_Enumerable_Any_TisRuntimeObject_m3853239423_gshared
daj:_PatternCompiler_EmitIfDefined_m2075050865
U5g:_Decimal_System_IConvertible_ToInt64_m1446427516_AdjustorThunk
Fca:__ZN17UniqueIDGenerator16DestroyPureIndexEj
O0f:_NotImplementedException__ctor_m3095902440
I8:__ZL21AppendNestedClassName17ScriptingClassPtrRN4core17string_with_labelILi1EEE
dfc:__ZN14SafeBinaryRead21TransferSTLStyleArrayINSt3__26vectorIN9ShaderLab20SerializedSubProgram12UAVParameterENS1_9allocatorIS5_EEEEEEvRT_17TransferMetaFlags
LZj:__ZN6il2cpp8metadata13ArrayMetadata20SetupArrayInterfacesEP11Il2CppClassRKNS_2os12FastAutoLockE
muj:_FontTextureRebuildCallback_Invoke_m3604797831
OY:__ZN24TextDOMTransferWriteBaseI9JSONWriteE12PushMetaFlagEi
OPc:__Z18Transfer_BlittableI8JSONReadLb1E10ColorRGBAfEvRK29SerializationCommandArgumentsR31RuntimeSerializationCommandInfo
qia:__ZN6prcoreL26RemapGenericIntegerToFloatI17TexFormatARGB888815TexFormatRFloatEEvPKNS_9InnerInfoE
PKj:__ZN6il2cpp2vm10ThreadPool10InitializeEv
GRi:_List_1__ctor_m808270210_gshared
eVj:__ZN6il2cpp2vm17TypeNameParseInfoD2Ev
YFh:_PrimeHelper_ToPrime_m3704362632_gshared
fN:__ZN4FMOD7Channel7setModeEj
C5g:_Decimal_System_IConvertible_ToType_m2919262279
T9e:_Vector2_get_right_m1027081661
GUa:__ZNK8Renderer8GetLayerEv
uMg:_Stream_Close_m771352034
rNf:__ZN21InterfaceFuncInvoker1Ii19TimeSpan_t881159249E6InvokeEjP11Il2CppClassP12Il2CppObjectS0_
DHa:__ZN12FlareManager11DeleteFlareEi
g$b:__ZNK6Camera20GetReplacementShaderEv
DUi:_List_1_System_Collections_IList_Remove_m4226673807_gshared
Jjk:__ZNSt3__26__treeINS_12__value_typeINS_12basic_stringIcNS_11char_traitsIcEENS_9allocatorIcEEEEPFvvEEENS_19__map_value_compareIS7_SA_NS_4lessIS7_EELb1EEENS5_ISA_EEE4findIS7_EENS_15__tree_iteratorISA_PNS_11__tree_nodeISA_PvEEiEERKT_
gPa:__ZL23stbir__calculate_memoryP11stbir__info
kjg:_Interpreter_Close_m126356671
AVc:__ZN9Scripting11UnityEngine14SphereCollider12CleanupProxyEv
a_a:__ZNK6Camera18GetRenderRectangleEv
o5j:__ZN6il2cpp8metadata15GenericMetadata7InflateEPK19Il2CppGenericMethodPK20Il2CppGenericContext
$Sc:__ZN9Scripting11UnityEngine22ParticleCollisionEvent9InitProxyEv
sYa:__ZN13sorted_vectorIN4core12basic_stringIcNS0_20StringStorageDefaultIcEEEENSt3__24lessIS4_EE13stl_allocatorIS4_L18MemLabelIdentifier81ELi16EEE4findIS4_EENS5_11__wrap_iterIPS4_EERKT_
Xxc:__Z13RegisterClassI30RuntimeInitializeOnLoadManagerEvPKc
Xaj:_Parser_HandleExplicitNumericGroups_m1412234891
lLi:_Array_InternalArray__get_Item_TisRaycastHit2D_t2279581989_m2440275162_gshared
a5f:_CustomAttributeNamedArgument_Equals_m1414002036
tQc:__ZL26Transfer_SimpleNativeClassI8JSONRead10RectOffsetLb1EEvRK29SerializationCommandArgumentsR31RuntimeSerializationCommandInfo
Udd:__Z44CanvasRenderer_CUSTOM_INTERNAL_CALL_SetColorP12Il2CppObjectRK10ColorRGBAf
qDa:__Z26TransformVerticesInnerLoopILb1ELb1ELb1EEvPhRK10Matrix4x4fRK10Matrix3x3fjPKhiS8_ii25GfxTransformVerticesFlagsj
vHh:_Enumerator_System_Collections_IEnumerator_Reset_m959124362_AdjustorThunk
n_b:__ZNK20DynamicPropertySheet18FindQueuedPropertyEN9ShaderLab16FastPropertyNameEN19ShaderPropertySheet12PropertyTypeE
l9g:_Enum_ToObject_m121831801
MGd:_Image_get_hasBorder_m3423344180
kid:__Z48UnityAnalyticsHandler_CUSTOM_SendCustomEventNameP12Il2CppObjectP12Il2CppString
Xpc:__ZN9Transform16SetLocalRotationERK11Quaternionf
ama:__ZL49__ManagedRegistrationHelperFunction_CommandBufferPv
gXb:__ZN13RenderManager37RenderCamerasWithScriptableRenderLoopEi
Dph:_TimeSpan__ctor_m3689759052
DMb:__ZN13GfxDeviceGLES22ReleaseThreadOwnershipEv
UDi:__Z37RuntimeInvoker_Enumerator_t3123848928PFvvEPK10MethodInfoPvPS4_
V5j:__ZN6il2cpp2os19ReleaseSocketHandleEj
wV:__ZN11AudioModule16GetDSPSampleRateEv
Abf:_InputField_get_characterValidation_m4196664041
Vqh:_Type_get_Attributes_m58528356
IYe:_SpriteBone_t303320096_marshal_pinvoke
ykg:_Array_GetUpperBound_m4018715963
G7i:_X509Store__ctor_m2736551756
lsc:__Z13RegisterClassI9TextAssetEvPKc
p7j:__ZN6il2cpp2os5posix15PosixWaitObjectC2ENS2_4TypeE
lZb:__ZN6Camera21PostMultiCustomRenderENS_10RenderFlagEb
TEi:_Array_InternalArray__Insert_TisMonoResource_t4103430009_m1997865927_gshared
sPg:_SHA512Managed_HashFinal_m2173184560
CSb:__ZN12_GLOBAL__N_112UploadImagesEP7ApiGLESjji14GraphicsFormatPKhjS2_iiii16TextureUsageModePh
qJb:__ZN23ShaderVariantCollection13WarmupShadersEv
rtc:__ZN13ProduceHelperI9TransformLb0EE7ProduceE10MemLabelId18ObjectCreationMode
p8:__Z25GetCommonScriptingClassesv
T6a:__Z27scripting_gc_collect_unsafei
Rrf:_MD5SHA1_HashFinal_m4115488658
BV:__ZN11AudioModule20SuspendVideoTexturesEv
lgh:_Array_InternalArray__ICollection_Add_TisKeyValuePair_2_t71524366_m3468275433_gshared
Vad:__ZN9Scripting11UnityEngine9CSSLayout6Native9InitProxyEv
GU:__Z59Register_UnityEngine_AudioExtensionManager_GetAudioListenerv
jvb:__Z26Transfer_UnityEngineObjectI24GenerateTypeTreeTransferLb0EEvRK29SerializationCommandArgumentsR31RuntimeSerializationCommandInfo
L$g:_Convert_ToDouble_m278900635
e1c:_UNITY_FT_GlyphLoader_CheckPoints
nWe:_DebugLogHandler_LogException_m302830419
wdf:_InputField_LineDownCharacterPosition_m2798128425
nJc:__ZN8GUIState8EndOnGUIEv
LHa:__ZN15SharedLightData7PrecalcEv
Wxa:__ZN10Matrix4x4fmLERKS_
Y3e:_Vector2__ctor_m3970636864
rxa:__ZN17TransformInternal12InitLocalTRSE15TransformAccessRKN4math7_float3ERKNS1_7_float4ES4_
Myb:__Z35Transfer_Blittable_FixedBufferFieldI18StreamedBinaryReadILb1EEsEvRK29SerializationCommandArgumentsR31RuntimeSerializationCommandInfo
Hyg:_Environment_InternalGetFolderPath_m468390978
_kd:__ZN11UnityEngine15PlatformWrapper18GetOperatingSystemEv
bTg:_SecurityFrame_ToString_m339310712
_Yd:__ZL62ParamArrayAttribute_t3664765590_CustomAttributesCacheGeneratorP21CustomAttributesCache
XQc:__ZN8GUIStyle8TransferI8JSONReadEEvRT_
Mxd:_TouchInputModule_ProcessTouchPress_m3504077560
Amf:_Selectable_IsInteractable_m2611421038
K0c:_FT_MSB
pyk:_emscripten_glReadPixels__wrapper
nGh:_HashSet_1_Add_m1971460364_gshared
Xjk:__ZN6il2cpp6icalls8mscorlib4Mono8Security12Cryptography18KeyPairPersistence10_CanSecureEP12Il2CppString
qah:_Array_InternalArray__ICollection_Contains_TisParameterModifier_t1461694466_m1000453323_gshared
fyh:_Dictionary_2_System_Collections_ICollection_CopyTo_m4047192178_gshared
ANj:__ZN6il2cpp2os4File11GetFileStatERKNSt3__212basic_stringIcNS2_11char_traitsIcEENS2_9allocatorIcEEEEPNS0_8FileStatEPi
VMg:_RIPEMD160Managed_Initialize_m2173168986
Mhd:__ZN14UnityAnalytics22HandleCustomEventLimitERN11UnityEngine9Analytics15UserCustomEventE
qtc:__ZN9TransformC2E10MemLabelId18ObjectCreationMode
gLb:__ZN13GfxDeviceGLES14SetRasterStateEPK17DeviceRasterState
P3f:_Assembly_ToString_m2053237013
T_e:_Vector4_Equals_m1779210055
V2c:_otv_Coverage_get_count
uNd:_ParameterModifier_t1461694466_marshal_pinvoke_back
rsa:__ZN14SafeBinaryRead11EndTransferEv
tEh:_EqualityComparer_1__cctor_m2741186979_gshared
UQ:__ZN20SoundChannelInstance19set3DMinMaxDistanceEff
b9g:_Enum_System_IConvertible_ToUInt16_m4216751959
iTb:__ZN21UniformBufferTFMethod13MapBoneBufferEj
Ltj:_StringExtension_Anagram_m968226828
KEi:_Array_InternalArray__Insert_TisInt32_t2950945753_m4073217122_gshared
wNg:_RNGCryptoServiceProvider_RngClose_m3915778345
iYg:_SortedList_Remove_m2784369438
URa:__ZN4crnd12crn_unpacker10unpack_dxnEPPhjjj
a9:__ZN14SerializedFileD2Ev
tIc:__Z30Event_Get_Custom_PropModifiersP12Il2CppObject
uw:__ZN7mecanim9animation16CreateClipOutputEPKNS0_4ClipERNS_6memory9AllocatorE
bif:_RawImage_get_mainTexture_m2396337033
MNj:__ZN6il2cpp2vm10Reflection17GetAssemblyObjectEPK14Il2CppAssembly
GDb:__ZNSt3__218__stable_sort_moveIRN10vector_mapI17ScriptingClassPtrPKN5Unity4TypeENS_4lessIS2_EENS_9allocatorINS_4pairIS2_S6_EEEEE13value_compareENS_11__wrap_iterIPSB_EEEEvT0_SJ_T_NS_15iterator_traitsISJ_E15difference_typeEPNSM_10value_typeE
Udc:__ZN6Shader21AwakeFromLoadThreadedEv
Aha:__ZN6prcoreL17RemapGenericFloatI17TexFormatRGBFloat17TexFormatRGBAHalfEEvPKNS_9InnerInfoE
Msh:_UInt16_System_IConvertible_ToSingle_m2654722405_AdjustorThunk
cpc:__Z58Register_UnityEngine_PlayerConnectionInternal_PollInternalv
H9e:_Vector2_GetHashCode_m3916089713_AdjustorThunk
klk:__ZN6il2cpp2os9SemaphoreC2Eii
Xpb:__ZNSt3__26vectorI8MonoPPtr13stl_allocatorIS1_L18MemLabelIdentifier1ELi16EEE8__appendEj
OZb:__ZN14qsort_internal30FindAndMovePivotToLastPositionIP17RODataReplacementi19ROSorterReplacementEEvT_S4_T0_T1_
tTb:__ZN15UniformTFMethod20IsBoneCountSupportedEi
ivh:_UnauthorizedAccessException__ctor_m246605039
Csk:dynCall_viidi
_Rf:_KeyCollection__ctor_m1356492051_gshared
Y5:__ZN24ScriptingMethodFiltering17FilterOnSignatureENS_18MethodSearchFilterE
Fhd:__ZNSt3__26__treeINS_12__value_typeIN4core12basic_stringIcNS2_20StringStorageDefaultIcEEEEN11UnityEngine9Analytics15UserCustomEvent11CustomValueEEENS_19__map_value_compareIS6_SB_NS_4lessIS6_EELb1EEE13stl_allocatorISB_L18MemLabelIdentifier6ELi16EEE7destroyEPNS_11__tree_nodeISB_PvEE
g0c:_cf2_arrstack_finalize
v6i:_X509Certificate_VerifySignature_m3538124832
yMg:_StreamAsyncResult_SetComplete_m1102187093
Muc:__ZN13MonoBehaviour19HandleNotificationsEPviR11MessageData
V4e:_RectOffset_Init_m2028508611
Llk:__ZN6il2cpp2os9EventImpl5ResetEv
gtf:_Alert__ctor_m3135936936
oHg:_Int64_System_IConvertible_ToInt32_m772105781
p3i:_TlsClientSettings__ctor_m3220697265
NRj:__ZNK15dense_hashtableINSt3__24pairIK10KeyWrapperINS1_IPK9EventInfoP11Il2CppClassEEEjEES9_17ReflectionMapHashIS8_EN14dense_hash_mapIS9_jSD_NS9_14EqualsComparerINS0_8equal_toIS8_EEEENS0_9allocatorISB_EEE9SelectKeyESI_SK_E23find_position_with_hashERSA_j
xrd:__ZL45__ManagedRegistrationHelperFunction_SubsystemPv
vxh:_Dictionary_2_make_pair_m2250450206_gshared
Lkh:_ForwardingDecoder_GetChars_m4228908854
Fjg:_InterpreterFactory_get_GroupCount_m2226373271
jvk:b53
gvk:b50
hvk:b51
mvk:b56
nvk:b57
kvk:b54
lvk:b55
Gs:__ZL45__ManagedRegistrationHelperFunction_HumanBonePv
YMh:_SimpleCollator_IsSafe_m310268646
Vlg:_X509Certificate_get_RawData_m2387471414
Rwk:_glDetachShader__wrapper
rqg:_ArrayTypeMismatchException__ctor_m3375008173
HTf:_Transform_1_BeginInvoke_m1757796657_gshared
Uoa:__ZN9Scripting11UnityEngine7Hash12812CleanupProxyEv
buc:__ZN10GameObject12CleanupClassEv
Ehb:__ZN9GfxDevice25SetShaderPropertiesSharedERK19ShaderPropertySheet
aod:__ZN11UnityEngine7Connect20RemoteConfigSettingsC2ERKN4core12basic_stringIcNS2_20StringStorageDefaultIcEEEEPFvPS1_E18ScriptingObjectPtr
yyd:_BaseMeshEffect_get_graphic_m1852367505
$wg:_CaseInsensitiveHashCodeProvider_GetHashCode_m2168170016
Ykb:__ZN18AsyncUploadManager19AsyncResourceUploadER9GfxDeviceii9TextureID
_pa:__ZN9Scripting11UnityEngine12Experimental18GlobalIllumination11LightDataGI12CleanupProxyEv
Huc:__ZL25InitializeDefaultMaterialv
Led:__Z53Register_UnityEngine_CanvasRenderer_get_materialCountv
BHd:_PropertyBuilder_GetCustomAttributes_m3798356764
yNd:_PropertyInfo_get_MemberType_m2794839864
qkj:_EventTrigger_RemoveRule_m1596811726
rOf:_Comparer_1_System_Collections_IComparer_Compare_m4179495191_gshared
c8a:__ZN17PersistentManager12UnloadStreamERKN4core12basic_stringIcNS0_20StringStorageDefaultIcEEEEb
pfb:__ZN10MemoryFile4ReadEyyPvPy
qFi:_Array_InternalArray__Insert_TisUICharInfo_t75501106_m2924156520_gshared
bgh:_MonoProperty_GetterAdapterFrame_TisRuntimeObject_TisRuntimeObject_m458718082_gshared
IHi:_Array_Sort_TisInt32_t2950945753_TisInt32_t2950945753_m3955828611_gshared
jXj:_il2cpp_unity_liveness_calculation_from_statics
vxi:__Z70RuntimeInvoker_Boolean_t97287965_CharU26_t1697032762_Int16_t2552820387PFvvEPK10MethodInfoPvPS4_
eA:__ZNK26AnimatorControllerPlayable11DerivesFromE17ScriptingClassPtr
HLf:_InternalEnumerator_1_System_Collections_IEnumerator_get_Current_m2649471526_gshared
sVa:__ZN8Renderer8TransferI17RemapPPtrTransferEEvRT_
t8f:_GenericTypeParameterBuilder_GetGenericArguments_m2988765390
DPa:__ZN6prcore16BlitFuncInfoSIMD19BlitFuncExecuteSIMDEPKNS_9InnerInfoEPKv
wpd:__ZN20UnityWebRequestProtoI24UnityWebRequestTransport16AtomicRefCounter14RedirectHelper14ResponseHelper15DownloadHandler13UploadHandler18CertificateHandler12HeaderHelper14AsyncOperationE9DoRequestEv
sPf:_Enumerator_System_Collections_IDictionaryEnumerator_get_Entry_m522483686_gshared
$Rh:_PrivateKeyInfo_RemoveLeadingZero_m3921889925
koh:_Thread_get_CurrentContext_m1695017876
n8b:__Z24LookRotationToQuaternionRK8Vector3fS1_P11Quaternionf
l8b:__ZN16ReflectionProbes9GetCameraEv
_2b:__Z23CalculateLightOcclusionRK17LightProbeContextRK29LightProbeSamplingCoordinatesi
Zic:__ZL18IsGpuProgramUsable20ShaderGpuProgramTypePK6Shader
Jcd:__ZN2UI6Canvas17SetSortingLayerIDEi
m7j:__ZN6il2cpp2vm11MethodStack23CleanupForCurrentThreadEv
u2g:_Convert_ToUInt64_m388601487
RFa:__ZN20TierGraphicsSettings8TransferI24GenerateTypeTreeTransferEEvRT_
pGj:__ZN15dense_hashtableINSt3__24pairIK10KeyWrapperIN6il2cpp5utils13dynamic_arrayIPK10Il2CppTypeLj4EEEEPFvvEEESA_NS3_8metadata19Il2CppSignatureHashEN14dense_hash_mapISA_SD_SG_NSA_14EqualsComparerINSF_22Il2CppSignatureCompareEEENS0_9allocatorISE_EEE9SelectKeyESK_SM_E16reset_thresholdsEv
a8e:_TouchScreenKeyboard_get_text_m1797464608
tNa:__ZN18UnityPropertySheet8TransferI19StreamedBinaryWriteILb0EEEEvRT_
ct:__ZN9Scripting11UnityEngine27AnimatorControllerParameter9InitProxyEv
fga:__ZNSt3__26__treeINS_12__value_typeIiN11TypeManager18TypeCallbackStructEEENS_19__map_value_compareIiS4_NS_4lessIiEELb1EEENS_9allocatorIS4_EEE7destroyEPNS_11__tree_nodeIS4_PvEE
rBa:__ZN9ShaderLab32FindBestMatchingShaderKeywordSetERK16ShaderKeywordSetRK13dynamic_arrayIS0_Lj0EEPS5_
Fzc:__ZNK14PlayableOutput23GetSourcePlayableUnsafeEv
Ujd:__ZN11UnityEngine7Connect17XRDeviceInfoEventD0Ev
j4d:__ZL60SoapTypeAttribute_t1750930817_CustomAttributesCacheGeneratorP21CustomAttributesCache
u4f:_Binder_ConvertArgs_m2124461494
sdc:__ZN21UnityDefaultAllocatorI17LowLevelAllocatorE10DeallocateEPv
Tyk:b86
MH:__ZN15PackedIntVector8TransferI14SafeBinaryReadEEvRT_
V9e:_Vector3__ctor_m3353183577_AdjustorThunk
lEf:_InternalEnumerator_1_System_Collections_IEnumerator_get_Current_m1514266661_gshared
Qrf:_MD5SHA1_Initialize_m675470944
Ygh:_Array_InternalArray__ICollection_Add_TisKeyframe_t4206410242_m442111799_gshared
gSi:_List_1_CheckMatch_m3263549496_gshared
W2e:_PropertyNameUtils_PropertyNameFromString_Injected_m1259736140
mT:__ZN13AudioListener8DoUpdateEv
anc:__ZL34GetComponentsImplementationRecurseILb0ELi0ELi0EEbR10GameObjectbRK17CompareParametersRK39GetComponentsImplementation_ReturnValue
B_e:__Z13bankers_roundd
w2a:__ZN14SafeBinaryRead8TransferI5RectTIfEEEvRT_PKc17TransferMetaFlags
qi:_emscripten_glGenFramebuffers
aga:__ZN17BaseObjectManager16StaticInitializeEPv
Una:__ZN9Scripting11UnityEngine9Profiling8Profiler12CleanupProxyEv
PNc:__Z18Transfer_BlittableI9JSONWriteLb0EyEvRK29SerializationCommandArgumentsR31RuntimeSerializationCommandInfo
FKa:__ZN13RenderTexture15ThreadedCleanupEv
Yeg:_X509BasicConstraintsExtension__ctor_m3721156175
zQa:__ZN12CubemapArray23VirtualRedirectTransferER14SafeBinaryRead
xw:__ZN21AnimationClipPlayable16ProcessHumanPassEPK35AnimationPlayableEvaluationConstantPK32AnimationPlayableEvaluationInputP33AnimationPlayableEvaluationOutput
Yyg:_Path_GetFileName_m1354558116
TDc:__Z51Register_UnityEngine_QualitySettings_set_vSyncCountv
Ovk:_emscripten_glUniform3i__wrapper
tNh:_SimpleCollator_IsPrefix_m3581642267
D4e:_Rect_Contains_m1232228501_AdjustorThunk
Vlc:__Z43RectTransform_CUSTOM_INTERNAL_set_sizeDeltaP12Il2CppObjectRK13Vector2fIcall
xHg:_Int64_System_IConvertible_ToType_m3223988955_AdjustorThunk
a3j:__ZN15dense_hashtableINSt3__24pairIK10KeyWrapperINS1_IPKcS4_EEEiEES6_24NamespaceAndNamePairHashN14dense_hash_mapIS6_iS9_NS6_14EqualsComparerI26NamespaceAndNamePairEqualsEENS0_9allocatorIS8_EEE9SelectKeyESD_SF_E6insertERKS8_
fua:__ZN24GenerateTypeTreeTransfer18BeginArrayTransferEPKcS1_Ri17TransferMetaFlags
jLi:_Array_InternalArray__get_Item_TisPlayableBinding_t354260709_m3837494573_gshared
pm:___syscall51
jWg:_String_CreateString_m4016935005
s9i:_MatchCollection_get_FullList_m1829231879
tm:___syscall54
hpg:_Array_GetValue_m2528415604
S8e:_Transform_INTERNAL_CALL_TransformPoint_m4261269221
IEg:_Guid_AppendShort_m791023083
CSi:_List_1__ctor_m4212503576_gshared
K7c:_ft_var_get_item_delta
Mwg:_BitArrayEnumerator_MoveNext_m3806676766
f1c:_cff_builder_add_point1
j4j:__ZN6il2cpp2vm5Image21GetCachedResourceDataEPK11Il2CppImageRKNSt3__212basic_stringIcNS5_11char_traitsIcEENS5_9allocatorIcEEEE
Fob:__Z18Transfer_BlittableI14SafeBinaryReadLb0E10ColorRGBAfEvRK29SerializationCommandArgumentsR31RuntimeSerializationCommandInfo
za:invoke_iiiiiiiiii
vU:__ZN11AudioSource25GetNumExtensionPropertiesEv
iih:_Array_InternalArray__ICollection_CopyTo_TisUILineInfo_t4195266810_m104406798_gshared
I_e:_Mathf_Lerp_m1004423579
aWe:_Debug_LogErrorFormat_m3558239521
sEd:_Graphic_get_canvas_m3320066409
Vcf:_InputField_ActivateInputFieldInternal_m3360893886
j8i:_RijndaelManagedTransform__ctor_m1033522223
Acc:__ZN10FileSystem19SetCurrentDirectoryERKN4core12basic_stringIcNS0_20StringStorageDefaultIcEEEE
lVe:_Component_get_gameObject_m442555142
J8:__ZN16ScriptingManager24NotifyScriptCacheReleaseEi
wtc:__ZN23TransformChangeDispatch24RemovePermanentInterestsE15TransformAccessPKN5Unity4TypeE
TEc:__Z47Register_UnityEngine_Coroutine_ReleaseCoroutinev
EL:__ZN15AudioReverbZone13SetFMODValuesEv
h7:__ZN14SafeBinaryRead4InitERK16TypeTreeIteratorxx24TransferInstructionFlags10MemLabelId
K2:__ZL19StaticDestroyShaderPv
$d:_glRenderbufferStorageMultisample
qB:__ZN23AnimationPlayableOutput17SetTargetAnimatorEP8Animator
q0b:__ZN22MotionVectorRenderLoopD2Ev
sSe:_Debug_LogException_m2207318968
fse:__ZL76AnimatorTransitionInfo_t2534804151_CustomAttributesCacheGenerator_m_FullPathP21CustomAttributesCache
fgh:_Array_InternalArray__ICollection_Add_TisClientCertificateType_t1004704908_m2622721177_gshared
VH:__ZN17PackedFloatVector8TransferI18StreamedBinaryReadILb0EEEEvRT_
ZQa:__ZN7Cubemap23VirtualRedirectTransferER17RemapPPtrTransfer
XGc:__Z37Register_UnityEngine_Screen_get_widthv
bzj:_UnityAnalyticsHandler_SendCustomEvent_m1223269116
Hej:_Uri_get_Authority_m3816772302
Nkc:__ZN22BlockMemoryCacheWriter11GetPathNameEv
Qpf:_BigInteger_op_Division_m3713793389
V7e:_Touch_get_position_m3109777936
CMd:_ParameterInfo__ctor_m3269320476
Zhg:_X509SubjectKeyIdentifierExtension_FromHexChars_m3244835916
OTg:_Single_CompareTo_m2785801815
e5i:_PKCS12_MAC_m3355614022
Yo:stackAlloc
Bfb:__ZN25SingleBlockMemoryFileData4LockEPPv
tzk:_glProgramParameteri__wrapper
Znc:__Z32RectOffset_Get_Custom_PropBottomP12Il2CppObject
YVe:_Debug_LogError_m2850623458
Fpj:__ZL24UnresolvedVirtualCall_79P12Il2CppObjectPK10MethodInfo
hec:__ZNSt3__26__treeINS_12__value_typeIN4core12basic_stringIcNS2_20StringStorageDefaultIcEEEE4PPtrI7TextureEEENS_19__map_value_compareIS6_SA_NS_4lessIS6_EELb1EEENS_9allocatorISA_EEE7destroyEPNS_11__tree_nodeISA_PvEE
nni:__Z69RuntimeInvoker_UInt64_t4134040092_Int32_t2950945753_SByte_t1669577662PFvvEPK10MethodInfoPvPS4_
Tnk:_stat
yBa:__ZN9ShaderLab10SubProgram7CompileEv
uHd:_PropertyBuilder_get_CanRead_m3783190070
g9:__ZN14SerializedFile14SerializedTypeD2Ev
Huf:_CipherSuiteCollection_System_Collections_IList_get_Item_m2175128671
pya:__ZN6CameraD2Ev
qFc:__Z50Register_UnityEngine_Camera_get_pixelRect_Injectedv
la:invoke_iiiiiiiiiiii
x3g:_DateTime_System_IConvertible_ToType_m1242864300_AdjustorThunk
RKf:_InternalEnumerator_1_get_Current_m2446410893_AdjustorThunk
aDa:__Z29CalculateDefaultChannelsToAdd17ShaderChannelMaskS_
_pg:_Array_Sort_m870838517
gUb:__ZNSt3__26__treeI20DeviceBlendStateGLES14MemoryCompLessI16DeviceBlendStateENS_9allocatorIS1_EEE7destroyEPNS_11__tree_nodeIS1_PvEE
bwj:_CanvasRenderer_SetMaterial_m633746949
OP:__ZN10AudioMixer12RebindOutputEv
zZj:__ZNK15dense_hashtableINSt3__24pairIK10KeyWrapperIP11Il2CppClassES4_EES5_N6il2cpp8metadata16SZArrayClassHashEN14dense_hash_mapIS5_S4_SA_NS5_14EqualsComparerINS9_19SZArrayClassCompareEEENS0_9allocatorIS7_EEE9SelectKeyESE_SG_E5beginEv
dkf:_Selectable_get_navigation_m3508916916
Zff:_LayoutRebuilder_PerformLayoutControl_m4241054021
uBj:__ZN6il2cpp2vm17SetupFieldsLockedEP11Il2CppClassRKNS_2os12FastAutoLockE
hQ:__ZN11AudioSourceD0Ev
cRb:__ZN18GlslGpuProgramGLES13SwitchProgramEj
SUb:__ZN20ArchiveStorageReaderC2E10MemLabelId
Xdi:__Z132RuntimeInvoker_Int32_t2950945753_RuntimeObject_Int32_t2950945753_Int32_t2950945753_RuntimeObject_Int32_t2950945753_Int32_t2950945753PFvvEPK10MethodInfoPvPS4_
jgb:__ZN16MemoryFileSystem4NameEv
HDc:__Z13SetCopyBufferRKN4core12basic_stringIcNS_20StringStorageDefaultIcEEEE
I3i:_TlsException__ctor_m818940807
dmg:_X509CertificateEnumerator_System_Collections_IEnumerator_get_Current_m418791713
Wgd:__ZN14UnityAnalyticsD2Ev
Omc:__Z42ScriptingGetComponentsOfTypeFromGameObjectRK26ScriptingGetComponentsArgs
KFd:_GridLayoutGroup_set_startAxis_m837106447
rme:__ZL73ArgumentCache_t2187958399_CustomAttributesCacheGenerator_m_ObjectArgumentP21CustomAttributesCache
QIi:_Array_swap_TisRaycastResult_t3360306849_TisRaycastResult_t3360306849_m3400922624_gshared
HVc:__ZN9Scripting11UnityEngine21ControllerColliderHit9InitProxyEv
NPe:_CspParameters__ctor_m2741097571
QNa:__ZNSt3__27__sort4IRPFbRKNS_4pairIN9ShaderLab16FastPropertyNameEN18UnityPropertySheet11UnityTexEnvEEES8_EPS6_EEjT0_SD_SD_SD_T_
e0c:_cf2_hintmap_build
Cmc:__Z11StringToIntRKN4core16basic_string_refIcEE
b9c:_Line_Up
ge:_emscripten_glBufferSubData
NVg:_String_ReplaceUnchecked_m1381393810
bja:__ZN6prcoreL12RemapGenericI15TexFormatRGB88817TexFormatARGB8888EEvPKNS_9InnerInfoE
Sp:__Z17CalculateGlobalRS23TransformAccessReadOnly
L9c:__Z56Register_UnityEngine_TextGenerator_GetCharactersInternalv
uik:__ZNSt3__210__list_impIPN6il2cpp5utils10MemoryPool6RegionENS_9allocatorIS5_EEE5clearEv
mGb:__ZNK25PathNamePersistentManager24PathIDToPathNameInternalEi
ecb:__ZNK12HandlerChain7ToLocalERK13FileEntryDataRN4core12basic_stringIcNS3_20StringStorageDefaultIcEEEERyS9_
_8a:__ZN22MemoryCacherReadBlocks14LockCacheBlockEjPPhS1_
UUj:__ZN6il2cpp2vm14TypeNameParser17ParseAssemblyNameEv
ZZa:__ZNK9GfxDevice26GetSinglePassStereoEyeMaskEv
kWe:_DebugLogHandler_Internal_Log_m4175774469
ick:__ZN4utf88internal15increase_safelyIPKcEENS0_9utf_errorERT_S5_
aug:_CharEnumerator_get_Current_m525608209
ptd:__Z21ArrayElementTypeCheckP11Il2CppArrayPv
zyk:_emscripten_glTexSubImage2D__wrapper
yWa:__ZN18StreamedBinaryReadILb0EE21TransferSTLStyleArrayI13dynamic_arrayI33EnlightenTerrainChunksInformationLj0EEEEvRT_17TransferMetaFlags
J_d:__ZL69DebuggerBrowsableAttribute_t1026244177_CustomAttributesCacheGeneratorP21CustomAttributesCache
Ala:__ZL48__ManagedRegistrationHelperFunction_LightmapDataPv
Lpk:__ZNSt3__212basic_stringIcNS_11char_traitsIcEENS_9allocatorIcEEE6appendEjc
wDb:__Z13TransferFieldI18StreamedBinaryReadILb0EELb0E16Converter_StringEvRK23StaticTransferFieldInfoR31RuntimeSerializationCommandInfoRT1_
Ddd:__Z42Register_UnityEngine_Canvas_get_rootCanvasv
Upb:__Z14resize_trimmedINSt3__26vectorI8MonoPPtr13stl_allocatorIS2_L18MemLabelIdentifier1ELi16EEEEEvRT_j
Pe:_TTF_RenderText_Solid
dMi:_List_1__ctor_m3947764094_gshared
bYc:__ZN20TextRenderingPrivate21TextMeshGeneratorImpl5FlushEv
ydj:_Parser_IsIgnorePatternWhitespace_m2107132682
Ihd:__ZN14UnityAnalytics15Internal_CreateE18ScriptingObjectPtr
Xbg:_HttpRequestCreator_Create_m400548686
bod:__ZN11UnityEngine7Connect16PersistentValuesC2Ev
d2h:_ReadOnlyCollection_1_System_Collections_IList_Insert_m134149130_gshared
tNc:__Z18Transfer_BlittableI9JSONWriteLb0E5RectTIiEEvRK29SerializationCommandArgumentsR31RuntimeSerializationCommandInfo
gOh:_BigInteger_get_Rng_m4216817480
n$c:_cf2_getStdVW
gbh:_Array_InternalArray__ICollection_Remove_TisDateTime_t3738529785_m2250893026_gshared
SKb:__Z15IsIEEE754Format14GraphicsFormat
D9:__ZL12CreateStringPjR13dynamic_arrayIcLj0EEPKc
Ctb:__Z19TransferField_ArrayI17RemapPPtrTransfer27Converter_UnityEngineObjectEvRK23StaticTransferFieldInfoR31RuntimeSerializationCommandInfoRT0_
Lxg:_KeyNotFoundException__ctor_m541499307
Ech:_SetPropertyUtility_SetStruct_TisSpriteState_t1362986479_m665096788_gshared
rei:__Z61RuntimeInvoker_Single_t1397266774_RuntimeObject_RuntimeObjectPFvvEPK10MethodInfoPvPS4_
mbh:_Array_InternalArray__ICollection_Remove_TisIntPtr_t_m3807208150_gshared
cqi:__Z71RuntimeInvoker_Void_t1185182177_Vector3_t3722313464_Vector3_t3722313464PFvvEPK10MethodInfoPvPS4_
pHf:_InternalEnumerator_1_get_Current_m2316281569_AdjustorThunk
I_g:_DateTime__ctor_m1095105629
hMb:__ZN13GfxDeviceGLES15UploadTexture2DE9TextureID16TextureDimensionPKhiii14GraphicsFormati18TextureUploadFlags16TextureUsageMode
nfj:_Event_Cleanup_m2477919477
FO:__ZN4FMOD6System9createDSPEP20FMOD_DSP_DESCRIPTIONPPNS_3DSPE
u8d:__ZL87Thread_t2300836069_CustomAttributesCacheGenerator_Thread_GetCompressedStack_m2923422412P21CustomAttributesCache
Szf:_SslClientStream_get_ClientCertificates_m998716871
PM:__ZN4FMOD8ChannelI11EndCallbackEv
RJc:__ZN8GUIStyle14SetDefaultFontEPN13TextRendering4FontE
ATa:__ZN15QualitySettings23VirtualRedirectTransferER24GenerateTypeTreeTransfer
iMe:_ObjectReader_ReadValue_m3145979203
gK:__ZN9Scripting11UnityEngine24AssetBundleCreateRequest9InitProxyEv
plc:__Z49Sprite_Get_Custom_PropAssociatedAlphaSplitTextureP12Il2CppObject
nzd:_CanvasScaler_OnDisable_m3424669401
FEc:__Z59Register_UnityEngine_MonoBehaviour_Internal_CancelInvokeAllv
zCe:__ZL68Scrollbar_t1494447233_CustomAttributesCacheGenerator_m_NumberOfStepsP21CustomAttributesCache
EEj:__ZN30dense_hashtable_const_iteratorINSt3__24pairIK10KeyWrapperIPK19Il2CppGenericMethodEPK26Il2CppGenericMethodIndicesEES6_N6il2cpp8metadata23Il2CppGenericMethodHashEN14dense_hash_mapIS6_SA_SE_NS6_14EqualsComparerINSD_26Il2CppGenericMethodCompareEEENS0_9allocatorISB_EEE9SelectKeyESI_SK_EppEv
$Yc:_UNITY_FT_Request_Metrics
X1j:__ZN6il2cpp6icalls8mscorlib6System10Reflection10MonoMethod29get_IsGenericMethodDefinitionEP22Il2CppReflectionMethod
EYj:__ZN6il2cpp2vm6Thread21AllocThreadStaticDataEi
gEa:__ZL12CopyChannelsj17ShaderChannelMaskRA4_K10StreamInfoRA12_K11ChannelInfoPKhS3_S7_Ph
w4f:_Default_SelectMethod_m469311730
pZe:_Input_get_mousePosition_m1616496925
qbk:__ZN30dense_hashtable_const_iteratorINSt3__24pairIK10KeyWrapperIPK19Il2CppGenericMethodEP10MethodInfoEES6_N6il2cpp8metadata23Il2CppGenericMethodHashEN14dense_hash_mapIS6_S9_SD_NS6_14EqualsComparerINSC_26Il2CppGenericMethodCompareEEENS0_9allocatorISA_EEE9SelectKeyESH_SJ_EppEv
fuh:_UInt32_ToString_m2066897296_AdjustorThunk
WWg:_Enumerator_Reset_m4274366540
SMc:__Z18Transfer_BlittableI9JSONWriteLb0E8Vector3fEvRK29SerializationCommandArgumentsR31RuntimeSerializationCommandInfo
Of:_emscripten_glUniform4i
T0e:_PlayerConnection_RegisterDisconnection_m2618599213
_e:_emscripten_glUniform4f
wj:___unlock
i3i:_TlsCipherSuite_ComputeServerRecordMAC_m3941098609
d2c:_otv_validate
Wac:__ZN13sorted_vectorINSt3__24pairIN4core12basic_stringIcNS2_20StringStorageDefaultIcEEEES6_EEN10vector_mapIS6_S6_27compare_tstring_insensitiveIS6_E13stl_allocatorIS7_L18MemLabelIdentifier38ELi16EEE13value_compareESD_E9erase_oneIS6_EEjRKT_
NQg:_X509Certificate_Equals_m3784196370
mWi:_List_1__ctor_m3376067838_gshared
SQ:__ZN20SoundChannelInstance19setReverbPropertiesEP29FMOD_REVERB_CHANNELPROPERTIES
eJh:_Enumerator_MoveNext_m1446151600_gshared
BOg:_SHA1Internal_ProcessFinalBlock_m1403775421
OXi:_Queue_1_System_Collections_ICollection_CopyTo_m3452613063_gshared
Jqc:__Z40Register_UnityEngine_Transform_IsChildOfv
wJe:_RemotingServices_GetOrCreateClientIdentity_m648299611
TMf:_InternalEnumerator_1_get_Current_m2356858238_AdjustorThunk
Poc:__Z45Register_UnityEngine_Display_GetSystemExtImplv
pSh:_RSAManaged_ImportParameters_m1844641996
zPf:_Enumerator_System_Collections_IDictionaryEnumerator_get_Value_m3325938730_AdjustorThunk
yx:__ZN7mecanim9animation23TransformValuesFromClipEiiiRKNS_10ValueArrayERKNS0_10ClipOutputERKNS0_12ClipBindingsERS1_RNS_14ValueArrayMaskEb
lFa:__ZN14SafeBinaryRead21TransferSTLStyleArrayI13dynamic_arrayI21PlatformShaderDefinesLj0EEEEvRT_17TransferMetaFlags
IUc:__GLOBAL__sub_I_Runtime_Dynamics_0_cpp
pXf:_ValueCollection_System_Collections_ICollection_get_SyncRoot_m1114275063_gshared
Hyj:__ZL17log2withScale_128yyi
yEg:_Guid_Equals_m1866984197
bhd:__ZN14UnityAnalytics19ConfigChangedStaticEPS_RKN4core12basic_stringIcNS1_20StringStorageDefaultIcEEEER8JSONReadb
j3f:_PlatformNotSupportedException__ctor_m1787918017
Sda:__ZN13RuntimeStaticI15DirectorManagerLb0EE16StaticInitializeEPv
d$h:_ReadOnlyCollection_1_System_Collections_ICollection_CopyTo_m2643246984_gshared
w1a:__ZN11TimeManager6UpdateEv
WJh:_Enumerator_System_Collections_IEnumerator_get_Current_m209407522_gshared
gzd:_CanvasScaler_get_fallbackScreenDPI_m2811935689
Er:__ZNK16ParentConstraint18GetTranslationAxisEv
CAg:_DateTimeFormatInfo_ReadOnly_m890935083
Tef:_LayoutElement_set_preferredHeight_m1999633022
_nk:_fflush
m7a:__ZN17LightProbeContext4InitERK16LightmapSettingsRK14RenderSettings
P3b:__ZN18DeferredRenderLoop14RenderLightingER21ActiveLightingContextP13RenderTexture9TextureIDPS3_iRK8Vector4fRK14LightingLayersR10MinMaxAABBb12ObjectHandleI17RenderSurface_TagP17RenderSurfaceBaseE
w6e:_SceneManager_Internal_ActiveSceneChanged_m3676176255
X7g:_Double_System_IConvertible_ToInt16_m3591921965
hZa:__ZN9Texture3DD2Ev
dVh:_Collection_1_set_Item_m4280581817_gshared
YZg:_Convert_ToChar_m2796006345
pFi:_Array_InternalArray__Insert_TisContentType_t1787303396_m3566390691_gshared
bca:__ZN5CacheD2Ev
qvg:_ArrayListWrapper_GetEnumerator_m2336495952
t6b:__Z34ProcessIndexListIsNodeVisibleStep2RK22SceneCullingParametersPK9SceneNodePK4AABBR9IndexList
eEb:__ZN10MonoScriptD2Ev
soa:__ZN9Scripting11UnityEngine10Networking16PlayerConnection16PlayerConnection12CleanupProxyEv
MTb:__ZN19ConstantBuffersGLES8UpdateCBE5CbKeyPKvj
Bmj:_AudioSource_get_spatializeInternal_m2117549793
irc:__Z39Input_CUSTOM_INTERNAL_get_mousePositionP8Vector3f
DMe:_SerializationCallbacks_GetMethodsByAttribute_m2095490433
J4c:_tt_cmap13_char_next
Hxe:__ZL117EventSystem_t1003666588_CustomAttributesCacheGenerator_EventSystem_t1003666588____lastSelectedGameObject_PropertyInfoP21CustomAttributesCache
CWb:__ZN9ShaderLab4Pass16SetupPassOptionsEv
ch:_JS_Sound_ReleaseInstance
NXj:_il2cpp_type_equals
aEg:_Guid_CheckArray_m921056615
LRd:_ConfigHandler_ReadLifetine_m208994800
hli:__Z96RuntimeInvoker_IntPtr_t_SByte_t1669577662_SByte_t1669577662_RuntimeObject_BooleanU26_t4125257963PFvvEPK10MethodInfoPvPS4_
w_j:__ZN6il2cpp6icalls8mscorlib6System7Runtime15InteropServices7Marshal19copy_from_unmanagedEiiP11Il2CppArrayi
ush:_UInt16_System_IConvertible_ToByte_m3185614807_AdjustorThunk
h4e:_Rect_get_max_m350137314_AdjustorThunk
Dm:FUNCTION_TABLE_diddi
V$j:__ZN6il2cpp6icalls8mscorlib6System5Array8FastCopyEP11Il2CppArrayiS5_ii
Abd:__ZNK2UI14CanvasRenderer22GetTypeVirtualInternalEv
moc:__Z42Register_UnityEngine_RectOffset_get_bottomv
Bnk:_newlocale
Jrb:__ZN9BoundsInt8TransferI14SafeBinaryReadEEvRT_
H$b:__Z20DoDeferredRenderLoopRK17RenderLoopContextR13dynamic_arrayI16RenderObjectDataLj0EES5_RK11CullResultsRP13RenderTextureSB_Pb
Cwk:_emscripten_glUniform1f__wrapper
Hrk:dynCall_di
t6a:__ZN21EnlightenSceneMapping6AppendEiRKS_
XWe:_BaseInvokableCall_AllowInvoke_m878393606
AMc:__Z28RegisterModule_JSONSerializev
pUc:__ZL57__ManagedRegistrationHelperFunction_CachedContactPoints2DPv
$9a:__ZN2UI13RectTransform8TransferI14SafeBinaryReadEEvRT_
LNc:__Z35Transfer_Blittable_FixedBufferFieldI9JSONWriteaEvRK29SerializationCommandArgumentsR31RuntimeSerializationCommandInfo
lTe:_Behaviour_get_enabled_m753527255
kpc:__Z20IsHumanControllingUsv
v1:__ZNK20DynamicHeapAllocatorI17LowLevelAllocatorE10GetPtrSizeEPKv
k$d:__ZL51TextInfo_t3810425522_CustomAttributesCacheGeneratorP21CustomAttributesCache
xmc:__ZN10systeminfo21GetPersistentDataPathEv
GLb:__ZN13GfxDeviceGLES17DestroyGpuProgramEPK10GpuProgram
nGi:_Array_InternalArray__set_Item_TisRaycastResult_t3360306849_m730888808_gshared
cob:__Z44InitializeTransferFunctionScriptingTraitsForI18StreamedBinaryReadILb0EEEvR31TransferFunctionScriptingTraits
$1b:__ZNSt3__218__insertion_sort_3IR23CompareReflectionProbesP31RuntimeReflectionProbeBlendInfoEEvT0_S5_T_
Mtb:__ZN12NativeBufferI27Converter_SimpleNativeClassI8GradientEE15SetupForWritingER9ArrayInfo
OOh:_Kernel_RightShift_m2207393597
Mga:__ZNSt3__213__stable_sortIRNS_4lessIN4core12basic_stringIcNS2_20StringStorageDefaultIcEEEEEENS_11__wrap_iterIPS6_EEEEvT0_SC_T_NS_15iterator_traitsISC_E15difference_typeEPNSF_10value_typeEi
xFe:__ZL48Shadow_t773074319_CustomAttributesCacheGeneratorP21CustomAttributesCache
N2:__ZN12_GLOBAL__N_113StaticDestroyEPv
kJc:__ZNK8GUIStyle4DrawER8GUIStateRK5RectTIfER10GUIContentbbbb
mBk:_glUnmapBuffer__wrapper
sRc:__ZN8JSONRead21TransferSTLStyleArrayINSt3__26vectorI8Gradient13stl_allocatorIS3_L18MemLabelIdentifier1ELi16EEEEEEvRT_17TransferMetaFlags
x3a:__ZNSt3__218__insertion_sort_3IRNS_6__lessINS_4pairIPKN5Unity4TypeE7Hash128EES8_EEPS8_EEvT0_SC_T_
Ybf:_InputField_set_onValueChanged_m3658917578
uvb:__ZN10RectOffset8TransferI24GenerateTypeTreeTransferEEvRT_
HIg:_BinaryReader__ctor_m2266204403
fqa:__ZN9Scripting11UnityEngine6Events14UnityEventBase9InitProxyEv
NHh:_Enumerator_VerifyState_m3047769867_AdjustorThunk
Gub:__Z18Transfer_BlittableI24GenerateTypeTreeTransferLb1E5RectTIiEEvRK29SerializationCommandArgumentsR31RuntimeSerializationCommandInfo
A9i:_Enumerator_System_Collections_IEnumerator_Reset_m24787251
Lbd:__ZN2UI13CanvasManager19RemoveDirtyRendererEPNS_6CanvasEPNS_14CanvasRendererE
Dmk:_isspace
sKe:_BinaryFormatter__ctor_m2620705134
Mkd:__ZN11UnityEngine15PlatformWrapper25GetGraphicsRendererStringEv
xmh:_UTF7Encoding_InternalGetBytes_m797138468
Psc:__ZZL31RegisterRectTransformPropertiesR22GenericPropertyBindingEN39Wrapper_RectTransformAnchoredPositiony113SetFloatValueEPvf
Z$:__ZN11UnityEngine15CloudWebService17WebFileDownloaderINS0_20WebRequestRestClientENS0_23WebRequestRestHeaderMapEED2Ev
Nb:invoke_vi
hM:__ZN12AudioManager8InitFMODE15FMOD_OUTPUTTYPE
Cmg:_SmallXmlParser_HandleWhitespaces_m549588711
Lb:invoke_vd
Lya:__ZNK6Camera19GetStereoViewMatrixE15StereoscopicEye
o9i:_Regex_get_RightToLeft_m2317867572
Daa:__ZNK10GameObject8IsActiveEv
OGc:__Z34Component_Get_Custom_PropTransformP12Il2CppObject
Uve:__ZL67g_UnityEngine_PhysicsModule_Assembly_CustomAttributesCacheGeneratorP21CustomAttributesCache
VQb:__ZN18GfxFramebufferGLES23SetupDefaultFramebufferEPP17RenderSurfaceBaseS2_N2gl6HandleILNS3_10ObjectTypeE9EEE
ZBd:_DefaultControls_CreateDropdown_m3286664171
cZa:__ZN13ScreenManager18RequestOrientationE17ScreenOrientation
TBj:__ZN6il2cpp2vm5Class12SetupMethodsEP11Il2CppClass
gCc:__Z39DeleteLastPathNameComponentWithAnySlashRKN4core12basic_stringIcNS_20StringStorageDefaultIcEEEE
zKc:__ZN10GUIManager14InitGUIManagerEv
Wsh:_UInt16_Equals_m642257745
Jog:_Array_System_Collections_IList_IndexOf_m3301661616
Z3f:_AssemblyFileVersionAttribute__ctor_m3720707642
YOd:_RuntimeResourceSet_CloneDisposableObjectIfPossible_m2725520898
VJc:__Z37Register_UnityEngine_GUIStyle_Cleanupv
Ka:invoke_iiifii
AFc:__Z26Mesh_CUSTOM_SetIndicesImplP12Il2CppObjecti16GfxPrimitiveTypeP11Il2CppArrayihi
Qmf:_SliderEvent__ctor_m3149452941
Olg:_DeriveBytes__cctor_m1212925033
IEd:_Graphic_OnDisable_m1097930217
yMj:__ZN6il2cpp6icalls8mscorlib6System8MonoType13IsPointerImplEP20Il2CppReflectionType
Pi:_emscripten_glFramebufferRenderbuffer
X4b:__ZN19CullingGroupManager17CullAndSendEventsERK22SceneCullingParametersiRK13CullingOutputRK8JobFence
exa:__ZN9Transform30EnsureTransformHierarchyExistsEv
Sqh:_Type_FilterName_impl_m2651733559
PV:__ZN11AudioModule26SetDefaultMicrophoneDriverEPv
Bpc:__Z46Register_UnityEngine_Application_get_isPlayingv
jDc:__ZN13MonoBehaviour13StopCoroutineEPKc
Iac:__ZNSt3__26vectorINS_4pairIN4core12basic_stringIcNS2_20StringStorageDefaultIcEEEEPK17MessageIdentifierEENS_9allocatorISA_EEE12__move_rangeEPSA_SE_SE_
PZb:__ZN14qsort_internal17MedianOfThreeSwapIP17RODataReplacement19ROSorterReplacementEEvT_S4_S4_T0_
NUg:_String_Split_m3646115398
Z4e:_RectOffset_ToString_m2007443979
JAj:__ZNK15dense_hashtableINSt3__24pairIK10KeyWrapperIPK22Il2CppGenericParameterEP11Il2CppClassEES6_N6il2cpp5utils11PointerHashIS4_EEN14dense_hash_mapIS6_S9_SE_NS6_14EqualsComparerINS0_8equal_toIS5_EEEENS0_9allocatorISA_EEE9SelectKeyESJ_SL_E3endEv
fCc:__ZN17TransformInternal36OnScaleChangedCalculateTransformTypeE15TransformAccess
Kdb:__ZN17ArchiveFileSystem10ToAbsoluteEPKc
Txc:__Z13RegisterClassI11PreloadDataEvPKc
iFc:__Z35Camera_CUSTOM_RaycastTry2D_InjectedP12Il2CppObjectRK3Rayfi
xld:__ZN19UnityConnectService15GetPlayerUserIdEv
ufh:_Array_InternalArray__IndexOf_TisSByte_t1669577662_m4156538463_gshared
EC:__ZN7mecanim6CRCKeyENS_7eStringE
roc:__ZL12SetPrefValueRKN4core12basic_stringIcNS_20StringStorageDefaultIcEEEERK9PrefValue
kac:__Z21GetBackgroundJobQueuev
MZa:__ZN19ShaderPropertySheet20ReservePropertyCountEj
Qbk:__ZN6il2cpp5utils11StringUtils6PrintfEPKcz
PZj:__ZNSt3__26vectorIN6il2cpp8metadata18GenericArrayMethodENS_9allocatorIS3_EEE7reserveEj
ZNa:__ZN15NameToObjectMapI6ShaderNSt3__23mapI4PPtrIS0_EN4core12basic_stringIcNS5_20StringStorageDefaultIcEEEENS1_4lessIS4_EENS1_9allocatorINS1_4pairIKS4_S9_EEEEEENS1_8multimapIS9_S4_NSA_IS9_EENSC_INSD_IKS9_S4_EEEEEEE4FindERSK_
WPa:__ZN24GenerateTypeTreeTransfer21TransferResourceImageE19ActiveResourceImagePKcR13StreamingInfoPvjiPKN5Unity4TypeE
yIi:_Array_Sort_TisVector3_t3722313464_m1030213405_gshared
A5j:__ZN6il2cpp2vm6Object5CloneEP12Il2CppObject
Vjk:__ZN6il2cpp6icalls8mscorlib6System9Threading5Mutex20CreateMutex_internalEbP12Il2CppStringPb
Zle:__ZL47Time_t2420636075_CustomAttributesCacheGeneratorP21CustomAttributesCache
yVe:_Coroutine_Finalize_m1957108547
cij:_KeyBuilder_Key_m2503211157
xGa:__ZNSt3__212__deque_baseI18ReflectionProbeJobNS_9allocatorIS1_EEED2Ev
ZB:__ZN11UnityEngine9Animation27DestroyAnimationSetBindingsEPNS0_20AnimationSetBindingsERN7mecanim6memory9AllocatorE
Vec:__ZN15dense_hashtableINSt3__24pairIKiN4core17string_with_labelILi1EEEEEi18SInt32HashFunctionN14dense_hash_mapIiS5_S7_NS0_8equal_toIiEE13stl_allocatorIS6_L18MemLabelIdentifier1ELi16EEE9SelectKeyESA_SD_E13set_empty_keyERKS6_
oVe:_Component_GetComponentInChildren_m388868270
yFh:_GenericEqualityComparer_1_Equals_m1705889345_gshared
wI:__ZN8Animator12CleanupClassEv
Nbg:_FtpWebRequest__cctor_m699542155
$rg:_Byte_System_IConvertible_ToBoolean_m2888023769
F4j:__GLOBAL__sub_I_GenericMetadata_cpp
Mag:_NameObjectCollectionBase_GetEnumerator_m3677320185
T5b:__Z24CalculateSpotLightBoundsffRK10Matrix4x4fR15SpotLightBounds
HJa:__ZNK13RenderTexture21GetShadowSamplingModeEv
GX:__ZN23CloudWebServicesManager23VirtualRedirectTransferER14SafeBinaryRead
Mlg:_PKCS12_AddCertificate_m3857004455
tFb:__Z19ShouldTransferFieldR32SerializationCommandQueueBuilder17ScriptingClassPtriR18TransferField_InfoRK20CoreScriptingClasses
HEc:__Z48Register_UnityEngine_MonoBehaviour_InvokeDelayedv
dSg:_SecurityElement_IsValidText_m1346599242
pnb:__ZN26SinglePassStereoSupportExt21SetStereoMatrixCommonE21MonoOrStereoscopicEye24BuiltinShaderMatrixParamRK10Matrix4x4f
crf:_ARC4Managed_TransformBlock_m1687647868
_Vc:__ZL21InitializeCachedStripPv
fxh:_Dictionary_2_System_Collections_Generic_ICollectionU3CSystem_Collections_Generic_KeyValuePairU3CTKeyU2CTValueU3EU3E_Add_m3652125112_gshared
C9b:__ZN19CustomRenderTexture16GetRenderTextureEv
j$j:__ZN6il2cpp6icalls8mscorlib6System9Threading6Thread23GetCachedCurrentCultureEP12Il2CppThread
Nxa:__ZNK6Camera22GetWorldToCameraMatrixEv
c7j:__ZN6il2cpp2vm12GenericClass11IsValueTypeEP18Il2CppGenericClass
Gdc:__ZN13ScreenManager24SetIsFullscreenImmediateEb
FEb:__ZN13MonoBehaviour7SetNameEPKc
dHe:_MethodDictionary_IsOverridenKey_m946843558
rKg:_FileStream_BeginRead_m2419864669
Qbi:_U3CStartU3Ec__Iterator0_MoveNext_m4270440387_gshared
_Fj:__ZN10KeyWrapperIN6il2cpp5utils13dynamic_arrayIPK10Il2CppTypeLj4EEEEC2ERKS7_
FJb:__ZN17InstancingBatcher22FindCBUpperBoundKonstsEv
chd:__ZN11UnityEngine9Analytics15AnalyticsConfig13ConfigChangedERKN4core12basic_stringIcNS2_20StringStorageDefaultIcEEEER8JSONRead
m6a:__ZN18AwakeFromLoadQueue5ClearEv
OKg:_FileStream_SetLength_m99749826
o4b:__ZNSt3__27__sort5IR15ReflProbeSorterPP15ReflectionProbeEEjT0_S6_S6_S6_S6_T_
Hea:__ZN8Playable10DisconnectEPS_i
i0g:_Convert_ToInt16_m4174439391
vk:_glGenTransformFeedbacks
y5a:__ZN13LoadOperationD2Ev
qFg:_Int16_System_IConvertible_ToType_m3672347013
hng:_AttrListImpl_GetValue_m3657391095
wIb:__Z21PlayerStartFirstSceneb
TWi:_List_1_CheckIndex_m3933537097_gshared
RNa:__ZNSt3__27__sort5IRPFbRKNS_4pairIN9ShaderLab16FastPropertyNameEN18UnityPropertySheet11UnityTexEnvEEES8_EPS6_EEjT0_SD_SD_SD_SD_T_
ZOb:__ZNK7ApiGLES18GetExtensionStringEv
tWi:_List_1_System_Collections_IList_IndexOf_m2444653486_gshared
zi:_emscripten_get_num_gamepads
Dwk:_emscripten_glVertexAttrib1f__wrapper
Gbb:__ZNK12HandlerChain4SizeERK13FileEntryData
Wo:FUNCTION_TABLE_iiiiiiiii
F$h:_ReadOnlyCollection_1_System_Collections_Generic_ICollectionU3CTU3E_Remove_m4177779688_gshared
rra:__ZN9Scripting11UnityEngine14AnimationCurve9InitProxyEv
Gtg:_Char_IsLetter_m3996985877
JXi:_Queue_1_Peek_m2302800625_gshared
YWd:__ZL51Delegate_t1188392813_CustomAttributesCacheGeneratorP21CustomAttributesCache
Rek:_GC_allochblk
E6a:__Z15UnloadGameScenev
bih:_Array_InternalArray__ICollection_CopyTo_TisKeyframe_t4206410242_m2132255743_gshared
hBk:_glCheckFramebufferStatus__wrapper
pGd:_Image__ctor_m2551076292
rwh:_Dictionary_2_System_Collections_ICollection_CopyTo_m3143696177_gshared
qgi:__Z103RuntimeInvoker_Void_t1185182177_Int32_t2950945753_Int32_t2950945753_Int32_t2950945753_SByte_t1669577662PFvvEPK10MethodInfoPvPS4_
$Gc:__Z36Renderer_Get_Custom_PropSortingOrderP12Il2CppObject
hPj:__ZNK15dense_hashtableINSt3__24pairIK10KeyWrapperIPK10Il2CppTypeEjEES6_N6il2cpp8metadata14Il2CppTypeHashEN14dense_hash_mapIS6_jSB_NS6_14EqualsComparerINSA_26Il2CppTypeEqualityComparerEEENS0_9allocatorIS8_EEE9SelectKeyESF_SH_E13find_positionERS7_
xJa:__ZN7Texture5ResetEv
gub:__Z18Transfer_BlittableI24GenerateTypeTreeTransferLb0E8Vector2fEvRK29SerializationCommandArgumentsR31RuntimeSerializationCommandInfo
FSd:_Context_get_HasDynamicSinks_m3952434387
Nkh:_Latin1Encoding_GetByteCount_m1145650505
Xtb:__Z18Transfer_BlittableI24GenerateTypeTreeTransferLb1EhEvRK29SerializationCommandArgumentsR31RuntimeSerializationCommandInfo
W7f:_GenericTypeParameterBuilder_GetPropertyImpl_m2584778600
YAb:__Z13TransferFieldI18StreamedBinaryReadILb1EELb0E16Converter_StringEvRK23StaticTransferFieldInfoR31RuntimeSerializationCommandInfoRT1_
uDc:__ZNK16TypeTreeIterator10ByteOffsetEv
_rk:dynCall_iiifii
rda:__ZnwjRKSt9nothrow_t
SF:__ZN8Animator11ClearObjectEv
dog:_ApplicationException__ctor_m2557611022
yMa:__ZN14SafeBinaryRead19TransferSTLStyleMapINSt3__23mapI39DeprecatedFastPropertyNameSerializationN18UnityPropertySheet11UnityTexEnvENS1_4lessIS3_EENS1_9allocatorINS1_4pairIKS3_S5_EEEEEEEEvRT_17TransferMetaFlags
JEc:__Z45Register_UnityEngine_MonoBehaviour_IsInvokingv
_Ti:_List_1_CheckMatch_m579516778_gshared
$wb:__ZL26Transfer_SimpleNativeClassI19StreamedBinaryWriteILb0EE17AnimationCurveTplIfELb0EEvRK29SerializationCommandArgumentsR31RuntimeSerializationCommandInfo
PIb:__Z43GiveManagedDebuggerChanceToAttachIfRequiredv
Xrg:_Buffer_ByteLengthInternal_m1388208719
Chh:_Array_InternalArray__ICollection_CopyTo_TisInt64_t3736567304_m2845057751_gshared
qDc:__Z35UnregisterSerializationCacheBuilderPFv17ScriptingClassPtrR23CachedSerializationDataRbE
i8:__ZNSt3__26__treeINS_12__value_typeIPKc18ScriptingMethodPtrEENS_19__map_value_compareIS3_S5_14CStringCompareLb1EEE13stl_allocatorIS5_L18MemLabelIdentifier1ELi16EEE25__emplace_unique_key_argsIS3_JRKNS_21piecewise_construct_tENS_5tupleIJOS3_EEENSH_IJEEEEEENS_4pairINS_15__tree_iteratorIS5_PNS_11__tree_nodeIS5_PvEEiEEbEERKT_DpOT0_
BHg:_Int64_System_IConvertible_ToUInt32_m109903525_AdjustorThunk
gBa:__Z30GetBuiltinVectorParamArraySize24BuiltinShaderVectorParam
qZd:__ZL67DecimalConstantAttribute_t1976047975_CustomAttributesCacheGeneratorP21CustomAttributesCache
nla:__ZL46__ManagedRegistrationHelperFunction_SpriteBonePv
qJa:__ZN13RenderTextureC2E10MemLabelId18ObjectCreationMode
GFg:_Int32_GetFormatException_m519586683
B7d:__ZL46StringBuilder_t_CustomAttributesCacheGeneratorP21CustomAttributesCache
sGc:__Z60Register_UnityEngine_ScriptableObject_CreateScriptableObjectv
sLi:_Array_InternalArray__get_Item_TisVector2_t2156229523_m2502961026_gshared
YUa:__ZN21RendererUpdateManager11AddRendererER8Renderer
Nob:__Z35Transfer_Blittable_FixedBufferFieldI14SafeBinaryReadsEvRK29SerializationCommandArgumentsR31RuntimeSerializationCommandInfo
b_g:_Convert_ToDateTime_m3802186295
Rbk:__ZN6il2cpp5utils11StringUtils11Utf16ToUtf8EPKDs
v5a:__ZN18StreamedBinaryReadILb0EE21TransferSTLStyleArrayINSt3__26vectorIN15ResourceManager10DependencyE13stl_allocatorIS5_L18MemLabelIdentifier52ELi16EEEEEEvRT_17TransferMetaFlags
Puh:_UInt64_CompareTo_m1614517204_AdjustorThunk
$kd:__ZN11UnityEngine15PlatformWrapper20IsRootedOrJailbrokenEv
oWb:__ZZ23InitPlayerLoopCallbacksvEN52PreLateUpdateScriptRunBehaviourLateUpdateRegistrator7ForwardEv
u6b:__Z33IntersectAABBPlaneBoundsOptimizedRK4AABBPKN4math7_float4Ei
Thb:__ZN9GfxDevice19EndGeometryJobFrameEv
Zfj:_GUILayoutUtility_Layout_m1159951704
$af:_InputField_get_shouldActivateOnSelect_m3055465770
Rtb:__ZN27Converter_SimpleNativeClassI17AnimationCurveTplIfEE17ScriptingToNativeER18ScriptingObjectPtrPS1_
Rqh:_Type__cctor_m2371893800
Gkk:__ZN6il2cpp8metadata24Il2CppGenericInstCompare7CompareERK10KeyWrapperIPK17Il2CppGenericInstES8_
BEj:__ZNK15dense_hashtableINSt3__24pairIK10KeyWrapperIPK19Il2CppGenericMethodEPK26Il2CppGenericMethodIndicesEES6_N6il2cpp8metadata23Il2CppGenericMethodHashEN14dense_hash_mapIS6_SA_SE_NS6_14EqualsComparerINSD_26Il2CppGenericMethodCompareEEENS0_9allocatorISB_EEE9SelectKeyESI_SK_E5beginEv
sud:_ExecuteEvents_Execute_m3049310229
Hv:__ZN27AnimationLayerMixerPlayable21UpdateLayerParametersEv
ime:__ZL84Object_t631007953_CustomAttributesCacheGenerator_Object_DestroyImmediate_m2288369078P21CustomAttributesCache
Eoa:__ZN9Scripting11UnityEngine12LightmapData12CleanupProxyEv
ry:__ZN7mecanim9animation16CopyMotionOutputEPKNS0_18AnimationNodeStateEPS1_bbRKNS_6bitsetILj83EEE
b2e:_PlayableAsset_Internal_CreatePlayable_m2550417712
tVb:__Z31ManagerContextInitializeClassesv
O$h:_ReadOnlyCollection_1_System_Collections_IList_Contains_m2650112051_gshared
M9g:_Array_get_swapper_TisVector3_t3722313464_m1221246401_gshared
DZc:_UNITY_FT_List_Finalize
$_b:__Z20LightAttenuateApproxRKfS0_
J7:__ZN9Scripting30SetCachedPtrOnScriptingWrapperE18ScriptingObjectPtrP6Object
$x:__ZN17AnimationPlayable17SetInternalWeightEf
sjg:_RepeatContext_get_IsMinimum_m3640286252
XMe:_ObjectRecord_ChainFixup_m1889316362
SHa:__ZN18BlockRangeInternal16PopLastNodeIndexEP10BlockRangeji
Edk:__ZN6il2cpp2vm13CachedCCWBaseINS0_13ManagedObjectEE6AddRefEv
Fxd:_TouchInputModule_UpdateModule_m2582897964
g$a:__ZN4MeshD0Ev
brd:__ZL42RequestRecreateEyeTexturesBeforeNextUpdatev
xAa:__ZNK6Camera20IsCurrentlyRenderingEv
xx:__ZN21AnimationClipPlayable23ProcessRootMotionNoClipEPK35AnimationPlayableEvaluationConstantPK32AnimationPlayableEvaluationInputP33AnimationPlayableEvaluationOutput
jed:__Z36CanvasRenderer_CUSTOM_SetPopMaterialP12Il2CppObjectS0_i
SNc:__Z18Transfer_BlittableI9JSONWriteLb0EdEvRK29SerializationCommandArgumentsR31RuntimeSerializationCommandInfo
O2c:_otv_u_O_O_u_O_O
Xya:__ZN6Camera8TransferI19StreamedBinaryWriteILb0EEEEvRT_
k5g:_DBNull_System_IConvertible_ToSByte_m3533624679
zEa:__ZThn252_N31CanvasBatchIntermediateRenderer14OnAssetDeletedEv
Ymk:_wctomb
wtg:_Char_CompareTo_m42489266
rDf:_InternalEnumerator_1_System_Collections_IEnumerator_get_Current_m3575233890_AdjustorThunk
yAi:__Z67RuntimeInvoker_Void_t1185182177_Int32_t2950945753_Double_t594665363PFvvEPK10MethodInfoPvPS4_
Hoc:__Z27Camera_CUSTOM_GetAllCamerasP11Il2CppArray
Uc:___cxa_rethrow
nNd:_ParameterInfo_GetCustomAttributes_m2376494592
wPc:__Z18Transfer_BlittableI8JSONReadLb1EhEvRK29SerializationCommandArgumentsR31RuntimeSerializationCommandInfo
AEd:_Graphic_get_canvasRenderer_m315509948
z0i:_Collection_1_System_Collections_IList_Contains_m3397768605_gshared
MBg:_CultureInfo_construct_internal_locale_from_name_m3254739477
vzf:_RSASslSignatureDeformatter_VerifySignature_m1061897602
Y8b:__ZN13MonoBehaviour8SetClassE17ScriptingClassPtr18ScriptingObjectPtr
Qhb:__ZN9GfxDevice33ScheduleComputeBufferJobsInternalEPFvP20ComputeBufferJobDataEPFvRK8JobFenceEPK27ComputeBufferJobInstructionj
REi:_Array_InternalArray__Insert_TisLabelFixup_t858502054_m171542753_gshared
lMf:_InternalEnumerator_1_System_Collections_IEnumerator_get_Current_m3539708496_AdjustorThunk
mcb:__ZN20LocalFileSystemPosix4ReadER13FileEntryDatayyPvPy
Q2b:__ZNSt3__211__sift_downIRN23ForwardShaderRenderLoop18RenderObjectSorterILb0EEEP21ForwardRenderPassDataEEvT0_S7_T_NS_15iterator_traitsIS7_E15difference_typeES7_
QQg:_SecurityPermission__ctor_m1462427327
ktk:dynCall_iiiiiiffiiiiiiiiiffffiiii
VEb:__ZN13MonoBehaviour5DoGUIENS_13GUILayoutTypeEii
NQd:_ChannelData_get_ClientProviders_m594662942
AI:__ZZN8Animator15InitializeClassEvEN43FunctorImpl_438kDidModifyAnimatorController4CallEPviR11MessageData
Faj:_QuickSearch_GetChar_m1297698557
Iua:__ZNK12TLSAllocatorI14StackAllocatorE8ContainsEPKv
z1a:__ZN11TimeManager8TransferI18StreamedBinaryReadILb0EEEEvRT_
P_b:__ZL8AddLightRK12ActiveLightsRK8Vector3fiR13dynamic_arrayI11CulledLightLj0EE
o_g:_DateTime__ParseEnum_m253019513
c2g:_Convert_ToUInt32_m2194577773
t$a:__ZN14BlendShapeData8TransferI14SafeBinaryReadEEvRT_
oyg:_Hashtable_Remove_m4032631466
IQh:_DSAManaged_GenerateKeyPair_m2236915969
FPa:__ZN7Texture25ReloadFromStorageIfNeededEPvb
Reh:_Array_InternalArray__IndexOf_TisBoolean_t97287965_m1161209222_gshared
dEj:__ZNK15dense_hashtableINSt3__24pairIK10KeyWrapperIP9FieldInfoEiEES5_N6il2cpp5utils11PointerHashIS3_EEN14dense_hash_mapIS5_iSB_NS5_14EqualsComparerINS0_8equal_toIS4_EEEENS0_9allocatorIS7_EEE9SelectKeyESG_SI_E3endEv
xqa:__ZN9Scripting11UnityEngine12CullingGroup9InitProxyEv
cwg:_SynchronizedArrayListWrapper_Clear_m2191301493
h7c:_Update_Max
nWg:_String_CreateString_m780602784
c0j:__ZN6il2cpp6icalls8mscorlib6SystemL15ThrowNoWideningEv
cqc:__ZNK23TransformChangeDispatch24GetChangeMaskForInterestENS_12InterestTypeE
iqc:__Z45Transform_CUSTOM_INTERNAL_CALL_TransformPointP12Il2CppObjectRK8Vector3fRS1_
d8f:_GenericTypeParameterBuilder_InvokeMember_m1647304778
mGd:_HorizontalOrVerticalLayoutGroup_set_childControlWidth_m3261460516
QMa:__ZNSt3__26__treeINS_12__value_typeI39DeprecatedFastPropertyNameSerializationfEENS_19__map_value_compareIS2_S3_NS_4lessIS2_EELb1EEENS_9allocatorIS3_EEE7destroyEPNS_11__tree_nodeIS3_PvEE
h5c:_tt_cmap4_char_index
myd:_AspectRatioFitter_GetParentSize_m3159144324
_Sg:_SecurityFrame_get_Assembly_m2874566710
iXi:_Enumerator_System_Collections_IEnumerator_Reset_m1487823313_gshared
Qbb:__ZNK12HandlerChain8IsHiddenERK13FileEntryData
Ogb:__ZNSt3__26__treeINS_12__value_typeIN4core12basic_stringIcNS2_20StringStorageDefaultIcEEEEPN16MemoryFileSystem4NodeEEENS_19__map_value_compareIS6_SA_NS_4lessIS6_EELb1EEE13stl_allocatorISA_L18MemLabelIdentifier55ELi16EEE25__emplace_unique_key_argsIS6_JNS_4pairIKS6_S9_EEEEENSK_INS_15__tree_iteratorISA_PNS_11__tree_nodeISA_PvEEiEEbEERKT_DpOT0_
ftb:__ZL26Transfer_SimpleNativeClassI17RemapPPtrTransfer10RectOffsetLb0EEvRK29SerializationCommandArgumentsR31RuntimeSerializationCommandInfo
_Gg:_Int32_ToString_m2507389746_AdjustorThunk
M0g:_Decimal_op_Explicit_m438967917
jxj:_AnimatorControllerPlayable_SetHandle_m2260644454_AdjustorThunk
kgc:__ZNSt3__26vectorIN9ShaderLab20SerializedSubProgram13BufferBindingENS_9allocatorIS3_EEEC2ERKS6_
Sbf:_InputField_set_selectionColor_m2084640295
cBa:__ZNK9ShaderLab20ShaderBlendStateDesc15ToGfxBlendStateEPK19ShaderPropertySheetS3_R13GfxBlendState
vRf:_Enumerator_System_Collections_IEnumerator_get_Current_m1747693366_AdjustorThunk
CB:__ZN11UnityEngine9AnimationL22GenericBindingCallbackEPvS1_i
OE:__ZN12_GLOBAL__N_121ProcessAnimationBeginER35AnimationPlayableEvaluationConstantR32AnimationPlayableEvaluationInputR33AnimationPlayableEvaluationOutput
Qjc:__ZN9ShaderLab9IntShaderC2Ev
FMj:__ZN6il2cpp6icalls8mscorlib6SystemL9IsPrivateEPK9EventInfo
ajk:__ZN6il2cpp6icalls8mscorlib6System10Reflection4Emit11TypeBuilder20setup_internal_classEP27Il2CppReflectionTypeBuilderS7_
nfh:_Array_InternalArray__IndexOf_TisILTokenInfo_t2325775114_m2602704009_gshared
vud:_ExecuteEvents_Execute_m3613826831
Clh:_StringBuilder_AppendFormat_m3255666490
RLc:__ZN5Unity9rapidjson6WriterI16TempBufferWriterNS0_4UTF8IcEES4_13JSONAllocatorE11WriteUint64Ey
PKc:__ZN13GUIStateScope3EndER16GUIKeyboardStateR8GUIStatePN5IMGUI19NamedKeyControlListE
_Id:_TypeBuilder_GetGenericArguments_m2872156836
tAj:__ZN13Il2CppHashMapIPK22Il2CppGenericParameterP11Il2CppClassN6il2cpp5utils11PointerHashIS1_EENSt3__28equal_toIS2_EENS9_9allocatorINS9_4pairIK10KeyWrapperIS2_ES4_EEEEEC2EjRKS8_RKSB_
OQc:__ZN8JSONRead21TransferSTLStyleArrayI31ArrayOfManagedObjectsTransfererEEvRT_17TransferMetaFlags
_cb:__Z15CreateDirectoryRKN4core12basic_stringIcNS_20StringStorageDefaultIcEEEE
N0a:__Z21CalculateGlobalMatrix23TransformAccessReadOnly
$Id:_TypeBuilder_GetGenericTypeDefinition_m1632720438
_9g:_Array_InternalArray__ICollection_Contains_TisLink_t544317964_m163190451_gshared
J4g:_DateTimeOffset_System_IComparable_CompareTo_m176229495_AdjustorThunk
$Ze:_ManagedStreamHelpers_ValidateLoadFromStream_m580138133
h3a:__ZNK13BuildSettings22GetTypeVirtualInternalEv
Rkc:__ZN13MonoBehaviour20SetScriptingDataFromERKS_
x9h:__ZN30GenericInterfaceActionInvoker1I17Scene_t2348375561E6InvokeEPK10MethodInfoP12Il2CppObjectS0_
$Ui:_List_1_CheckIndex_m2250397830_gshared
BVg:_String_LastIndexOf_m578673845
Q0e:_PlayerEditorConnectionEvents_UnregisterManagedCallback_m400366024
Cjc:__ZN9ShaderLab20SerializedSubProgram14ConstantBufferC2EOS1_
z:tempBigIntI
Rjg:_Interval_get_Empty_m3617514670
L3f:_Assembly_GetName_m981771927
Pz:__ZN7mecanim12statemachine24CreateStateMachineOutputEPKNS0_20StateMachineConstantEjRNS_6memory9AllocatorE
a7j:__ZN6il2cpp2vm12GenericClass8GetClassEP18Il2CppGenericClass
nib:__ZNK9GfxDevice27GetActiveRenderSurfaceWidthEv
vze:__ZL114StandaloneInputModule_t2760469101_CustomAttributesCacheGenerator_StandaloneInputModule_ForceAutoSelect_m2837047882P21CustomAttributesCache
Okd:__ZN11UnityEngine15PlatformWrapper28GetCleanGraphicsFixedVersionEv
shf:_MaskableGraphic_RecalculateClipping_m1772937317
RZf:_UnmanagedMemoryStream_SetLength_m3752964620
p2i:_SslStreamBase_RaiseLocalPrivateKeySelection_m4112368540
FVj:__ZN6il2cpp2vm4Type7GetTypeEPK10Il2CppType
pZc:_open_face_PS_from_sfnt_stream
XGf:_InternalEnumerator_1_get_Current_m165106323_AdjustorThunk
mmh:_UTF32Encoding_GetByteCount_m3610769032
rV:__ZN11AudioModule16SetListenerPauseEb
hXb:__Z16FindCameraStacksRKNSt3__24listI4PPtrI6CameraENS_9allocatorIS3_EEEERNS_6vectorI11CameraStackNS4_ISA_EEEE
x9i:_MatchCollection_CopyTo_m3807326147
SVa:__ZN10GISettings8TransferI14SafeBinaryReadEEvRT_
sn:FUNCTION_TABLE_vifff
YRe:_MD5CryptoServiceProvider__ctor_m3271163125
Z9b:__ZN19CustomRenderTexture12ClearGPUDataEv
BEg:_Guid_Equals_m3683678873
GJa:__ZN13RenderTexture13ApplySettingsEv
ULe:_ObjectReader_RegisterObject_m1853376334
y9f:_ModuleBuilderTokenGenerator_GetToken_m2588853565
prg:_Boolean_System_IConvertible_ToDecimal_m3176932461_AdjustorThunk
u2b:__ZNSt3__26__treeINS_12__value_typeIi17ShadowCachingDataEENS_19__map_value_compareIiS3_NS_4lessIiEELb1EEE13stl_allocatorIS3_L18MemLabelIdentifier66ELi16EEE25__emplace_unique_key_argsIiJNS_4pairIiS2_EEEEENSD_INS_15__tree_iteratorIS3_PNS_11__tree_nodeIS3_PvEEiEEbEERKT_DpOT0_
Te:_JS_Sound_SetListenerPosition
ln:FUNCTION_TABLE_fiffi
Tdd:__Z55Register_UnityEngine_CanvasGroup_get_ignoreParentGroupsv
I$h:_ReadOnlyCollection_1_System_Collections_Generic_IListU3CTU3E_set_Item_m711370667_gshared
T0a:__ZN12EventManager11RemoveEventEP10EventEntryPFvPvS2_iES2_
H4f:_Default_check_arguments_with_score_m3467814020
nyk:_glGetActiveUniform__wrapper
nYf:_StreamWriter_LowLevelWrite_m1081676583
S8a:__ZNK8Material16MarkDependenciesER27GarbageCollectorThreadState
Xmf:_Slider_set_handleRect_m1101657556
W4g:_DateTimeOffset_ToString_m3985341516_AdjustorThunk
VNc:__ZL17Transfer_GUIStyleI9JSONWriteLb0EEvRK29SerializationCommandArgumentsR31RuntimeSerializationCommandInfo
W$b:__Z28GetHaloVertexPositionsStereoP8Vector3fRKS_S2_f
oia:__ZN6prcoreL27StretchGenericFloatBilinearI15TexFormatRGHalfEEvPKNS_9InnerInfoE
oH:__Z16return_effectiveRK21AnimationClipOverride
S$b:__ZN9DepthPass7PrepareER6CameraRK13dynamic_arrayI16RenderObjectDataLj0EERK15RenderNodeQueueRK17ShaderReplaceDatab
bpa:__ZN9Scripting11UnityEngine12Experimental3U2D10SpriteBone9InitProxyEv
UKa:__ZNK15PlayableMethods18InvokePrepareFrameER18ScriptingObjectPtrRK9HPlayableP18ScriptingFrameData
rH:__ZN14SafeBinaryRead21TransferSTLStyleArrayI13dynamic_arrayI21AnimationClipOverrideLj0EEEEvRT_17TransferMetaFlags
pW:__Z13RegisterClassI12AudioManagerEvPKc
EBb:__Z18Transfer_BlittableI18StreamedBinaryReadILb0EELb1E9BoundsIntEvRK29SerializationCommandArgumentsR31RuntimeSerializationCommandInfo
ADe:__ZL71SpriteState_t1362986479_CustomAttributesCacheGenerator_m_DisabledSpriteP21CustomAttributesCache
Amd:__ZN22BaseUnityConnectClient28UpdateConfigFromServerStaticEPv
Meg:_PublicKey_DecodeDSA_m3490622362
Npc:__Z49Register_UnityEngine_Resources_GetBuiltinResourcev
Hrh:_Type_GetMethod_m1479779718
W4c:_tt_cmap10_char_index
P2i:_TlsException__ctor_m3242533711
Kqf:_BitConverterLE_GetUIntBytes_m795219058
PXg:_SortedList__ctor_m3676552745
XAj:__ZN15dense_hashtableINSt3__24pairIK10KeyWrapperIPK22Il2CppGenericParameterEP11Il2CppClassEES6_N6il2cpp5utils11PointerHashIS4_EEN14dense_hash_mapIS6_S9_SE_NS6_14EqualsComparerINS0_8equal_toIS5_EEEENS0_9allocatorISA_EEE9SelectKeyESJ_SL_E3endEv
DU:__ZN11AudioSource24ClearExtensionPropertiesE12PropertyName
fEa:__ZN14VertexDataInfo12UpdateFormatEj17ShaderChannelMaskS0_RK19VertexStreamsLayoutRK20VertexChannelsLayout
gic:__ZN9ShaderLab22SerializedBindChannels8TransferI19StreamedBinaryWriteILb0EEEEvRT_
srb:__ZN15SerializeTraitsI5RectTIiEE8TransferI14SafeBinaryReadEEvRS1_RT_
CJc:__ZN5IMGUI20MoveWindowFromLayoutER8GUIStateiRK5RectTIfE
UZc:_UNITY_FT_Stream_ReadUShort
xMa:__ZNSt3__26__treeINS_12__value_typeIN4core12basic_stringIcNS2_20StringStorageDefaultIcEEEES6_EENS_19__map_value_compareIS6_S7_NS_4lessIS6_EELb1EEE13stl_allocatorIS7_L18MemLabelIdentifier1ELi16EEE7destroyEPNS_11__tree_nodeIS7_PvEE
r5f:_AssemblyBuilder_get_Location_m384539722
Hoh:_Thread_get_ManagedThreadId_m1068113671
RPb:__Z13IsDepthFormat14GraphicsFormat
C2a:__ZN12AspectRatios8TransferI24GenerateTypeTreeTransferEEvRT_
Q$f:_MonoType_GetFields_m4176012508
N2g:_CurrentSystemTimeZone_GetTimeZoneData_m2641861607
Jf:_emscripten_glUniform1fv
HCh:_EqualityComparer_1_System_Collections_IEqualityComparer_GetHashCode_m3423304513_gshared
iBj:__ZN6il2cpp2vm5Class13GetArrayClassEP11Il2CppClassj
Zwd:_StandaloneInputModule_set_inputActionsPerSecond_m4057208843
HIb:__ZN19RuntimeSceneManager18LoadSceneAsyncIntoER10UnitySceneRKN4core12basic_stringIcNS2_20StringStorageDefaultIcEEEENS_11LoadingModeEb
oNc:__Z35Transfer_Blittable_FixedBufferFieldI9JSONWritetEvRK29SerializationCommandArgumentsR31RuntimeSerializationCommandInfo
dLc:__ZN11IMGUIModule12AddGUIScriptER8ListNodeI13MonoBehaviourE
lb:invoke_difi
Wfj:_GUILayoutUtility_BeginWindow_m2240221150
ixk:_glDeleteSamplers__wrapper
Tca:__ZL50StaticRegisterSceneLoadedCallback_LightmapSettingsPv
_9f:_HybridDictionary_set_Item_m2997363718
Nm:FUNCTION_TABLE_iiffi
JMf:_InternalEnumerator_1_get_Current_m1477715453_AdjustorThunk
Huh:_UInt64_System_IConvertible_ToUInt32_m2784653358
BPb:__ZN21GLESGpuProgramApplier11ApplyVectorERKN20GpuProgramParameters14ValueParameterEPK8Vector4ft
a5b:__Z17PrepareSceneNodesP11CullResults
rOe:_SByte_System_IConvertible_ToDecimal_m2548745278
M_c:_cff_size_done
D7e:_Texture_get_height_m3786488511
ldk:__ZN6il2cpp6icalls8mscorlib6System7Convert17Base64ToByteArrayEPDsib
vuc:__ZN13ProduceHelperI7CubemapLb0EE7ProduceE10MemLabelId18ObjectCreationMode
pac:__ZN6Camera34UpdatePreviousViewProjectionMatrixEv
ULa:__ZN9ShaderLab11ShaderState25RemoveUnsupportedProgramsEPK6Shader
k9c:__Z28Font_Get_Custom_PropMaterialP12Il2CppObject
s_e:_Mathf_Abs_m3281243566
SYf:_SynchronizedWriter_WriteLine_m1552352268
Rmc:__Z26scripting_class_has_parent17ScriptingClassPtrS_
Fba:__ZN13RuntimeStaticI21AssetReferenceStorageLb0EE16StaticInitializeEPv
fGg:_Int32_System_IConvertible_ToByte_m3832391412_AdjustorThunk
WU:__Z71Register_UnityEngine_AudioSource_INTERNAL_CALL_ClearExtensionPropertiesv
CF:__ZNK8Animator20IsInMatchTargetStateEv
JIf:_InternalEnumerator_1_System_Collections_IEnumerator_get_Current_m4088805473_gshared
qoa:__ZN9Scripting11UnityEngine5Plane12CleanupProxyEv
yJc:__Z36Register_UnityEngine_GUI_set_changedv
NSd:_Context_GetServerContextSinkChain_m3154465897
Pgj:_GUIStyle_get_fixedHeight_m2868324709
Uhe:__ZL48Mathf_t3464937446_CustomAttributesCacheGeneratorP21CustomAttributesCache
jjk:__GLOBAL__sub_I_Il2CppCodeRegistration_cpp
Vy:__ZN7mecanim28TransformValueArrayBlendNodeEiiiRKNS_10ValueArrayERKNS_14ValueArrayMaskERS0_RS3_RNS_16ValueArrayWeightEf
FKh:_List_1_GetIndex_m3112872964_gshared
BCd:_Dropdown_set_value_m1048320169
ozj:_CustomEventData_Finalize_m1724721833
_Fa:__ZN20TierGraphicsSettings8TransferI18StreamedBinaryReadILb0EEEEvRT_
otc:__ZNSt3__26__treeINS_12__value_typeINS_4pairIPcS3_EENS_3setIS3_15compare_tstringIPKcENS_9allocatorIS3_EEEEEENS_19__map_value_compareIS4_SD_20smaller_tstring_pairIS8_ELb1EEENSA_ISD_EEE25__emplace_unique_key_argsIS4_JRKNS_21piecewise_construct_tENS_5tupleIJOS4_EEENSO_IJEEEEEENS2_INS_15__tree_iteratorISD_PNS_11__tree_nodeISD_PvEEiEEbEERKT_DpOT0_
EGg:_Int32_System_IConvertible_ToUInt64_m2502338186_AdjustorThunk
Mfa:__Z33CleanupCubemapGPUUtilityMaterialsPv
aGc:__Z43Register_UnityEngine_Material_EnableKeywordv
xyj:__ZL9rshift128PyS_
aGg:_Int16_ToString_m2072232391_AdjustorThunk
HIh:_Enumerator_VerifyState_m169680537_AdjustorThunk
jUj:__ZN14dense_hash_mapI10KeyWrapperINSt3__24pairIPK12PropertyInfoP11Il2CppClassEEEj17ReflectionMapHashIS8_ENS9_14EqualsComparerINS1_8equal_toIS8_EEEENS1_9allocatorINS2_IKS9_jEEEEE13set_empty_keyERSH_
gk:_glRenderbufferStorage
Jrc:__Z45Register_UnityEngine_Input_get_touchSupportedv
Skd:__ZN11UnityEngine15PlatformWrapper28GetTextureFormatSupportFlagsEv
nQ:__ZN11AudioSource23VirtualRedirectTransferER19StreamedBinaryWriteILb0EE
$Je:_RemotingConfiguration_RegisterWellKnownClientType_m1237674062
Lra:__ZN9Scripting5Unity11Collections8LowLevel6Unsafe42NativeDisableUnsafePtrRestrictionAttribute9InitProxyEv
Ydj:_Uri_EscapeString_m3864445955
u$c:_cf2_setError
kXa:__ZN14SafeBinaryRead21TransferSTLStyleArrayI13dynamic_arrayI12BoneWeights4Lj16EEEEvRT_17TransferMetaFlags
PVb:__ZZ23InitPlayerLoopCallbacksvEN35PreUpdateSendMouseEventsRegistrator7ForwardEv
yAa:__ZNK6Camera25GetNormalizedViewportRectEP13RenderTextureb
CCd:_Dropdown_Awake_m3140021404
Zg:_glDisable
Fb:invoke_vffff
L9e:_Vector2_get_sqrMagnitude_m837837635
kck:__ZN6il2cpp5utils11StringUtils15StringDuplicateEPKDsj
Nbj:_Regex_Match_m4145799399
Tx:__ZN17AnimationPlayable17ProcessRootMotionEP35AnimationPlayableEvaluationConstantP32AnimationPlayableEvaluationInputP33AnimationPlayableEvaluationOutput
GVg:_String_IsNullOrEmpty_m2969720369
$uj:_TextGenerator_GetPreferredHeight_m3514897836
rOh:_BigInteger_LowestSetBit_m3082714978
ZBk:b118
_Bk:b119
cXb:__ZNK8Material12GetPassCountEv
UNg:_RSAParameters_t1728406613_marshal_pinvoke
$jg:_Interval_IsDisjoint_m1532171337_AdjustorThunk
TBk:b112
Wqk:_bitshift64Ashr
VBk:b114
WBk:b115
XBk:b116
YBk:b117
nsk:dynCall_diii
sgf:_LayoutUtility_GetFlexibleWidth_m22831835
XBf:_ArrayReadOnlyList_1_ReadOnlyError_m865416608_gshared
V6b:__Z18AddGroupToWorkloadR26BlockRangeBalancedWorkloadjR13dynamic_arrayI10BlockRangeLj0EERS1_IjLj0EE
kxg:_CollectionBase_System_Collections_IList_get_Item_m3743372945
MRg:_Evidence_GetEnumerator_m302914965
dSa:__ZN4crnd12crn_unpacker22decode_alpha_endpointsEv
CXi:_Queue_1__ctor_m2068090025_gshared
r6b:__Z23CullDynamicObjectsUmbraPK4AABBPKN5Umbra15OcclusionBufferER9IndexList
o2i:_SslStreamBase_RaiseRemoteCertificateValidation2_m2908038766
i5c:_tt_cmap4_char_next
UAd:_ColorTween_set_startColor_m2562993758_AdjustorThunk
sdi:__Z50RuntimeInvoker_Boolean_t97287965_Int16_t2552820387PFvvEPK10MethodInfoPvPS4_
nea:__ZN17DirectorFrameTime14ResetDSPValuesEv
x$g:_Convert_ToDecimal_m1233667008
knd:__ZN22UnityAnalyticsSettings10SetEnabledEb
RM:__ZN4FMOD7Channel11setPositionEjj
Rh:_glBindSampler
Wfk:_GC_reclaim_block
xuf:_ClientContext_get_ClientHelloProtocol_m1654639078
Vh:_glGetVertexAttribiv
oWf:_Enumerator_System_Collections_IEnumerator_get_Current_m1975949486_gshared
eaj:_PatternCompiler_EmitSub_m193323684
lbd:__ZN2UI11CanvasGroup23VirtualRedirectTransferER18StreamedBinaryReadILb0EE
Rra:__ZN9Scripting5Unity11Collections8LowLevel6Unsafe49NativeContainerSupportsDeferredConvertListToArray9InitProxyEv
$Qc:__ZN8JSONRead8TransferIbEEvRT_PKc17TransferMetaFlagsb
xqh:_TimeSpan_ToString_m1128692466
Nij:_AesManaged_CreateEncryptor_m2294080233
xfj:_Event_GetHashCode_m3559153592
alh:_StringBuilder__ctor_m2367297767
zek:_GC_promote_black_lists
HBg:_CultureInfo_construct_datetime_format_m1928121315
PRc:__Z29Transfer_Blittable_ArrayFieldI8JSONRead8Vector4fEvRT_R9ArrayInfoRK23StaticTransferFieldInfo
Rn:FUNCTION_TABLE_vf
W$f:_Binder_GetDerivedLevel_m3216810447
oo:FUNCTION_TABLE_vd
qo:FUNCTION_TABLE_vi
s3:__ZN13RuntimeStaticI37UnityShaderCompilerExtPluginConfigureLb0EE16StaticInitializeEPv
Dlh:_StringBuilder_AppendFormat_m2403596038
KQe:_DSASignatureDeformatter_SetHashAlgorithm_m3186995552
hZh:_ReadOnlyCollection_1_System_Collections_Generic_ICollectionU3CTU3E_Clear_m2772202961_gshared
Tlh:_UnicodeEncoding_GetString_m332467280
mJ:__ZNK8Animator17HasBoundPlayablesEv
TOd:_ResourceSet_ReadResources_m3663669011
eoh:_SynchronizationContext_SetSynchronizationContext_m1249070039
OUi:_List_1_AddEnumerable_m1267044261_gshared
Lhi:__Z99RuntimeInvoker_Void_t1185182177_RuntimeObject_Int32_t2950945753_SByte_t1669577662_SByte_t1669577662PFvvEPK10MethodInfoPvPS4_
XMj:__ZN6il2cpp2vm7Runtime9SetConfigEPKc
MLc:__ZN5Unity9rapidjson12PrettyWriterI16TempBufferWriterNS0_4UTF8IcEES4_13JSONAllocatorE10StartArrayEv
ura:__ZN9Scripting11UnityEngine16AndroidJNIHelper12CleanupProxyEv
ta:invoke_iiifiii
B5e:_RectTransform_INTERNAL_get_pivot_m2970933031
p9h:_UnityAction_1_Invoke_m927447181_gshared
n0j:__ZN6il2cpp2vm9Exception11FromNameMsgEPK11Il2CppImagePKcS6_S6_
dn:FUNCTION_TABLE_fiiifii
KI:__ZN10HumanTrait15InitializeClassEv
mfa:__Z14GetTimeManagerv
gVe:_Color32_op_Implicit_m213813866
e5e:_RectOffset_set_top_m713260669
aqd:__ZN19TransportJavaScript7CleanupEv
jpc:__Z12GUIDToStringRK9UnityGUIDPc
eca:__ZN15FileSystemEntry4LockE12FileLockModeP12FileAccessor
Mma:__ZN9Scripting11UnityEngine10Vector3Int12CleanupProxyEv
Vzk:_emscripten_glDrawArrays__wrapper
NGg:_Int32_Equals_m2976157357
wsi:__Z110RuntimeInvoker_Int32_t2950945753_Int32_t2950945753_Int32_t2950945753_Int32U26_t1369213839_Int32U26_t1369213839PFvvEPK10MethodInfoPvPS4_
CQ:__ZN11AudioSource22UnmuteActiveVideoSinksEv
H3i:_TlsException__ctor_m3717683709
hck:__ZN4utf88internal20is_overlong_sequenceIiEEbjT_
zFj:__ZN6il2cpp2vm13MetadataCache8RegisterEPK22Il2CppCodeRegistrationPK26Il2CppMetadataRegistrationPK20Il2CppCodeGenOptions
Lmc:__Z41Register_UnityEngine_Cursor_get_lockStatev
JSj:__ZN14dense_hash_mapI10KeyWrapperIPK14Il2CppAssemblyEPK22Il2CppMonoAssemblyNameN6il2cpp5utils11PointerHashIS2_EENS4_14EqualsComparerINSt3__28equal_toIS3_EEEENSD_9allocatorINSD_4pairIKS4_S7_EEEEE13set_empty_keyERSJ_
nLa:__ZL20InitializeGUIShadersv
vEg:_Guid_CompareTo_m243656946
oxc:__Z20DestroyObjectDelayedP6Objectf
p1:__ZN20DynamicHeapAllocatorI17LowLevelAllocatorED0Ev
Kid:__ZL56__ManagedRegistrationHelperFunction_AnalyticsSessionInfoPv
dyc:__ZN11TimeManagerC2E10MemLabelId18ObjectCreationMode
t_b:__ZN9DepthPassD2Ev
tM:__ZN11AudioFilter6GetDSPEv
TNg:_RSACryptoServiceProvider_OnKeyGenerated_m863837376
Sjf:_Scrollbar_OnDrag_m4289602768
p6:__ZN19RuntimeSceneManager14CanUnloadSceneEP10UnityScene
w_b:__Z22ExtractRenderNodeQueueRK11CullResults15ExtractionFlagsR15RenderNodeQueue
lP:__ZN24AudioScriptBufferManagerC2Ev
tTc:__ZN11UnityEngine9Analytics18SceneLoadTimeEvent12ToJsonStringER9JSONWrite
EYc:__ZNSt3__26vectorIh13stl_allocatorIhL18MemLabelIdentifier1ELi16EEE8__appendEj
NKf:_InternalEnumerator_1_System_Collections_IEnumerator_get_Current_m3854084659_AdjustorThunk
fMc:__ZN8JSONRead32GetValueForKeyWithNameConversionEPKN5Unity9rapidjson12GenericValueINS1_4UTF8IcEE13JSONAllocatorEEPKc
_Af:_U3CGetEnumeratorU3Ec__Iterator0_System_Collections_IEnumerator_get_Current_m283764921_gshared
nAg:_CultureInfo_get_IcuName_m2258611679
NMc:__Z18Transfer_BlittableI9JSONWriteLb0EfEvRK29SerializationCommandArgumentsR31RuntimeSerializationCommandInfo
WJa:__Z21GetAsyncUploadManagerv
Hj:_emscripten_glDetachShader
x_a:__ZN17GenericDynamicVBO20ReleaseChunkInternalERK21DynamicVBOChunkHandlejj
uad:__ZL27CleanupModule_TextRenderingv
ESh:_SymmetricTransform_OFB_m3842617151
MIb:__ZN19RuntimeSceneManager11CreateSceneEv
LUe:_Color__ctor_m286683560
N9i:_PatternCompiler_Emit_m1540115729
t3c:_ps_get_standard_strings
S1b:__Z27SetupBakedOcclusionForLightbRK15SharedLightDataR17ShaderPassContext
FCc:__ZN9Scripting20CreateUnityExceptionEPKcz
fkk:__ZN6il2cpp2os5Mutex6UnlockEv
pjh:_EncoderFallbackException__ctor_m1051987327
zOh:_BigInteger_ToString_m3278248272
E5g:_Decimal_System_IConvertible_ToBoolean_m1123794670
Byi:__Z98RuntimeInvoker_Int32_t2950945753_RaycastResult_t3360306849_RaycastResult_t3360306849_RuntimeObjectPFvvEPK10MethodInfoPvPS4_
Qaa:__Z17CommitBatchDeleteR11BatchDelete
Dgf:_Mask__ctor_m1269055150
C8d:__ZL99WaitHandle_t1743403487_CustomAttributesCacheGenerator_WaitHandle_t1743403487____Handle_PropertyInfoP21CustomAttributesCache
Ldg:_WebRequest_AddPrefix_m3187775913
LXb:__Z18RenderImageFiltersR10RenderLoopb
ced:__Z43CanvasRenderer_Get_Custom_PropMaterialCountP12Il2CppObject
a2b:__ZNSt3__227__insertion_sort_incompleteIR23CompareReflectionProbesP31RuntimeReflectionProbeBlendInfoEEbT0_S5_T_
sRi:_List_1_Remove_m1457733883_gshared
l_g:_DateTime_IsLetter_m156019844
Rzb:__ZN18StreamedBinaryReadILb1EE21TransferSTLStyleArrayI13dynamic_arrayIdLj0EEEEvRT_17TransferMetaFlags
_Kd:_MonoEventInfo_GetEventInfo_m873645389
Grf:_MD4Managed_Encode_m386285215
qca:__ZN10InputEventD2Ev
Bu:__ZN7mecanim4hand8HandPoseC2Ev
Nod:__ZN22UnityWebRequestManagerD2Ev
Cfj:_Event_get_character_m1666742088
Wqd:__GLOBAL__sub_I_artifacts_WebGL_codegenerator_0_cpp_7539
GHb:__Z20SetPlayerPauseDirect11PlayerPause
cnk:_isalpha
XZg:_Convert_ToChar_m1442101407
dtc:__ZZL31RegisterRectTransformPropertiesR22GenericPropertyBindingEN28Wrapper_RectTransformPivoty113SetFloatValueEPvf
Y4g:_DateTimeOffset_get_Offset_m2040541042_AdjustorThunk
AKj:__ZN6il2cpp2vmL17IsSocketAsyncCallEP14Il2CppDelegate
rXg:_Slot_t3975888750_marshal_pinvoke_back
wck:__ZN6il2cpp2vm6String6NewLenEPKcj
pGb:__ZN17PersistentManager9AddStreamEv
$k:_time
JAd:_ContentSizeFitter_set_verticalFit_m1831566876
pQg:_TripleDESCryptoServiceProvider_CreateDecryptor_m740960117
Gui:__Z122RuntimeInvoker_Void_t1185182177_Color_t2555686324_Single_t1397266774_SByte_t1669577662_SByte_t1669577662_SByte_t1669577662PFvvEPK10MethodInfoPvPS4_
l_e:_Material_EnableKeyword_m329692301
h0c:_cf2_stack_free
lPg:_SHA512Managed_HashCore_m2377807474
MHg:_Int64_Parse_m3309897583
_Ag:_CompareInfo_IndexOf_m667936183
Ex:__ZN7mecanim9animation19EvaluateFloatValuesEPKNS0_18ClipMuscleConstantEPKNS_18ValueArrayConstantEPKNS0_12ClipBindingsEPKNS0_10ClipOutputEPNS0_18AnimationNodeStateEfbb
VF:__ZN8Animator31ClearInternalControllerPlayableEv
STb:__ZN26SinglePassStereoSupportExt18AfterSetViewMatrixEv
sTe:_Bounds__ctor_m1937678907_AdjustorThunk
W6e:_SetupCoroutine_InvokeMember_m2661944898
_Fh:_HashSet_1__ctor_m620629637_gshared
Lwa:__ZN10GameObject8TransferI24GenerateTypeTreeTransferEEvRT_
wOj:__ZN15dense_hashtableINSt3__24pairIK10KeyWrapperINS1_IPK9FieldInfoP11Il2CppClassEEEjEES9_17ReflectionMapHashIS8_EN14dense_hash_mapIS9_jSD_NS9_14EqualsComparerINS0_8equal_toIS8_EEEENS0_9allocatorISB_EEE9SelectKeyESI_SK_E4findERSA_
Rvg:_SimpleEnumerator_MoveNext_m3113120129
LIb:__ZN13LoadOperationC2E10MemLabelId
ebf:_InputField_SendOnValueChanged_m2560301445
mYb:__ZN13RenderTexture19SetAutoGenerateMipsEb
mIa:__Z20GetTextureFormatInfo13TextureFormat
rbg:_TypeConverterAttribute_Equals_m1580461255
Qsf:_RSAManaged_ToXmlString_m2369501989
sA:__ZN26AnimatorControllerPlayable8GetFloatEiRf
c6g:_Decimal_System_IConvertible_ToUInt64_m1323635232_AdjustorThunk
q3g:_DateTime_System_IConvertible_ToSingle_m2193708681_AdjustorThunk
NDb:__ZNK35ScriptingManagedObjectProxyRegistry11InitProxiesEv
ybd:__ZN2UI14CanvasRenderer13AwakeFromLoadE17AwakeFromLoadMode
aWd:__ZL64String_t_CustomAttributesCacheGenerator_String_Split_m3580120853P21CustomAttributesCache
xik:__ZN6il2cpp5utils10MemoryPool6MallocEj
KM:__ZN11SoundHandle8InstanceD2Ev
DOd:_ResourceEnumerator_Reset_m3754276504
Ufa:__ZN31CanvasBatchIntermediateRenderer13StaticDestroyEPv
DOb:__ZNSt3__26__treeI17DeviceRasterState14MemoryCompLessIS1_ENS_9allocatorIS1_EEE25__emplace_unique_key_argsIS1_JS1_EEENS_4pairINS_15__tree_iteratorIS1_PNS_11__tree_nodeIS1_PvEEiEEbEERKT_DpOT0_
Hxk:_emscripten_glBindProgramARB__wrapper
oGi:_Array_InternalArray__set_Item_TisPlayerLoopSystem_t105772105_m93492520_gshared
Imc:__Z41Register_UnityEngine_CullingGroup_Disposev
iaj:_PatternCompiler_EmitRepeat_m697083858
XQa:__ZN7Cubemap23VirtualRedirectTransferER19StreamedBinaryWriteILb0EE
gNj:__ZN6il2cpp2vm7Runtime47RaiseExecutionEngineExceptionIfMethodIsNotFoundEPK10MethodInfoPK19Il2CppGenericMethod
wu:__Z14FindAvatarRootPKN7mecanim8skeleton8SkeletonEPKjR9Transformb
Meb:__ZN25MultiBlocksMemoryFileData5WriteEyyPKv
fOd:_ResourceReader_Read7BitEncodedInt_m3568166465
sQh:_BlockProcessor_Core_m2138791525
Nvj:_CanvasGroup_set_alpha_m4032573
Tog:_Array_get_LongLength_m978104875
wQb:__ZL17ProgramUniform2fvPK7ApiGLESjiihPKv
Myk:b83
AYc:__ZN20TextRenderingPrivate8FontImpl21HasCharacterInTextureEjijfPj
W8e:_Transform_SetAsFirstSibling_m253439912
z3g:_DateTime_System_IConvertible_ToUInt16_m4182197229_AdjustorThunk
Sjg:_Interval_get_IsDiscontiguous_m3016063288
q2i:_SslStreamBase_get_CheckCertRevocationStatus_m2739906607
yok:_htonl
ZNb:__Z20GetBufferManagerGLESv
Lyk:b82
ACb:__ZN18StreamedBinaryReadILb0EE21TransferSTLStyleArrayI31ArrayOfManagedObjectsTransfererEEvRT_17TransferMetaFlags
ola:__ZL60__ManagedRegistrationHelperFunction_FailedToLoadScriptObjectPv
ZPc:__Z18Transfer_BlittableI8JSONReadLb0EtEvRK29SerializationCommandArgumentsR31RuntimeSerializationCommandInfo
e7:__Z16GenerateTypeTreeRK6ObjectR8TypeTree24TransferInstructionFlags
RBg:_CultureInfo_CreateCulture_m1493441763
hQg:_TripleDES_IsWeakKey_m2147489852
eB:__ZN34AnimationStateMachineMixerPlayable13EndTransitionEv
DL:__ZN12AudioManager21FixMasterGroupRoutingEv
_Za:__ZNK19ShaderPropertySheet11HasPropertyERKN9ShaderLab16FastPropertyNameE
Gsk:dynCall_viffffii
yxi:__Z81RuntimeInvoker_Boolean_t97287965_NavigationU26_t1807167253_Navigation_t3049316579PFvvEPK10MethodInfoPvPS4_
Mzk:_emscripten_glUniform1fv__wrapper
Cab:__ZN2UI13RectTransform19SetAnchoredPositionERK8Vector2f
VFd:_GridLayoutGroup_SetLayoutHorizontal_m2838109254
$Bd:_Dropdown_RefreshShownValue_m2806045241
Iob:__Z18Transfer_BlittableI14SafeBinaryReadLb1E4AABBEvRK29SerializationCommandArgumentsR31RuntimeSerializationCommandInfo
z7j:__ZN6il2cpp6icalls8mscorlib6System4Enum12get_hashcodeEP12Il2CppObject
xhk:_GC_set_no_dls
cAd:_ColorBlock_set_normalColor_m254595671_AdjustorThunk
Zlk:__ZN6il2cpp8metadata26Il2CppGenericMethodCompare6EqualsEPK19Il2CppGenericMethodS4_
GJf:_InternalEnumerator_1_get_Current_m1007906068_gshared
Hqa:__ZN9Scripting11UnityEngine7Color329InitProxyEv
fhd:__ZN11UnityEngine9Analytics15AnalyticsConfig12EventsConfig8TransferI8JSONReadEEvRT_
Tvg:_SimpleEnumerator_Reset_m1520014659
US:__ZN9AudioClip7WWWOpenEPKciPjPPvS4_
zob:__Z18Transfer_BlittableI14SafeBinaryReadLb0E8Vector2fEvRK29SerializationCommandArgumentsR31RuntimeSerializationCommandInfo
ywf:_Context_set_ProtocolNegotiated_m2904861662
b3j:__ZN15dense_hashtableINSt3__24pairIK10KeyWrapperINS1_IPKcS4_EEEiEES6_24NamespaceAndNamePairHashN14dense_hash_mapIS6_iS9_NS6_14EqualsComparerI26NamespaceAndNamePairEqualsEENS0_9allocatorIS8_EEE9SelectKeyESD_SF_E12resize_deltaEjj
msj:__ZL25UnresolvedVirtualCall_222P12Il2CppObjectfPK10MethodInfo
oJe:_RemotingServices_GetRemoteObject_m2117098022
cwj:_CanvasRenderer_SetTexture_m1600559835
GUh:_Collection_1_System_Collections_IList_IndexOf_m4256072926_gshared
Drc:__Z53Register_UnityEngine_Input_INTERNAL_get_mousePositionv
RNb:__ZN7ApiGLES12DrawElementsE16GfxPrimitiveTypePKvjjjj
VRh:_EncryptedPrivateKeyInfo_get_Salt_m3453455261
q_g:_DateTime__ParseNumber_m1240316250
wSc:__ZN8JSONRead21TransferSTLStyleArrayI13dynamic_arrayIfLj0EEEEvRT_17TransferMetaFlags
FTg:_Single_System_IConvertible_ToSingle_m1939829239_AdjustorThunk
TC:__ZN11UnityEngine9Animation31SetHumanTransformPropertyValuesERKNS0_21AvatarBindingConstantERKN7mecanim8skeleton13SkeletonPoseTIN4math4trsXEEEby
R0:__GLOBAL__sub_I_Runtime_Utilities_6_cpp
WFf:_InternalEnumerator_1_get_Current_m3839250771_gshared
tBg:_CultureInfo_get_TextInfo_m2342840448
ed:_SDL_GetTicks
vgd:__ZN2UI14CanvasRenderer11SyncCullingENS0_8SyncFlagE
sQj:__ZN15dense_hashtableINSt3__24pairIK10KeyWrapperINS1_IPK11Il2CppImageP11Il2CppClassEEEjEES9_17ReflectionMapHashIS8_EN14dense_hash_mapIS9_jSD_NS9_14EqualsComparerINS0_8equal_toIS8_EEEENS0_9allocatorISB_EEE9SelectKeyESI_SK_E6insertERKSB_
pD:__ZN8Animator24SortJobsBasedOnHierarchyERK13dynamic_arrayINS_11AnimatorJobELj0EERS0_IS2_Lj0EE
uu:__Z16AppendPathToHashRKN7mecanim5crc32EPKc
W5b:__Z21CreateShadowCullerJobP30CreateUmbraShadowCullerJobData
O0h:_ReadOnlyCollection_1_System_Collections_Generic_ICollectionU3CTU3E_Remove_m4072504734_gshared
oQb:__ZL18ProgramUniform2uivPK7ApiGLESjiihPKv
Nyd:_U3COnFinishSubmitU3Ec__Iterator0_MoveNext_m2729496168
mzk:_glUniform4iv__wrapper
F2b:__Z33GenerateShadowCasterPartsSortDataRK16ShadowCasterDatajRK15RenderNodeQueueRKNSt3__26vectorI20ShadowCasterPartData13stl_allocatorIS7_L18MemLabelIdentifier2ELi16EEEERK10Matrix4x4fRjP20ShadowCasterSortData
cWb:__ZZ23InitPlayerLoopCallbacksvEN51PostLateUpdateTriggerEndOfFrameCallbacksRegistrator7ForwardEv
aqh:_TimeSpan_Compare_m753151303
Whb:__ZN9GfxDevice16DynamicBatchMeshERK10Matrix4x4fPKhjjPKtj26GfxTransformVerticesParams25GfxTransformVerticesFlagsj
Hrb:__Z29Transfer_Blittable_ArrayFieldI14SafeBinaryRead9BoundsIntEvRT_R9ArrayInfoRK23StaticTransferFieldInfo
o$c:_cf2_computeDarkening
Qwj:_AnimationLayerMixerPlayable__ctor_m860721801_AdjustorThunk
rMd:_MonoPropertyInfo_get_property_info_m1599555644
hQe:_DESTransform_CipherFunct_m3527261721
Vek:_GC_expand_hp_inner
k5j:__ZNK15dense_hashtableI10KeyWrapperIP18Il2CppGenericClassES3_N6il2cpp8metadata22Il2CppGenericClassHashEN14dense_hash_setIS3_S6_NS3_14EqualsComparerINS5_25Il2CppGenericClassCompareEEENSt3__29allocatorIS3_EEE8IdentityESA_SD_E12test_deletedEj
WGc:__Z25Screen_Get_Custom_PropDpiv
MXe:_UnityEventBase_RebuildPersistentCallsIfNeeded_m216788690
Ybk:__ZN4utf812find_invalidIPKcEET_S3_S3_
fdf:_InputField_OnEndDrag_m4127187089
l3h:_ReadOnlyCollection_1_System_Collections_IList_RemoveAt_m2555465054_gshared
nZd:__ZL72RuntimeCompatibilityAttribute_t1169614002_CustomAttributesCacheGeneratorP21CustomAttributesCache
L5b:__Z59ProcessShadowCasterNodeVisibilityAndCullWithoutUmbra_KernelILN17CullingParameters9LayerCullE2ELi8EEvR9IndexListRK22SceneCullingParametersPK9SceneNodePK4AABBjjPKN4math7_float4E
n7g:_StackFrame__ctor_m343464319
KZ:__ZN11UnityEngine15CloudWebService20WebRequestRestClient7PrepareEv
zLd:_MonoField_CheckGeneric_m453069507
nYc:__ZN20TextRenderingPrivate19NativeTextGenerator23FixLineHorizontalOffsetEiii
BCb:__Z19TransferField_ArrayI18StreamedBinaryReadILb0EE27Converter_UnityEngineObjectEvRK23StaticTransferFieldInfoR31RuntimeSerializationCommandInfoRT0_
gMe:_ObjectReader_ReadArrayOfString_m3550800559
O_f:_MonoCustomAttrs_GetCustomAttributesInternal_m648304078
xC:__ZN7mecanim9animation19DestroyAnimationSetEPNS0_12AnimationSetERNS_6memory9AllocatorE
vpa:__ZN9Scripting11UnityEngine12Experimental9Rendering16CameraProperties9InitProxyEv
Wfb:__ZN16MemoryFileSystem4OpenER13FileEntryData14FilePermission16FileAutoBehavior
VAg:_CompareInfo_GetSortKey_m1915852346
N7c:_ft_var_load_avar
Ffa:__ZN13RuntimeStaticI13RendererSceneLb0EE13StaticDestroyEPv
fNf:_DefaultComparer_Compare_m1297750557_gshared
Xuf:_CipherSuiteCollection_get_Item_m3790183696
Oub:__Z18Transfer_BlittableI24GenerateTypeTreeTransferLb1E12PropertyNameEvRK29SerializationCommandArgumentsR31RuntimeSerializationCommandInfo
plj:_Toggle_OnEnable_m1421694809
p3a:__ZN14SafeBinaryRead21TransferSTLStyleArrayI10vector_mapIPKN5Unity4TypeE7Hash128NSt3__24lessIS5_EENS7_9allocatorINS7_4pairIS5_S6_EEEEEEEvRT_17TransferMetaFlags
TS:__ZN9AudioClip18GetQueuedAudioDataEPPvj
iad:__ZN20TextRenderingPrivate21TextMeshGeneratorImpl14GarbageCollectEv
Zjc:__ZNK9Texture2D17CheckHasPixelDataEv
Cwb:__Z18Transfer_BlittableI19StreamedBinaryWriteILb0EELb0E9BoundsIntEvRK29SerializationCommandArgumentsR31RuntimeSerializationCommandInfo
d_b:__Z18SetShadowsKeywordsR17ShaderPassContext9LightType10ShadowType16ShadowProjectionbb
ZEd:_Graphic_GetPixelAdjustedRect_m3729397999
iUj:__ZN14dense_hash_mapI10KeyWrapperINSt3__24pairIPK12PropertyInfoP11Il2CppClassEEEj17ReflectionMapHashIS8_ENS9_14EqualsComparerINS1_8equal_toIS8_EEEENS1_9allocatorINS2_IKS9_jEEEEEC2EjRKSB_RKSF_
Zuc:__ZN17CollisionMeshDataC2Ev
UPd:_Marshal_Copy_m1222846562
zjc:__ZL24FindBelongingStructParamRPKcRNSt3__26vectorIN9ShaderLab20SerializedSubProgram14ConstantBufferENS2_9allocatorIS6_EEEE
fmk:__GLOBAL__sub_I_Error_cpp
fWb:__ZZ23InitPlayerLoopCallbacksvEN47PostLateUpdateMemoryFrameMaintenanceRegistrator7ForwardEv
TNb:__ZN7ApiGLES20SetVertexArrayAttribEjj12VertexFormathjPKv
Gfk:_GC_push_next_marked
P7a:__ZN18IDCollectorFunctor18GenerateInstanceIDEi17TransferMetaFlags
BLi:_GameObject_GetComponent_TisRuntimeObject_m2049753423_gshared
Buj:_TextGenerationSettings_Equals_m3618607189_AdjustorThunk
Qag:_NameObjectCollectionBase_BaseAdd_m3437748750
trh:_Type_internal_from_handle_m3156085815
jGj:__ZN15dense_hashtableINSt3__24pairIK10KeyWrapperIN6il2cpp5utils13dynamic_arrayIPK10Il2CppTypeLj4EEEEPFvvEEESA_NS3_8metadata19Il2CppSignatureHashEN14dense_hash_mapISA_SD_SG_NSA_14EqualsComparerINSF_22Il2CppSignatureCompareEEENS0_9allocatorISE_EEE9SelectKeyESK_SM_E12maybe_shrinkEv
X_h:_ReadOnlyCollection_1_System_Collections_Generic_ICollectionU3CTU3E_Add_m69722965_gshared
pG:__ZN8Animator8TransferI19StreamedBinaryWriteILb0EEEEvRT_
waa:__ZNSt3__27__sort4IRNS_6__lessI14ObjectLoadDataS2_EEPS2_EEjT0_S6_S6_S6_T_
KYb:__ZNK25CameraStackRenderingState16GetCurrentCameraEv
Nkf:_ScrollRect_get_rectTransform_m2442061719
wzc:__Z22PlayableValidityChecksRK9HPlayableb
mqe:__ZL57AnimationCurve_t3046754366_CustomAttributesCacheGeneratorP21CustomAttributesCache
M4a:__ZN15ResourceManagerD2Ev
Loc:__Z41Register_UnityEngine_Camera_GetAllCamerasv
bXe:_InvokableCall__ctor_m2158562079
xbj:_Assertion__ctor_m2128950829
Tmd:__ZN28PerformanceReportingSettings8TransferI14SafeBinaryReadEEvRT_
g9a:__ZN15CacheWriterBase18GetAddressOfMemoryEv
fQc:__Z18Transfer_BlittableI8JSONReadLb1E5RectTIiEEvRK29SerializationCommandArgumentsR31RuntimeSerializationCommandInfo
Z_j:__ZN6il2cpp2vm22EmbeddedResourceRecordC2ERKS1_
vJb:__ZL20DrawVBOChunkWithPassP6ShaderPN9ShaderLab4PassER17ShaderPassContextR10DynamicVBORK21DynamicVBOChunkHandle
L$i:_Collection_1__ctor_m825528237_gshared
SQa:__ZN9Texture2D13AwakeFromLoadE17AwakeFromLoadMode
jJa:__ZN4core8hash_mapIPK17RenderSurfaceBaseP13RenderTexture19PointerHashFunctionIS3_ENSt3__28equal_toIS3_EEE6insertERKS3_RKS5_
sch:_SetPropertyUtility_SetStruct_TisColorBlock_t2139031574_m1748367426_gshared
B0e:_PlayerConnection_get_instance_m1750121257
F5j:__ZN6il2cpp2vm3RCW14QueryInterfaceILb0EEEP14Il2CppIUnknownP15Il2CppComObjectRK10Il2CppGuid
rJi:_Dictionary_2_Do_CopyTo_TisRuntimeObject_TisRuntimeObject_m2341992100_gshared
T6i:_X509Store_get_Certificates_m56224934
jha:__ZN6prcoreL17RemapGenericFloatI15TexFormatRFloat18TexFormatARGBFloatEEvPKNS_9InnerInfoE
gki:__Z85RuntimeInvoker_Void_t1185182177_Int64_t3736567304_Int32_t2950945753_Int64_t3736567304PFvvEPK10MethodInfoPvPS4_
Stf:_CipherSuite__ctor_m2440635082
YNg:_RSAPKCS1KeyExchangeFormatter_SetRSAKey_m1477802943
RRg:_EvidenceEnumerator_get_Current_m1264365535
Ynd:__ZN11UnityEngine15PlatformWrapper20GetPlayerPrefsUInt64ERKN4core12basic_stringIcNS1_20StringStorageDefaultIcEEEEy
TPd:_Marshal_copy_from_unmanaged_m2834266824
Tsk:dynCall_iiiifii
f2b:__ZN20ReflectionProbeCacheC2ER13BatchRendererR15RenderLoopStats
x4e:_Rect_set_xMax_m1720695099_AdjustorThunk
Vmi:__Z59RuntimeInvoker_Int32_t2950945753_DateTimeOffset_t3229287507PFvvEPK10MethodInfoPvPS4_
hcb:__ZNK12HandlerChain6ExistsERK13FileEntryData
eWa:__ZN15SerializeTraitsI13dynamic_arrayI26EnlightenSystemInformationLj0EEE19ResizeSTLStyleArrayERS2_i
Szg:_Calendar__ctor_m106290643
UAc:__ZNSt3__26vectorIj13stl_allocatorIjL18MemLabelIdentifier1ELi16EEE6assignIPKjEENS_9enable_ifIXaasr21__is_forward_iteratorIT_EE5valuesr16is_constructibleIjNS_15iterator_traitsIS9_E9referenceEEE5valueEvE4typeES9_S9_
J1a:__ZN12InputManager23VirtualRedirectTransferER24GenerateTypeTreeTransfer
Mab:__ZN9Transform23VirtualRedirectTransferER24GenerateTypeTreeTransfer
uKc:__ZN12GUIClipState10BeginOnGUIER10InputEvent
yoi:__Z87RuntimeInvoker_RuntimeObject_Byte_t1134296376_RuntimeObject_RuntimeObject_RuntimeObjectPFvvEPK10MethodInfoPvPS4_
Bvf:_HandshakeMessage_Process_m810828609
i6c:_UNITY_tt_size_ready_bytecode
_Wc:__ZN13TextRendering4FontD2Ev
i3e:_Quaternion_Inverse_m1311579081
c_c:_UNITY_FT_Stream_Open
j7h:__ZN28GenericInterfaceFuncInvoker1Ib20UIVertex_t4057497605E6InvokeEPK10MethodInfoP12Il2CppObjectS0_
Rvb:__Z29Transfer_Blittable_ArrayFieldI24GenerateTypeTreeTransfer9BoundsIntEvRT_R9ArrayInfoRK23StaticTransferFieldInfo
FFd:_GraphicRegistry__cctor_m1805310505
xTe:_Bounds_Equals_m3920299735
JEa:__ZN8keywords18KeywordSetToStringERK16ShaderKeywordSetRN4core12basic_stringIcNS3_20StringStorageDefaultIcEEEE
kYf:_StreamWriter_FlushBytes_m1531540244
sLb:__ZN13GfxDeviceGLES26UpdateViewProjectionMatrixEv
qji:__Z77RuntimeInvoker_Void_t1185182177_Int64_t3736567304_ResourceInfoU26_t1611441338PFvvEPK10MethodInfoPvPS4_
LKh:_List_1_CheckCollection_m1717250693_gshared
wzi:__Z53RuntimeInvoker_Int32_t2950945753_Keyframe_t4206410242PFvvEPK10MethodInfoPvPS4_
pL:__ZN4FMOD3DSP12setParameterEif
RGb:__ZN13MemoryManager16StaticInitializeEv
vBg:_CultureInfo_Equals_m1360976324
kf:___cxa_free_exception
Gme:__ZL69PersistentCall_t3407714124_CustomAttributesCacheGenerator_m_CallStateP21CustomAttributesCache
AN:__ZN4FMOD22FakeModChannelCallbackEPv
Fpa:__ZN9Scripting11UnityEngine12Experimental10PlayerLoop14PostLateUpdate9InitProxyEv
qf:_emscripten_glValidateProgram
DCa:__ZN4Mesh10CreateMeshEv
oR:__ZN4FMOD7SystemI11createSoundEPKcjP22FMOD_CREATESOUNDEXINFOPPNS_5SoundE
$3g:_DateTime_CompareTo_m3889078633
R$c:_cf2_stack_clear
W0f:_NumberFormatter_set_CurrentCulture_m1358228087
t1j:__ZN6il2cpp6icalls8mscorlib6System4Type27get_IsGenericTypeDefinitionEP20Il2CppReflectionType
c8b:__ZN7Texture13SetAnisoLevelEi
XX:__ZNSt3__26__treeINS_12__value_typeIN4core12basic_stringIcNS2_20StringStorageDefaultIcEEEEjEENS_19__map_value_compareIS6_S7_NS_4lessIS6_EELb1EEE13stl_allocatorIS7_L18MemLabelIdentifier88ELi16EEE7destroyEPNS_11__tree_nodeIS7_PvEE
Flb:__ZN19EndOfFrameCallbacks7EnqueueEP18EndOfFrameCallbackb
EZe:_Input_set_compositionCursorPos_m1909373301
FWa:__ZN15SerializeTraitsI13dynamic_arrayI31EnlightenSystemAtlasInformationLj0EEE8TransferI19StreamedBinaryWriteILb0EEEEvRS2_RT_
hTc:__ZN27PerformanceReportingManager23VirtualRedirectTransferER24GenerateTypeTreeTransfer
LZc:_raccess_guess_vfat
fli:__Z78RuntimeInvoker_IntPtr_t_SByte_t1669577662_RuntimeObject_BooleanU26_t4125257963PFvvEPK10MethodInfoPvPS4_
idd:__Z44Canvas_CUSTOM_GetETC1SupportedCanvasMaterialv
bIa:__ZN11HaloManager10UpdateHaloEiR9Transform11ColorRGBA32fjP6Object
D6g:_Decimal_decimalSetExponent_m3707787243
S3:__ZN33InstancedMeshIntermediateRenderer13StaticDestroyEPv
gmd:__ZN28UnityConnectScriptingClasses35RemoteSettingsBeforeFetchFromServerEP21ScriptingExceptionPtr
b2j:__ZN14dense_hash_mapI10KeyWrapperIP14Il2CppIUnknownEjN6il2cpp5utils11PointerHashIS1_EENS3_14EqualsComparerINSt3__28equal_toIS2_EEEENS9_9allocatorINS9_4pairIKS3_jEEEEE13set_empty_keyERSF_
Glb:__ZN15dense_hashtableINSt3__24pairIK9TextureIDiEES2_14GfxGenericHashIS2_EN14GfxDoubleCacheIS2_iS6_NS0_8equal_toIS2_EEN31GfxDoubleCacheConcurrencyPolicy11LocklessGetE42GfxDoubleCacheDefaultEmptyDeletedGeneratorIS2_EE9SelectKeyES9_13stl_allocatorIS4_L18MemLabelIdentifier24ELi16EEE12resize_deltaEjj
AAa:__Z21DestroyShadowMapCacheP14ShadowMapCache
Oz:__ZN7mecanim9animation25CreateControllerWorkspaceEPKNS0_18ControllerConstantERNS_6memory9AllocatorE
PKi:_Array_InternalArray__get_Item_TisLabelFixup_t858502054_m3276643490_gshared
e9b:__Z20RequiredComponentsOf17ScriptingClassPtr
$0j:__ZN6il2cpp2vm13LivenessState5ResetEv
nMc:__ZN9JSONWrite8TransferI11KeyframeTplIfEEEvRT_PKc17TransferMetaFlags
N7b:__ZN22RenderingCommandBuffer23CleanupTemporaryRTArrayER13dynamic_arrayINSt3__24pairIN9ShaderLab16FastPropertyNameEP13RenderTextureEELj0EE
_Xg:_SortedList_GetImpl_m3689246167
w_h:_ReadOnlyCollection_1_System_Collections_Generic_IListU3CTU3E_set_Item_m3209059215_gshared
Xkb:__ZN24BuiltinShaderParamValuesC2Ev
d5i:_PKCS12_Decode_m163534693
DMc:__ZL41CreateJSONTransferFunctionScriptingTraitsv
aec:__ZN6Shader23VirtualRedirectTransferER14SafeBinaryRead
Jcf:_InputField_SendOnSubmit_m3463846103
Oaf:_WaitForSecondsRealtime_get_keepWaiting_m846832224
dFb:__Z23GetLateBehaviourManagerv
dii:__Z33RuntimeInvoker_Single_t1397266774PFvvEPK10MethodInfoPvPS4_
U8:__ZN10MemoryPool10DeallocateEPv
ksi:__Z80RuntimeInvoker_Void_t1185182177_ScriptableRenderContext_t274343796_RuntimeObjectPFvvEPK10MethodInfoPvPS4_
slb:__ZN14GfxDeviceStats10ResetFrameEv
Kra:__ZN9Scripting5Unity11Collections8LowLevel6Unsafe43NativeSetClassTypeToNullOnScheduleAttribute12CleanupProxyEv
wsk:dynCall_vif
f6a:__ZN18LoadSceneOperation22CompleteLoadFirstSceneEv
i1g:_Convert_ToSByte_m4075629912
zsk:dynCall_vii
rRh:_KeyPairPersistence_FromXml_m746585742
Cih:_Decoder__ctor_m4046021500
pCb:__Z18Transfer_BlittableI18StreamedBinaryReadILb0EELb0EdEvRK29SerializationCommandArgumentsR31RuntimeSerializationCommandInfo
Oyd:_ColorBlock_get_fadeDuration_m121071467
MLj:__ZN6il2cpp6icalls8mscorlib6System8MonoType18GetFields_internalEP20Il2CppReflectionTypeiS5_
fsa:__ZN5Unity9Component16CheckConsistencyEv
iMd:_MonoMethod_get_ContainsGenericParameters_m3860345224
cCa:__ZN19ShaderPropertySheet37CreateTextureAuxPropertyUninitializedEN9ShaderLab16FastPropertyNameES1_PKc
exb:__ZL26Transfer_SimpleNativeClassI19StreamedBinaryWriteILb0EE10RectOffsetLb1EEvRK29SerializationCommandArgumentsR31RuntimeSerializationCommandInfo
cPj:__ZN15dense_hashtableINSt3__24pairIK10KeyWrapperIPK10Il2CppTypeEjEES6_N6il2cpp8metadata14Il2CppTypeHashEN14dense_hash_mapIS6_jSB_NS6_14EqualsComparerINSA_26Il2CppTypeEqualityComparerEEENS0_9allocatorIS8_EEE9SelectKeyESF_SH_E3endEv
NMb:__ZN13GfxDeviceGLES17SetGpuProgramNameEP10GpuProgramPKc
XZ:__ZNK11UnityEngine15CloudWebService25WebRequestDownloadHandler11GetProgressEv
sig:_CategoryUtils_CategoryFromName_m1352081402
Fgh:_Array_InternalArray__ICollection_Add_TisMonoResource_t4103430009_m2699164149_gshared
HIj:__ZN6il2cpp2vm13MetadataCache28GetMethodDefinitionFromIndexEi
Sak:__ZN6il2cpp2os20FileErrnoToErrorCodeEi
AMa:__ZN14SafeBinaryRead19TransferSTLStyleMapINSt3__23mapI39DeprecatedFastPropertyNameSerialization10ColorRGBAfNS1_4lessIS3_EENS1_9allocatorINS1_4pairIKS3_S4_EEEEEEEEvRT_17TransferMetaFlags
j$g:_Decimal_ThrowAtPos_m1170269346
$g:_atexit
xmf:_Selectable_set_image_m3625164794
_Jf:_InternalEnumerator_1_get_Current_m1232221964_gshared
v2h:_ReadOnlyCollection_1_System_Collections_Generic_IListU3CTU3E_Insert_m1818924748_gshared
kSj:__ZN6il2cpp2vmL31GetObjectForMissingDefaultValueEj
$G:__ZNK26AnimatorOverrideController13GetBehavioursEv
hyd:_AspectRatioFitter__ctor_m2468506840
gNb:__ZN13GfxDeviceGLES22UpdateComputeResourcesERK22ComputeShaderResources
_jd:__ZN11UnityEngine15PlatformWrapper30GetVRPlayAreaBoundaryDimensionEv
FHi:_Array_Sort_TisBoolean_t97287965_TisBoolean_t97287965_m2753381653_gshared
c6i:_X509Certificate_get_Hash_m410033711
Bgc:__ZN9ShaderLab14SerializedPassC2ERKS0_
MMc:__Z35Transfer_Blittable_FixedBufferFieldI9JSONWritehEvRK29SerializationCommandArgumentsR31RuntimeSerializationCommandInfo
uaf:_Vector4_get_Item_m2380866393_AdjustorThunk
Zke:__ZL48Random_t635017412_CustomAttributesCacheGeneratorP21CustomAttributesCache
R1c:_cff_get_name_index
_Va:__ZN21EnlightenSceneMapping16BuildRemapTablesEv
wja:__ZN6prcoreL12RemapGenericI13TexFormatRG8817TexFormatARGB8888EEvPKNS_9InnerInfoE
Xaa:__ZN17TransformInternal27UpdateDeepChildCountUpwardsER18TransformHierarchyii
lTg:_Single_System_IConvertible_ToBoolean_m1716619219_AdjustorThunk
dAc:__ZN16StreamedResource8TransferI14SafeBinaryReadEEvRT_
Qhe:__ZL52Matrix4x4_t1817901843_CustomAttributesCacheGeneratorP21CustomAttributesCache
QBd:_Image_set_type_m2038193736
A:tempBigIntD
z7b:__ZNK25CameraStackRenderingState25CalculateCameraTargetTypeEv
HHd:_PropertyBuilder_GetSetMethod_m128670376
y:tempBigIntR
x:tempBigIntS
w:tempBigIntP
pn:FUNCTION_TABLE_viffi
Aaa:__ZN6Object18RegisterInstanceIDEPS_
tub:__Z18Transfer_BlittableI24GenerateTypeTreeTransferLb1EsEvRK29SerializationCommandArgumentsR31RuntimeSerializationCommandInfo
W6j:__ZN15dense_hashtableINSt3__24pairIK10KeyWrapperIP12Il2CppObjectEN6il2cpp2gc9CachedCCWEEES5_NS7_5utils11PointerHashIS3_EEN14dense_hash_mapIS5_S9_SD_NS5_14EqualsComparerINS0_8equal_toIS4_EEEENS0_9allocatorISA_EEE9SelectKeyESI_SK_E11set_deletedER30dense_hashtable_const_iteratorISA_S5_SD_SM_SI_SK_E
whb:__ZNK9GfxDevice18GetWorldViewMatrixEv
Ovi:__Z70RuntimeInvoker_Single_t1397266774_Single_t1397266774_Int32_t2950945753PFvvEPK10MethodInfoPvPS4_
HQg:_X509Certificate_GetPublicKey_m4184729161
Xwc:__ZZL31RegisterOtherRendererPropertiesR22GenericPropertyBindingEN28Wrapper_RendererSortingOrder13SetFloatValueEPvf
O1g:_Convert_ToUInt16_m3902921832
E3f:_Assembly_GetTypes_m1724781913
z0d:__ZL54TypeBuilder_t1073948154_CustomAttributesCacheGeneratorP21CustomAttributesCache
wmh:_UTF7Encoding_GetByteCount_m3616172568
Hmg:_SmallXmlParser_ReadComment_m1578426707
tLh:_List_1_AddEnumerable_m376418521_gshared
Doi:__Z79RuntimeInvoker_Void_t1185182177_Byte_t1134296376_Byte_t1134296376_RuntimeObjectPFvvEPK10MethodInfoPvPS4_
OFj:__ZNSt3__218__insertion_sort_3IRN6il2cpp5utils11collections13ArrayValueMapIPK10Il2CppType17Il2CppInteropData26InteropDataToTypeConverterNS1_8metadata14Il2CppTypeLessENSA_26Il2CppTypeEqualityComparerEE12SortComparerEPS8_EEvT0_SH_T_
Ahb:__ZNK9GfxDevice25GetDeviceProjectionMatrixEv
Hgc:__ZNSt3__26__treeINS_12__value_typeI11ShaderTagIDS2_EENS_19__map_value_compareIS2_S3_NS_4lessIS2_EELb1EEENS_9allocatorIS3_EEE14__assign_multiINS_21__tree_const_iteratorIS3_PNS_11__tree_nodeIS3_PvEEiEEEEvT_SI_
ma:invoke_iidiii
zub:__Z18Transfer_BlittableI24GenerateTypeTreeTransferLb1EtEvRK29SerializationCommandArgumentsR31RuntimeSerializationCommandInfo
VT:__ZN12AudioManager33GetCurrentAmbisonicDefinitionNameE31UnityAudioEffectDefinitionFlags
rCc:__ZN11UTF16StringC2EPKc10MemLabelId
MBc:__ZN10systeminfo24GetRuntimePlatformStringEv
HJg:_MonoIO_DeleteFile_m3839141322
Zta:__ZN10SpookyHash5ShortEPKvjPyS2_
$ad:__ZN9Scripting11UnityEngine6Canvas12CleanupProxyEv
i4:__ZN13RuntimeStaticI13ModuleManagerLb0EE13StaticDestroyEPv
r9j:__ZN6il2cpp6icalls8mscorlib6System6String22RedirectToCreateStringEv
m0d:__ZL99ILGenerator_t1388622344_CustomAttributesCacheGenerator_ILGenerator_Mono_GetCurrentOffset_m993338688P21CustomAttributesCache
Sff:_LayoutRebuilder_ReapplyDrivenProperties_m2581469389
c3e:_PropertyName_op_Implicit_m1633828199
nCa:__ZN9ShaderLab6TexEnvC2ERKNS_25SerializedTexturePropertyE
Gdf:_InputField_Append_m687033660
hxa:__ZN9Transform32SetLocalScaleWithoutNotificationERKN4math7_float3Ey
zLa:__ZN19ShaderPropertySheet38CopyTextureWithAuxiliaryPropertiesFromERKN9ShaderLab16FastPropertyNameERKS_
lYc:__ZN20TextRenderingPrivate19NativeTextGeneratorD2Ev
kKj:__ZN6il2cpp2vm19SocketPollingThread14DequeueRequestEv
$8j:__ZL10RevealLinkPv
T2g:_DateTime__ctor_m12900168_AdjustorThunk
K6b:__ZN27IntermediateRendererManager24AddIntermediateRenderersEP21IntermediateRenderersi
kwf:_ClientSessionCache_FromContext_m343076119
Fi:___cxa_end_catch
bQg:_ToBase64Transform_TransformBlock_m2497349397
fbg:_NameValueCollection_Add_m2418530856
eIe:_ReturnMessage_get_MethodSignature_m399735125
rdd:__Z43Register_UnityEngine_Canvas_set_scaleFactorv
fNh:_SortKeyBuffer_AppendLevel5_m3963841125
Fdj:_PositionAssertion_Compile_m2500980346
wvg:_ArrayListWrapper_ToArray_m3192696690
MZc:_raccess_guess_linux_cap
qU:__Z36AudioSource_Get_Custom_PropIsPlayingP12Il2CppObject
Lr:__ZN13ConstraintJob23ConstraintComponentDataC2ERK18RotationConstraint
DHc:__ZL48__ManagedRegistrationHelperFunction_StylePainterPv
Jqg:_Attribute_GetCustomAttribute_m4034845276
Y4:__Z33InitializeBuiltinShaderParamNamesv
Trh:_Type_GetConstructor_m2219014380
Lzd:_CanvasUpdateRegistry_SortLayoutList_m471948466
Hsa:__ZNK16TypeTreeIterator4TypeEv
OUb:__ZN10FileSystem25MountDataFolderFileSystemERKN4core12basic_stringIcNS0_20StringStorageDefaultIcEEEES6_
pkg:_ArgumentOutOfRangeException__ctor_m282481429
cgj:_GUILayoutUtility_Internal_MoveWindow_m3463958180
oj:_glGetUniformLocation
bMb:__ZN13GfxDeviceGLES32CreateColorRenderSurfacePlatformEP17RenderSurfaceBase19RenderTextureFormat
PXb:__ZN22RenderingCommandBuffer20ExecuteCommandBufferER17ShaderPassContextR15RenderNodeQueuejP13dynamic_arrayINSt3__24pairIN9ShaderLab16FastPropertyNameEP13RenderTextureEELj0EE16ComputeQueueTypeSA_
KS:__ZN12AudioManager24CreateFMODSoundFromMovieEP9AudioClip
puf:_CipherSuite_createEncryptionCipher_m2533565116
NUc:__ZN19ControllerHitReport10onShapeHitERKN5physx20PxControllerShapeHitE
GHj:__ZN6il2cpp2vm13MetadataCache24GetGenericInstanceMethodEPK10MethodInfoPK20Il2CppGenericContext
dfk:_GC_hblk_fl_from_blocks
pLd:_MonoField_GetParentType_m2478933781
Q9:__Z24ConvertSeparatorsToUnityPc
CRj:__ZN6il2cpp2gc19AppendOnlyGCHashMapINSt3__24pairIPK9EventInfoP11Il2CppClassEEP21Il2CppReflectionEvent17ReflectionMapHashIS9_ENS2_8equal_toIS9_EEE3AddERKS9_SB_
LZi:_Collection_1_System_Collections_ICollection_CopyTo_m46221116_gshared
kYj:__ZN6il2cpp2vm6Thread20FreeThreadStaticDataEP12Il2CppThread
Qeh:_Array_InternalArray__IndexOf_TisClientCertificateType_t1004704908_m3457772631_gshared
cci:__Z28RuntimeInvoker_RuntimeObjectPFvvEPK10MethodInfoPvPS4_
f0c:_cf2_glyphpath_finalize
C6d:__ZL56SecurityAction_t569814076_CustomAttributesCacheGeneratorP21CustomAttributesCache
$Yb:__Z20LookRotationToMatrixRK8Vector3fS1_P10Matrix3x3f
_ug:_ArrayListWrapper_set_Capacity_m2373297383
$cf:_Text_get_cachedTextGenerator_m2506989875
hHh:_Enumerator_System_Collections_IEnumerator_Reset_m502339360_AdjustorThunk
i_d:__ZL58DictionaryEntry_t3123975638_CustomAttributesCacheGeneratorP21CustomAttributesCache
Suj:_TextGenerator_GetVerticesInternal_m3222977969
mTi:_List_1_RemoveAt_m4279084788_gshared
RZc:_UNITY_FT_Stream_Free
p_j:__ZN15dense_hashtableINSt3__24pairIK10KeyWrapperINS1_IP11Il2CppClassjEEES4_EES6_N6il2cpp8metadata14ArrayClassHashEN14dense_hash_mapIS6_S4_SB_NS6_14EqualsComparerINSA_17ArrayClassCompareEEENS0_9allocatorIS8_EEE9SelectKeyESF_SH_E12maybe_shrinkEv
ELc:__ZNK5Unity9rapidjson12GenericValueINS0_4UTF8IcEE13JSONAllocatorE6AcceptINS0_12PrettyWriterI16TempBufferWriterS3_S3_S4_EEEEbRT_
EPe:_CryptoConfig_EncodeLongNumber_m4127306320
Iui:__Z87RuntimeInvoker_Void_t1185182177_Single_t1397266774_Single_t1397266774_SByte_t1669577662PFvvEPK10MethodInfoPvPS4_
fxe:__ZL63AnalyticsSessionInfo_t2322308579_CustomAttributesCacheGeneratorP21CustomAttributesCache
Rqd:__ZL47__ManagedRegistrationHelperFunction_VideoPlayerPv
dY:__ZN11UnityEngine15CloudWebService14DataDispatcher25OnDataBlockConsumedStaticEPv
lSi:_List_1_CheckIndex_m3044940639_gshared
$Kj:_GenericStack__ctor_m933681517
MAb:__Z29Transfer_Blittable_ArrayFieldI18StreamedBinaryReadILb1EE11QuaternionfEvRT_R9ArrayInfoRK23StaticTransferFieldInfo
h_f:_Math_Max_m482125436
NXg:_SortedList_InitTable_m875730861
rQd:_ActivatedServiceTypeEntry_ToString_m1591455874
ZRg:_SecurityElement_ToXml_m3664345083
VEi:_Array_InternalArray__Insert_TisParameterModifier_t1461694466_m3664994573_gshared
yAh:_DefaultComparer_Equals_m1870794912_gshared
gfc:__Z14resize_trimmedINSt3__26vectorIN9ShaderLab20SerializedSubProgram16SamplerParameterENS0_9allocatorIS4_EEEEEvRT_j
Jmf:_Shadow_set_effectColor_m3910676693
Qpk:__ZNSt3__212basic_stringIcNS_11char_traitsIcEENS_9allocatorIcEEE6insertEjPKcj
FMc:__Z44InitializeTransferFunctionScriptingTraitsForI8JSONReadEvR31TransferFunctionScriptingTraits
QJb:__ZNSt3__27__sort4IRNS_4lessIN22BuiltinResourceManager8ResourceEEEPS3_EEjT0_S7_S7_S7_T_
wag:_ListDictionary_Add_m3918308031
L6j:__ZNK15dense_hashtableINSt3__24pairIK10KeyWrapperIP12Il2CppObjectEN6il2cpp2gc9CachedCCWEEES5_NS7_5utils11PointerHashIS3_EEN14dense_hash_mapIS5_S9_SD_NS5_14EqualsComparerINS0_8equal_toIS4_EEEENS0_9allocatorISA_EEE9SelectKeyESI_SK_E23find_position_with_hashERS6_j
Icf:_Selectable_OnDisable_m3225138518
P5a:__ZN17PersistentManager34ExtractTimeSliceAwakeFromLoadQueueER27TimeSliceAwakeFromLoadQueueNS_9LockFlagsE
d7c:_UNITY_tt_face_get_location
Vij:_AesManaged_CreateEncryptor_m1611897367
bLg:_DelegatePInvokeWrapper_WriteDelegate_t4270993571
X8b:__ZN10GameObject34AddFirstTransformComponentInternalEP9Transform
Kmc:__Z31Cursor_Get_Custom_PropLockStatev
V2:__ZNSt3__26__treeINS_12__value_typeINS_4pairIPcS3_EENS_3setIS3_15compare_tstringIPKcENS_9allocatorIS3_EEEEEENS_19__map_value_compareIS4_SD_20smaller_tstring_pairIS8_ELb1EEENSA_ISD_EEE7destroyEPNS_11__tree_nodeISD_PvEE
yR:__ZN12AudioManager29GetCurrentAmbisonicDefinitionE31UnityAudioEffectDefinitionFlags
Gnc:__Z52Register_UnityEngine_GameObject_GetComponentInParentv
uoa:__ZN9Scripting11UnityEngine16ScriptableObject12CleanupProxyEv
A3a:__ZN15SerializeTraitsINSt3__24pairIPKN5Unity4TypeE7Hash128EEE8TransferI14SafeBinaryReadEEvRS7_RT_
Aek:_GC_number_stack_black_listed
H6g:_Decimal_ToString_m4018746482_AdjustorThunk
V5b:__Z37GenerateCombinedDynamicVisibleListJobP11CullResults
VYa:__ZNK13ScreenManager21GetCursorInsideWindowEv
T4f:_CustomAttributeData_GetCustomAttributes_m1033457578
aQd:_SafeHandle_DangerousAddRef_m614714386
E2b:__Z20IntersectAABBFrustumRK4AABBPK5Planej
Blf:_ScrollRect_OnDrag_m688583138
Otc:__ZN13RenderManager15InitializeClassEv
Bni:__Z74RuntimeInvoker_RuntimeObject_RuntimeObject_Double_t594665363_RuntimeObjectPFvvEPK10MethodInfoPvPS4_
hrb:__ZN15SerializeTraitsI12PropertyNameE8TransferI14SafeBinaryReadEEvRS0_RT_
mYh:_ReadOnlyCollection_1_System_Collections_IList_IndexOf_m3120991897_gshared
FUd:_Header__ctor_m1921907550
Dnf:_Slider_FindSelectableOnUp_m4062600878
e_f:_Math_Ceiling_m625148210
utc:__ZZN9Transform15InitializeClassEvEN31FunctorImpl_114kDidAddComponent4CallEPviR11MessageData
NOc:__ZN9JSONWrite8TransferI11ColorRGBA32EEvRT_PKc17TransferMetaFlags
tRc:__Z22TransferField_NonArrayI8JSONRead27Converter_SimpleNativeClassI8GradientEEvRK23StaticTransferFieldInfoR31RuntimeSerializationCommandInfoRT0_
hEb:__ZN10MonoScript13AwakeFromLoadE17AwakeFromLoadMode
Pjg:_Interval__ctor_m4022869013
Crg:_Boolean_System_IConvertible_ToUInt16_m3465173538
eVb:__ZN10MemoryFile21CreateFileSystemEntryE10MemLabelId14FilePermissionPvjb
OSb:__ZNK18GfxFramebufferGLES15DiscardContentsER12ObjectHandleI17RenderSurface_TagP17RenderSurfaceBaseE
Vqf:_ARC4Managed_KeySetup_m2449315676
ROc:__ZN9JSONWrite8TransferI13dynamic_arrayI5RectTIiELj0EEEEvRT_PKc17TransferMetaFlags
BIj:__ZN6il2cpp2vm13MetadataCache27GetEventDefinitionFromIndexEi
q0h:_ReadOnlyCollection_1_System_Collections_IEnumerable_GetEnumerator_m2762559519_gshared
ila:__ZL63__ManagedRegistrationHelperFunction_ScriptableCullingParametersPv
n2g:_Convert_ToUInt64_m92315402
TNc:__Z18Transfer_BlittableI9JSONWriteLb1EdEvRK29SerializationCommandArgumentsR31RuntimeSerializationCommandInfo
Wwk:_glGetIntegerv__wrapper
gjh:_EncoderExceptionFallback__ctor_m3745979420
H:Math_pow
xGf:_InternalEnumerator_1_System_Collections_IEnumerator_get_Current_m435848551_gshared
rta:__ZN10GameObject28FinalizeAddComponentInternalEPN5Unity9ComponentE
jBe:__ZL57Image_t2670269651_CustomAttributesCacheGenerator_m_SpriteP21CustomAttributesCache
OSa:__ZN9Texture2DD2Ev
knj:_AudioExtensionManager_GetReadyToPlay_m1557263244
w1g:_Convert_ToSingle_m164367433
QKi:_Array_InternalArray__get_Item_TisILTokenInfo_t2325775114_m3110830457_gshared
v$g:_Convert_ToDecimal_m1284410333
n4g:_DateTime_CheckStyle_m1392838900
Jmg:_SmallXmlParser_ReadUntil_m2715581630
Eag:_NameObjectCollectionBase__ctor_m2090733912
Gig:_Group__cctor_m2230627219
lna:__ZN9Scripting11UnityEngine15SendMouseEvents9InitProxyEv
dah:_Array_InternalArray__ICollection_Contains_TisDouble_t594665363_m1696010878_gshared
Tof:_BigInteger__cctor_m102257529
Msf:_RSAManaged_EncryptValue_m4149543654
Eda:__ZN27IntermediateRendererManagerD2Ev
V7a:__ZN17PersistentManager27GetLoadErrorMessageFromPathERKN4core12basic_stringIcNS0_20StringStorageDefaultIcEEEE
V4i:_NetscapeCertTypeExtension_ToString_m1800688476
dm:_glGenRenderbuffers
B$j:__ZN6il2cpp6icalls8mscorlib6System2IO6MonoIO19GetCurrentDirectoryEPi
u3b:__Z21IntersectSegmentPlaneRK8Vector3fS1_RK5PlanePS_
nra:__ZN9Scripting11UnityEngine24AssemblyIsEditorAssembly9InitProxyEv
vFe:__ZL50Outline_t2536100125_CustomAttributesCacheGeneratorP21CustomAttributesCache
CBe:__ZL75InputField_t3762917431_CustomAttributesCacheGenerator_m_CharacterValidationP21CustomAttributesCache
Jej:_Uri_get_IsFile_m2450018824
$ba:__ZN14CachingManager7DisposeEv
hqa:__ZN9Scripting11UnityEngine8EnumInfo9InitProxyEv
dR:__ZN12AudioManager31GetCurrentSpatializerDefinitionEv
bag:_HybridDictionary_Add_m912320053
W$e:_MonoBehaviour_Invoke_m4227543964
L_a:__ZN12MeshRenderer16UpdateCachedMeshEv
dij:_KeyBuilder_IV_m3340234014
Mqb:__Z19TransferField_ArrayI14SafeBinaryRead27Converter_SimpleNativeClassI8GradientEEvRK23StaticTransferFieldInfoR31RuntimeSerializationCommandInfoRT0_
Nzh:_DefaultComparer_Equals_m1163494476_gshared
Zah:_Array_InternalArray__ICollection_Remove_TisDictionaryEntry_t3123975638_m3699186409_gshared
N2f:_Object_Equals_m1397037629
lB:__ZNK27StateMachineBehaviourPlayer25FireStateMachineBehaviourEiiN7mecanim12statemachine19StateMachineMessageE
WSe:_AsyncOperation_t1445031843_marshal_pinvoke_back
Ck:_emscripten_glGenVertexArrays
_3e:_Rect_get_center_m138276653
w8b:__ZN6Camera15SetOrthographicEb
I1c:_UNITY_FT_Stream_GetUShort
xLb:__ZN13GfxDeviceGLES14DisableScissorEv
FYc:__ZNSt3__26vectorIN20TextRenderingPrivate8FontImpl7IntRectE13stl_allocatorIS3_L18MemLabelIdentifier35ELi16EEE21__push_back_slow_pathIRKS3_EEvOT_
ETe:_Bounds_get_size_m1178783246_AdjustorThunk
Chi:__Z64RuntimeInvoker_Double_t594665363_RuntimeObject_Int32_t2950945753PFvvEPK10MethodInfoPvPS4_
VDf:_InternalEnumerator_1_System_Collections_IEnumerator_get_Current_m2141782011_AdjustorThunk
r6g:_Decimal_decimalMult_m3812462972
Nyf:_RecordProtocol_BeginSendRecord_m615249746
zc:_glVertexAttrib4f
XJh:_Enumerator_System_Collections_IEnumerator_get_Current_m209407522_AdjustorThunk
wWe:_Display_get_systemHeight_m730809466
lMi:_List_1_System_Collections_IList_Insert_m4074493513_gshared
q$e:_Mesh_get_vertices_m3585684815
nhd:__ZN21UnityAnalyticsManagerD0Ev
Fej:_Uri_GetOpaqueWiseSchemeDelimiter_m1909471550
cgk:_GC_set_hdr_marks
gDa:__Z17SetupObjectMatrixRK10Matrix4x4fi
Gxh:_Dictionary_2_OnDeserialization_m1254782141_gshared
Y2:__ZN13RuntimeStaticINSt3__23mapINS0_4pairIPcS3_EEPFbPvR14SafeBinaryReadE20smaller_tstring_pairIPKcENS0_9allocatorINS2_IKS4_S9_EEEEEELb0EE13StaticDestroyES5_
eKg:_FileStream_FlushBufferIfDirty_m4249802951
FNf:_DefaultComparer_Compare_m1916473435_gshared
tw:__ZN7mecanim9animation16CreateClipMemoryEPKNS0_4ClipEiRNS_6memory9AllocatorE
mZc:_open_face
H4a:__ZN30RuntimeInitializeOnLoadManager15ClassMethodInfo8TransferI19StreamedBinaryWriteILb0EEEEvRT_
Vwc:__ZZL31RegisterOtherRendererPropertiesR22GenericPropertyBindingEN30Wrapper_RendererReceiveShadows13SetFloatValueEPvf
_fd:__ZN2UI13PrepareOutputER9GfxDeviceRNS_7BatchesEjjNS_30AdditionalCanvasShaderChannelsE
Mgd:__Z17RegisterModule_UIv
S_f:_MonoCustomAttrs_GetCustomAttributes_m1347331976
P$e:_Mesh_Clear_m2630385472
Hdi:__Z46RuntimeInvoker_RuntimeObject_Int16_t2552820387PFvvEPK10MethodInfoPvPS4_
wTd:_SynchronizationAttribute_set_Locked_m2760363037
AFg:_Int16_Equals_m82811458
idf:_Selectable_EvaluateAndTransitionToSelectionState_m3735354430
osf:_PrivateKeyInfo_Decode_m986145117
a5e:_RectOffset_get_top_m2855347295
EN:__ZN4FMOD5Sound11setUserDataEPv
oec:__ZN14SafeBinaryRead21TransferSTLStyleArrayINSt3__26vectorIN9ShaderLab19SerializedSubShaderENS1_9allocatorIS4_EEEEEEvRT_17TransferMetaFlags
Jud:_ExecuteEvents_Execute_m533210008
Vgi:__Z137RuntimeInvoker_Void_t1185182177_Int32_t2950945753_RuntimeObject_RuntimeObject_RuntimeObject_RuntimeObject_RuntimeObject_SByte_t1669577662PFvvEPK10MethodInfoPvPS4_
REg:_Guid_op_Equality_m4289903222
fz:__ZN27AnimationLayerMixerPlayable13SetInputCountEi
Gfb:__ZNK25SingleBlockMemoryFileData4SizeEv
n_g:_DateTime__ParseAmPm_m3478436123
_ld:__ZN11UnityEngine7Connect20RemoteConfigSettings19ConfigChangedStaticEPS1_RKN4core12basic_stringIcNS3_20StringStorageDefaultIcEEEER8JSONReadb
NO:__ZL50UnityAudioEffect_InternalSetFloatParameterCallbackP14FMOD_DSP_STATEif
s6j:__ZNK15dense_hashtableINSt3__24pairIK10KeyWrapperIP12Il2CppObjectEN6il2cpp2gc9CachedCCWEEES5_NS7_5utils11PointerHashIS3_EEN14dense_hash_mapIS5_S9_SD_NS5_14EqualsComparerINS0_8equal_toIS4_EEEENS0_9allocatorISA_EEE9SelectKeyESI_SK_E3endEv
A3g:_DateTime_System_IConvertible_ToUInt32_m3781235049
R1:__ZN17LowLevelAllocator4FreeEPvj
uEi:__Z77RuntimeInvoker_RuntimeObject_UIVertex_t4057497605_RuntimeObject_RuntimeObjectPFvvEPK10MethodInfoPvPS4_
Udi:__Z92RuntimeInvoker_Int32_t2950945753_RuntimeObject_RuntimeObject_SByte_t1669577662_RuntimeObjectPFvvEPK10MethodInfoPvPS4_
wHg:_Int64_System_IConvertible_ToType_m3223988955
J4b:__ZN14qsort_internal5QSortIP16RenderObjectDatai25RenderPrePassObjectSorterEEvT_S4_T0_T1_
FPg:_SymmetricAlgorithm_Dispose_m1120980942
Iba:__ZL19StaticCleanupPlayerPv
T_f:_MonoCustomAttrs_RetrieveAttributeUsage_m2717094301
Lzc:__ZN13PlayableGraph4StopEv
mSe:_AnimationCurve_Init_m425927913
MP:__ZN12AudioManager37RebindAudioSourcesAndSubMixersToMixerEP10AudioMixer
ksa:__ZN9Behaviour10DeactivateE19DeactivateOperation
xff:_LayoutGroup_DelayedSetDirty_m2562435574
RPa:__ZN13StreamingInfo8TransferI14SafeBinaryReadEEvRT_
Nec:__ZN15dense_hashtableINSt3__24pairIKiN4core17string_with_labelILi1EEEEEi18SInt32HashFunctionN14dense_hash_mapIiS5_S7_NS0_8equal_toIiEE13stl_allocatorIS6_L18MemLabelIdentifier1ELi16EEE9SelectKeyESA_SD_E15insert_noresizeERKS6_
G7j:__ZN6il2cpp2vmL22RaiseOverflowExceptionEv
Qp:__Z23CalculateGlobalRotation23TransformAccessReadOnly
nFa:__ZN16GraphicsSettings28SetLightsUseColorTemperatureEb
aMa:__ZNK9ShaderLab7Program11IsSupportedEPK6Shader
JId:_TypeBuilder_GetMethodImpl_m3583143647
zEe:__ZL54LayoutGroup_t2436138090_CustomAttributesCacheGeneratorP21CustomAttributesCache
_ok:_strcat
aBc:__Z18TransformPoints3x4RK10Matrix4x4fPK8Vector3fjPS2_ji
Paa:__ZL26DestroyGameObjectRecursiveR10GameObjectR11BatchDelete
tgk:_GC_allochblk_nth
Fsd:_BaseInput_get_touchSupported_m2634027966
Hlf:_ScrollRect_get_vScrollingNeeded_m1717136831
uij:_SymmetricTransform_FinalEncrypt_m748885414
Zvc:__Z7HaloTexP9Texture2DPhiiii
Ftk:dynCall_i
Slk:__ZNK6il2cpp8metadata23Il2CppGenericMethodHashclEPK19Il2CppGenericMethod
VV:__ZN17AudioCustomFilter4InitEv
Usk:dynCall_f
tag:_ListDictionary_GetEnumerator_m3395631195
_ub:__Z35Transfer_Blittable_FixedBufferFieldI24GenerateTypeTreeTransferjEvRK29SerializationCommandArgumentsR31RuntimeSerializationCommandInfo
wIa:__ZN8Playable13SetInputCountEi
QIj:__ZNK15dense_hashtableINSt3__24pairIK10KeyWrapperIP9FieldInfoEiEES5_N6il2cpp5utils11PointerHashIS3_EEN14dense_hash_mapIS5_iSB_NS5_14EqualsComparerINS0_8equal_toIS4_EEEENS0_9allocatorIS7_EEE9SelectKeyESG_SI_E13find_positionERS6_
jsk:dynCall_v
Jka:__ZL52__ManagedRegistrationHelperFunction_DiagnosticSwitchPv
DRb:__ZN7ApiGLES14TextureSamplerEjjRK24GfxTextureSamplingParams17TextureColorSpace
RXg:_SortedList_System_Collections_IEnumerable_GetEnumerator_m2738760439
DYj:__ZN6il2cpp2vm6Thread8SetStateEP12Il2CppThreadNS0_11ThreadStateE
Aya:__ZN6Camera23VirtualRedirectTransferER14SafeBinaryRead
CSe:_Application_get_isEditor_m857789090
Mld:__ZN11UnityEngine7Connect13ConnectConfig11ConfigValueD2Ev
eSb:__ZNSt3__26__treeINS_12__value_typeIjP14DataBufferGLESEENS_19__map_value_compareIjS4_NS_4lessIjEELb1EEENS_9allocatorIS4_EEE7destroyEPNS_11__tree_nodeIS4_PvEE
una:__ZN9Scripting11UnityEngine9Rendering20SphericalHarmonicsL212CleanupProxyEv
Szc:__ZN13PlayableGraph15SetPrepareStageE13DirectorStage
vb:invoke_viiiiiiii
bFg:_Int16_System_IConvertible_ToDateTime_m3080274979_AdjustorThunk
XYi:_Collection_1_ConvertItem_m1760499239_gshared
iSb:__ZN18GfxFramebufferGLES24UpdateDefaultFramebufferEP17RenderSurfaceBaseS1_N2gl6HandleILNS2_10ObjectTypeE9EEE
lve:__ZL66GUIUtility_t1868551600_CustomAttributesCacheGenerator_s_OriginalIDP21CustomAttributesCache
Hs:__ZL67__ManagedRegistrationHelperFunction_SharedBetweenAnimatorsAttributePv
Rxa:__ZNK6Camera16GetCullingMatrixEv
O1i:_SslHandshakeHash__ctor_m4169387017
qGj:__ZN15dense_hashtableINSt3__24pairIK10KeyWrapperIN6il2cpp5utils13dynamic_arrayIPK10Il2CppTypeLj4EEEEPFvvEEESA_NS3_8metadata19Il2CppSignatureHashEN14dense_hash_mapISA_SD_SG_NSA_14EqualsComparerINSF_22Il2CppSignatureCompareEEENS0_9allocatorISE_EEE9SelectKeyESK_SM_E9copy_fromERKSP_j
pxj:_Animator_ResetTrigger_m2321267720
HVa:__ZN16LightmapSettings5ResetEv
hUa:__ZN12FileAccessor4ReadEyPvPy
V0e:__ZN23InterfaceActionInvoker3I6Guid_tP22ByteU5BU5D_t4116647657iE6InvokeEjP11Il2CppClassP12Il2CppObjectS0_S2_i
Kdi:__Z67RuntimeInvoker_Void_t1185182177_Int16_t2552820387_Int32_t2950945753PFvvEPK10MethodInfoPvPS4_
IIc:__Z42Register_UnityEngine_Event_get_commandNamev
NWb:__Z12IsFirstFramev
uUh:_Collection_1_IsValidItem_m714924194_gshared
FLc:__ZN5Unity9rapidjson12PrettyWriterI16TempBufferWriterNS0_4UTF8IcEES4_13JSONAllocatorE12PrettyPrefixENS0_4TypeE
dH:__ZNK26AnimatorOverrideController27GetAnimationClipsToRegisterEv
y7:__ZN8TypeTreeC2E10MemLabelId
vaa:__ZNK15FileSystemEntry6ExistsEv
M0a:__ZNK9Transform21GetLocalToWorldMatrixER10Matrix4x4f
C8e:_Transform_INTERNAL_get_rotation_m2413441996
Iid:__GLOBAL__sub_I_artifacts_WebGL_codegenerator_0_cpp_6810
Gxd:_TouchInputModule_IsModuleSupported_m384818291
B6:__ZN17PersistentManager18ReadObjectThreadedEiNS_9LockFlagsE
q4g:_DateTime_ToString_m884486936
Crf:_MD4Managed_HashCore_m3384203071
bT:__ZN13AudioListener23VirtualRedirectTransferER19StreamedBinaryWriteILb0EE
tvf:_ClientRecordProtocol_createClientHandshakeMessage_m3325677558
che:__ZL103Component_t1923634451_CustomAttributesCacheGenerator_Component_GetComponentsForListInternal_m1419905927P21CustomAttributesCache
pMb:__ZN13GfxDeviceGLES11CopyTextureE9TextureIDS0_
dYg:_SortedList_get_Capacity_m919184864
qzh:_Dictionary_2_ContainsKey_m2278349286_gshared
ewk:_emscripten_glViewport__wrapper
g_:__ZN11UnityEngine15CloudWebService23WebRequestUploadHandler13GetUploadDataERj
iVe:_Color32_ToString_m403383053_AdjustorThunk
bNg:_RIPEMD160Managed_GG_m3020389474
x6a:__ZN13dynamic_arrayI28EnlightenRendererInformationLj0EE6insertEPS0_PKS0_S4_
vvj:_Canvas_get_sortingOrder_m1860900812
MRd:_ConfigHandler_ReadChannel_m781299361
e4e:_Rect_get_max_m350137314
K5b:__Z59ProcessShadowCasterNodeVisibilityAndCullWithoutUmbra_KernelILN17CullingParameters9LayerCullE1ELi8EEvR9IndexListRK22SceneCullingParametersPK9SceneNodePK4AABBjjPKN4math7_float4E
opi:__Z99RuntimeInvoker_Void_t1185182177_Int32_t2950945753_Int32_t2950945753_SByte_t1669577662_RuntimeObjectPFvvEPK10MethodInfoPvPS4_
c6c:_tt_size_select
OTd:_InternalRemotingServices_GetCachedSoapAttribute_m1042302982
vY:__ZN11UnityEngine15CloudWebService17SessionEventQueue15RestoreFromFileER12FileAccessorPvy
Y5f:_ConstructorBuilder_GetILGenerator_m1421260830
_1a:__ZN14PlayerSettingsD2Ev
ihf:_RectMask2D_RemoveClippable_m773604960
beg:_AsnEncodedData_SubjectAltName_m4049949414
a1g:_Convert_ToSByte_m1350241137
U$a:__ZN13dynamic_arrayI16BlendShapeVertexLj0EE18resize_initializedEj12ResizePolicy
uea:__ZN13PlayableGraph14DestroyOutputsEv
_Xi:_Enumerator_System_Collections_IEnumerator_get_Current_m3895111131_gshared
jf:___syscall122
D$g:_Convert_ToDecimal_m2858622624
X2f:_OperatingSystem__ctor_m1545635730
tRi:_List_1_RemoveAll_m2406195485_gshared
aW:__ZN9AudioClip16EnableLegacyModeEv
WSd:_Context_DoCallBack_m749197451
$vj:_CanvasRenderer_set_materialCount_m4286588063
Hok:_mkdir
EVc:__ZN9Scripting11UnityEngine7Physics12CleanupProxyEv
amj:_VerticalLayoutGroup_SetLayoutHorizontal_m84550911
ccg:_HttpWebRequest_get_ServicePoint_m3916606901
bjk:__GLOBAL__sub_I_MemoryMappedFile_cpp
rJh:_Enumerator_MoveNext_m29052175_AdjustorThunk
Umf:_Slider_UpdateVisuals_m3662961057
CCc:__ZN18ScriptingArguments13CopyFromOtherERKS_
Nkg:_PKCS12_ReadSafeBag_m1585166574
i8c:_ps_hints_close
zxc:__Z16CreateRenderLoopR6Camera
zFb:__ZN32SerializationCommandQueueBuilder3AddERK20SerializationCommand
$1:_tlsf_create
U0h:_ReadOnlyCollection_1_System_Collections_IEnumerable_GetEnumerator_m2505713430_gshared
X4a:__ZN14SafeBinaryRead21TransferSTLStyleArrayINSt3__26vectorIN15ResourceManager10DependencyE13stl_allocatorIS4_L18MemLabelIdentifier52ELi16EEEEEEvRT_17TransferMetaFlags
IEb:__ZN13MonoBehaviour23VirtualRedirectTransferER18StreamedBinaryReadILb0EE
hgc:__ZN9ShaderLab20SerializedSubProgramC2ERKS0_
CZa:__ZN9Texture3D17UploadToGfxDeviceEv
xKi:_Array_InternalArray__get_Item_TisKeyValuePair_2_t71524366_m252172060_gshared
Iqk:__ZNK10__cxxabiv121__vmi_class_type_info27has_unambiguous_public_baseEPNS_19__dynamic_cast_infoEPvi
F0f:_MulticastDelegate_CombineImpl_m2857239134
Yvh:_Version_op_Inequality_m1696193441
WPd:_Marshal_ReadByte_m1960935664
xTa:__ZN15QualitySettings23VirtualRedirectTransferER19StreamedBinaryWriteILb0EE
ovg:_ArrayListWrapper_CopyTo_m3756520478
EOd:_ResourceInfo_t2872965302_marshal_pinvoke
pAa:__ZN16RenderTextureMap5QueryEPK17RenderSurfaceBase
Guc:__ZN8Material12CleanupClassEv
gxc:__ZN8Material8GetFloatEN9ShaderLab16FastPropertyNameE
$Qe:_HashAlgorithm_TransformBlock_m4006041779
NIc:__Z11GetGUIStatev
jg:_glGetActiveUniform
$eh:_Array_InternalArray__IndexOf_TisSlot_t3975888750_m4250446283_gshared
MEc:__Z57Register_UnityEngine_MonoBehaviour_StartCoroutineManaged2v
YU:__Z13RegisterClassI9AudioClipEvPKc
gIg:_IntPtr__ctor_m620280096_AdjustorThunk
qg:_emscripten_glGetObjectParameterivARB
Vcj:_CharacterClass_AddCharacter_m2370152363
Oya:__ZN15SerializeTraitsI10ColorRGBAfE8TransferI14SafeBinaryReadEEvRS0_RT_
rXh:_Collection_1_IsValidItem_m2333176545_gshared
Kba:__ZN22BuiltinResourceManager13StaticDestroyEPv
gna:__ZN9Scripting11UnityEngine25SerializePrivateVariables12CleanupProxyEv
Faa:__ZN10GameObject17GetComponentIndexEPN5Unity9ComponentE
XFi:_Array_InternalArray__set_Item_TisILTokenInfo_t2325775114_m309595583_gshared
zO:__ZN29AudioEffectInternalDefinition9CreateDSPEPN4FMOD6SystemEPvPfP23UnityAudioAmbisonicDataPP25UnityAudioSpatializerData
Q7c:_UNITY_tt_face_vary_cvt
lNh:_SimpleCollator_ClearBuffer_m2975394169
pfj:_Event_Internal_GetMousePosition_m1101229675
wac:__ZN35RegisterRuntimeInitializeAndCleanup22ExecuteInitializationsEv
rQg:_TripleDESCryptoServiceProvider_CreateEncryptor_m450924958
oej:_UriParser_GetParser_m544052729
Cdf:_Text_get_font_m2857203289
rK:__ZN23PreloadManagerOperation14SetFinalTimingEffff
zz:__ZN7mecanim13ValueArrayAddILb0EEEvPKNS_10ValueArrayES3_PKNS_14ValueArrayMaskEfbPS1_PS4_
c9f:_MethodBuilder_fixup_m1765890582
hMe:_ObjectReader_ReadSimpleArray_m428957657
D3a:__ZN13BuildSettings8TransferI18StreamedBinaryReadILb0EEEEvRT_
y_f:_MissingFieldException__ctor_m4282575076
l6g:_Decimal_Equals_m2592017260
hSd:_ConfigHandler_OnEndParsing_m3764034673
lKe:_RemotingConfiguration_RegisterTypes_m2378540395
_Gc:__Z38Renderer_Get_Custom_PropSortingLayerIDP12Il2CppObject
oug:_ArrayList_get_Capacity_m431818936
fIf:_InternalEnumerator_1_System_Collections_IEnumerator_get_Current_m767948013_gshared
ySe:_UnityAction_Invoke_m893829196
Cba:__ZNK11TypeManager23FindAllRTTIDerivedTypesEPK4RTTIR13dynamic_arrayIS2_Lj0EEb
Ds:__ZL58__ManagedRegistrationHelperFunction_AnimatorTransitionInfoPv
c3a:__ZN14AsyncOperationD0Ev
lPb:__Z29TextureIdMapGLES_QueryOrAlloc9TextureID
$Qj:__ZN15dense_hashtableINSt3__24pairIK10KeyWrapperINS1_IPK12PropertyInfoP11Il2CppClassEEEjEES9_17ReflectionMapHashIS8_EN14dense_hash_mapIS9_jSD_NS9_14EqualsComparerINS0_8equal_toIS8_EEEENS0_9allocatorISB_EEE9SelectKeyESI_SK_E12resize_deltaEjj
PUe:_Color_GetHashCode_m1829208463
EHb:__ZN13ScreenManager18SetAllowCursorLockEb25DisallowCursorLockReasons
ACc:__Z25scripting_raise_exception21ScriptingExceptionPtr
ief:_Text_get_cachedTextGeneratorForLayout_m116487342
Fyj:__ZL11decimalLog2P19il2cpp_decimal_repr
c5a:__ZN15ResourceManager10Dependency8TransferI14SafeBinaryReadEEvRT_
l1i:_Collection_1_System_Collections_IList_Remove_m3800279569_gshared
Lek:_GC_extend_size_map
k8f:_GenericTypeParameterBuilder_GetCustomAttributes_m386082976
Ynf:_Text_FontTextureChanged_m495427969
J1f:_NumberFormatter_RoundDecimal_m2957290908
bP:__ZN4FMOD6System9setDriverEi
c7b:__ZNK9Transform11GetRotationEv
lxk:_emscripten_glGetIntegerv__wrapper
Ngh:_Array_InternalArray__ICollection_Add_TisSingle_t1397266774_m1873979703_gshared
$ub:__Z18Transfer_BlittableI24GenerateTypeTreeTransferLb0EyEvRK29SerializationCommandArgumentsR31RuntimeSerializationCommandInfo
dMa:__ZN8Material14CreateMaterialER6ShaderN6Object9HideFlagsEb
Pph:_TimeSpan_get_Minutes_m4278980001_AdjustorThunk
zvj:_Canvas_set_sortingLayerID_m861680532
Gfj:_GUI__cctor_m3051457990
kT:__ZN12AudioManager19RemoveAudioListenerEP13AudioListener
vCa:__Z25GetBuiltinResourceManagerv
R5j:__ZN6il2cpp2gc8GCHandle15GetTargetHandleEP12Il2CppObjectii
eGg:_Int32_System_IConvertible_ToByte_m3832391412
Ih:_llvm_trap
c5:__ZNSt3__27__sort5IRNS_6__lessIN12_GLOBAL__N_114ParamNameIndexES3_EEPS3_EEjT0_S7_S7_S7_S7_T_
u6i:_X509Certificate_VerifySignature_m3988463526
oxf:_TlsClientCertificate_get_ClientCertificate_m1637836254
gfk:_get_index
ew:__ZN21AnimationClipPlayable29CollectAnimationClipPlayablesER13dynamic_arrayIPS_Lj0EE
ts:__ZL54__ManagedRegistrationHelperFunction_PositionConstraintPv
YQh:_KeyBuilder_Key_m876696100
xza:__Z26scripting_method_get_class18ScriptingMethodPtr
bOj:__ZN15dense_hashtableINSt3__24pairIK10KeyWrapperINS1_IPK14Il2CppAssemblyP11Il2CppClassEEEjEES9_17ReflectionMapHashIS8_EN14dense_hash_mapIS9_jSD_NS9_14EqualsComparerINS0_8equal_toIS8_EEEENS0_9allocatorISB_EEE9SelectKeyESI_SK_EC2ERKSN_j
vrd:__ZL65__ManagedRegistrationHelperFunction_Internal_SubsystemDescriptorsPv
wKj:__ZN6il2cpp2vm21ThreadPoolCompartment12DetachThreadEP12Il2CppThread
wOe:_SByte_System_IConvertible_ToInt16_m885121451_AdjustorThunk
i$g:_Decimal_stripStyles_m1823381019
$Lb:__ZN13GfxDeviceGLES30SetBackBufferColorDepthSurfaceEP17RenderSurfaceBaseS1_
Jne:__ZL63TexturePlayableOutput_t648497447_CustomAttributesCacheGeneratorP21CustomAttributesCache
mKc:__Z52Register_UnityEngine_GUIUtility_get_systemCopyBufferv
eKi:_LayoutGroup_SetProperty_TisBoolean_t97287965_m3903959758_gshared
eAc:__ZN16StreamedResource8TransferI18StreamedBinaryReadILb0EEEEvRT_
Krc:__Z49Register_UnityEngine_Input_get_imeCompositionModev
a7e:_Sprite_INTERNAL_get_rect_m1600380876
Mec:__ZN15dense_hashtableINSt3__24pairIKiN4core17string_with_labelILi1EEEEEi18SInt32HashFunctionN14dense_hash_mapIiS5_S7_NS0_8equal_toIiEE13stl_allocatorIS6_L18MemLabelIdentifier1ELi16EEE9SelectKeyESA_SD_E12resize_deltaEjj
TAk:_emscripten_glDisableVertexAttribArray__wrapper
P2f:_Object_InternalGetHashCode_m4213713973
Gwa:__ZN14SafeBinaryRead21TransferSTLStyleArrayI13dynamic_arrayINSt3__24pairIi12ImmediatePtrIN5Unity9ComponentEEEELj0EEEEvRT_17TransferMetaFlags
Ipa:__ZN9Scripting11UnityEngine12Experimental10PlayerLoop14Initialization12CleanupProxyEv
F$f:_MonoType_GetAttributeFlagsImpl_m167182975
ftf:_EncryptedData_get_EncryptedContent_m3205649670
N_a:__ZN12MeshRenderer18CalculateLocalAABBER4AABBRKS_RK4Mesh
qdc:__ZN21UnityDefaultAllocatorI17LowLevelAllocatorE8AllocateEji
U7c:_tt_hadvance_adjust
Dz:__ZN7mecanim5human14HumanPoseClearERNS0_9HumanPoseERKNS_6bitsetILj83EEE
Fcd:__ZL28InitializeUIScriptingClassesv
Hri:__Z54RuntimeInvoker_Vector2_t2156229523_Vector3_t3722313464PFvvEPK10MethodInfoPvPS4_
D0h:_ReadOnlyCollection_1_System_Collections_IList_set_Item_m2162444692_gshared
bcb:__ZN12HandlerChain10AtomicMoveER13FileEntryDataS1_
Tlb:__ZN9GfxDevice17HasGPUFencePassedEPv
dea:__ZZN15DirectorManager15InitializeClassEvEN48PreLateUpdateDirectorDeferredEvaluateRegistrator7ForwardEv
gWc:__ZN20SpeedTreeWindManager6UpdateEf
yii:__Z68RuntimeInvoker_Int64_t3736567304_IntPtr_t_MonoIOErrorU26_t1548853198PFvvEPK10MethodInfoPvPS4_
ju:__ZN7mecanim9animation20CreateAvatarConstantEPNS_8skeleton8SkeletonEPNS1_13SkeletonPoseTIN4math4trsXEEES8_PNS_5human5HumanES3_iRKS6_RNS_6memory9AllocatorE
mrd:__Z20RegisterModule_WebGLv
Gjc:__ZN12ShaderErrors11ShaderErrorC2ERKN4core12basic_stringIcNS1_20StringStorageDefaultIcEEEES7_S7_iibb
o0a:__ZN14CompressedMesh8TransferI19StreamedBinaryWriteILb0EEEEvRT_
IEi:_Array_InternalArray__Insert_TisDouble_t594665363_m675699942_gshared
m9a:__ZN13dynamic_arrayI15ComputeShaderCBLj0EE6assignEPKS0_S3_
DTi:_List_1_System_Collections_IList_Add_m3014885234_gshared
W8h:_UnityAction_1_Invoke_m3535252839_gshared
smf:_Selectable_set_isPointerInside_m701571657
T9i:_PatternCompiler_EmitNotCategory_m2023580103
SFa:__ZN24GenerateTypeTreeTransfer8TransferI21PlatformShaderDefinesEEvRT_PKc17TransferMetaFlags
O4a:__ZNK15ResourceManager22GetTypeVirtualInternalEv
_2j:__ZN6il2cpp2vmL36AddNestedTypesToNametoClassHashTableEPK11Il2CppImagePK20Il2CppTypeDefinition
lVi:_List_1_set_Capacity_m2707586410_gshared
Z0e:_PlayerConnection_MessageCallbackInternal_m1914517467
eTe:_AttributeHelperEngine__cctor_m1900959362
gXc:__ZN13TextRendering4Font23VirtualRedirectTransferER24GenerateTypeTreeTransfer
O5b:__Z59ProcessShadowCasterNodeVisibilityAndCullWithoutUmbra_KernelILN17CullingParameters9LayerCullE2ELi12EEvR9IndexListRK22SceneCullingParametersPK9SceneNodePK4AABBjjPKN4math7_float4E
feg:_X509SubjectKeyIdentifierExtension_ToString_m12089275
fvi:__Z106RuntimeInvoker_RuntimeObject_RuntimeObject_Int32_t2950945753_Int16_t2552820387_RuntimeObject_RuntimeObjectPFvvEPK10MethodInfoPvPS4_
lvh:_UnhandledExceptionEventArgs__ctor_m224348470
ewj:_CanvasRenderer_SetPopMaterial_m2720611463
Seh:_Array_InternalArray__IndexOf_TisByte_t1134296376_m929524687_gshared
bV:__ZN11AudioSource15InitializeClassEv
Pud:_ExecuteEvents_get_dragHandler_m3849431675
U$b:__ZN11HaloManager17RenderGeometryJobEP25DynamicVBOGeometryJobDataj
y1e:_Object_DestroyImmediate_m2288369078
L8g:_Enum_System_IConvertible_ToDateTime_m3823814707
bJ:__ZNSt3__227__insertion_sort_incompleteIRPFbN7mecanim9animation13MuscleIndexIdES3_EPS3_EEbT0_S8_T_
dBk:_emscripten_glBlendEquation__wrapper
IZj:__ZN15dense_hashtableINSt3__24pairIK10KeyWrapperIP11Il2CppClassES4_EES5_N6il2cpp8metadata16SZArrayClassHashEN14dense_hash_mapIS5_S4_SA_NS5_14EqualsComparerINS9_19SZArrayClassCompareEEENS0_9allocatorIS7_EEE9SelectKeyESE_SG_E13set_empty_keyERKS7_
Bpk:__ZNSt3__212basic_stringIcNS_11char_traitsIcEENS_9allocatorIcEEE6__initEPKcj
Oj:_emscripten_set_fullscreenchange_callback
KHd:_PropertyBuilder_IsDefined_m406627924
j3h:_ReadOnlyCollection_1_System_Collections_IList_Insert_m4085855595_gshared
paj:_PatternCompiler_NewLink_m3699449496
L$:__ZN11UnityEngine15CloudWebService14DataDispatcher22ResetNetworkRetryIndexEv
Tj:_emscripten_glDrawArrays
k_e:_Material_HasProperty_m2704238996
DVb:__ZZ23InitPlayerLoopCallbacksvEN43EarlyUpdateExecuteMainThreadJobsRegistrator7ForwardEv
o$:__ZN11UnityEngine15CloudWebService19SessionEventManagerC2Ev
ptg:_Char_System_IConvertible_ToSingle_m2690985411_AdjustorThunk
Yj:_clock_getres
C4h:_Comparison_1_Invoke_m668117148_gshared
jag:_DictionaryNodeEnumerator_FailFast_m2494733641
Jzc:__ZN15DirectorManager22ConstructPlayableGraphEPKc
Mqd:__ZN13RuntimeStaticI14dynamic_bitsetLb0EE16StaticInitializeEPv
kMi:_List_1_System_Collections_IList_IndexOf_m581320577_gshared
Yga:__ZNSt3__222__merge_move_constructIRNS_4lessIN4core12basic_stringIcNS2_20StringStorageDefaultIcEEEEEENS_11__wrap_iterIPS6_EESB_EEvT0_SC_T1_SD_PNS_15iterator_traitsISC_E10value_typeET_
oFc:__Z41Register_UnityEngine_Camera_get_eventMaskv
AW:__ZL19CleanupModule_Audiov
N8i:_IntervalCollection_CopyTo_m2976848759
yzd:_CanvasUpdateRegistry_ObjectValidForUpdate_m2723813849
Rmb:__ZN18GlslGpuProgramGLES25LoadFromBinaryShaderCacheERjRKN4core12basic_stringIcNS1_20StringStorageDefaultIcEEEER17ShaderChannelMaskPKc
Mha:__ZN6prcoreL17RemapGenericFloatI18TexFormatARGBFloat14TexFormatRHalfEEvPKNS_9InnerInfoE
uRi:_List_1_RemoveAt_m1433290785_gshared
uki:__Z81RuntimeInvoker_Void_t1185182177_Int64_t3736567304_RuntimeObject_Int32_t2950945753PFvvEPK10MethodInfoPvPS4_
dsb:__Z29Transfer_Blittable_ArrayFieldI14SafeBinaryReadiEvRT_R9ArrayInfoRK23StaticTransferFieldInfo
FLj:__ZN6il2cpp6icalls8mscorlib6System8MonoType8GetFieldEP20Il2CppReflectionTypeP12Il2CppStringi
rGj:__ZN15dense_hashtableINSt3__24pairIK10KeyWrapperIN6il2cpp5utils13dynamic_arrayIPK10Il2CppTypeLj4EEEEPFvvEEESA_NS3_8metadata19Il2CppSignatureHashEN14dense_hash_mapISA_SD_SG_NSA_14EqualsComparerINSF_22Il2CppSignatureCompareEEENS0_9allocatorISE_EEE9SelectKeyESK_SM_E5clearEv
OOg:_SHA256Managed_ProcessBlock_m2297835517
Axk:_emscripten_glVertexAttrib3fv__wrapper
jZg:_Convert_ToBoolean_m4098720762
d3h:_ReadOnlyCollection_1_System_Collections_ICollection_CopyTo_m511916545_gshared
Ibh:_Array_InternalArray__ICollection_Remove_TisOrderBlock_t1585977831_m1449044465_gshared
PC:__ZL25SetAdditionalCurvesValuesRN7mecanim10ValueArrayERKN11UnityEngine9Animation20AnimationSetBindingsERKNS_18ValueArrayConstantES9_RKS0_
ztj:_DisplayBuffer_OnCommand_m444302511
a4f:_AssemblyName__ctor_m1753467291
$mf:_Slider_set_minValue_m3431883418
eCc:__ZN8Material10GetTextureEN9ShaderLab16FastPropertyNameE
cWf:_Enumerator_System_Collections_IEnumerator_get_Current_m1657817602_gshared
RXa:__ZN18StreamedBinaryReadILb0EE21TransferSTLStyleArrayI13dynamic_arrayI10Matrix4x4fLj16EEEEvRT_17TransferMetaFlags
Quc:__ZNK28MonoBehaviourPropertyBinding13GetFloatValueERKN11UnityEngine9Animation10BoundCurveE
kYb:__ZL20BlitToStagingTextureP7TextureiS0_i
Ygk:_GC_generic_malloc
ydg:_WebHeaderCollection_get_Keys_m910440889
cMb:__ZN13GfxDeviceGLES32CreateDepthRenderSurfacePlatformEP17RenderSurfaceBase17DepthBufferFormat
evg:_ArrayListWrapper_Clear_m2625302714
PG:__ZN26AnimatorOverrideController13AwakeFromLoadE17AwakeFromLoadMode
uBk:_emscripten_glIsTexture__wrapper
Nuf:_CipherSuiteCollection_System_Collections_IEnumerable_GetEnumerator_m3240848888
Yqk:_llvm_bswap_i32
Z4h:_Comparison_1_BeginInvoke_m3417636795_gshared
$hb:__ZN9GfxDevice25ReleaseAsyncCommandHeaderEPN21GfxDeviceAsyncCommand3ArgE
g7i:_X509Crl_Parse_m3164013387
bie:__ZL75Mesh_t3648964284_CustomAttributesCacheGenerator_Mesh_HasChannel_m4256962133P21CustomAttributesCache
JEb:__ZN13MonoBehaviour23VirtualRedirectTransferER17RemapPPtrTransfer
mTb:__ZN21UniformBufferTFMethod20IsBoneCountSupportedEi
hmb:__ZN4gles14UseGLSLProgramER15DeviceStateGLESjbij
_Fd:_HorizontalLayoutGroup_CalculateLayoutInputHorizontal_m750541069
Iak:__ZN6il2cpp6icalls8mscorlib6System11Environment11get_NewLineEv
Ogg:_X509CertificateCollection__ctor_m1395805580
eOd:_ResourceReader_CreateResourceInfo_m1818330740
txj:_OnOverrideControllerDirtyCallback_Invoke_m764065723
WLa:__ZN6Shader27MarkShaderStateNotSupportedEPKS_
gla:__ZL55__ManagedRegistrationHelperFunction_DrawShadowsSettingsPv
qla:__ZL52__ManagedRegistrationHelperFunction_GradientAlphaKeyPv
E1e:_Object_Internal_CloneSingle_m1021157572
RSb:__ZN25TransformFeedbackSkinning8SkinMeshERK18VertexStreamSourceP9GfxBufferP17GPUSkinPoseBufferS4_ii17ShaderChannelMaskb
z2j:__ZN15dense_hashtableINSt3__24pairIK10KeyWrapperIP14Il2CppIUnknownEjEES5_N6il2cpp5utils11PointerHashIS3_EEN14dense_hash_mapIS5_jSB_NS5_14EqualsComparerINS0_8equal_toIS4_EEEENS0_9allocatorIS7_EEE9SelectKeyESG_SI_E12resize_deltaEjj
QNd:_ResolveEventArgs__ctor_m1455935166
qrh:_Type_Equals_m1673304139
KYf:_SynchronizedReader_Read_m1388613247
Fxb:__Z22TransferField_NonArrayI19StreamedBinaryWriteILb0EE27Converter_SimpleNativeClassI8GUIStyleEEvRK23StaticTransferFieldInfoR31RuntimeSerializationCommandInfoRT0_
Tjf:_Scrollbar_OnPointerDown_m3213715319
$Rc:__ZN8JSONRead8TransferIN4math12int3_storageEEEvRT_PKc17TransferMetaFlagsb
QWb:__ZN27IntermediateRendererManager29ClearAllIntermediateRenderersEv
Swd:_StandaloneInputModule__ctor_m2419721820
DOf:_Comparer_1_System_Collections_IComparer_Compare_m2018996185_gshared
Rp:__Z17CalculateGlobalSM23TransformAccessReadOnlyRKN4math7_float4E
exg:_CollectionBase_System_Collections_IList_Contains_m2994901969
Wl:_emscripten_glLoadIdentity
Jac:__ZNSt3__26vectorINS_4pairIN4core12basic_stringIcNS2_20StringStorageDefaultIcEEEEPK17MessageIdentifierEENS_9allocatorISA_EEE26__swap_out_circular_bufferERNS_14__split_bufferISA_RSC_EEPSA_
ixe:__ZL57RemoteSettings_t1718627291_CustomAttributesCacheGeneratorP21CustomAttributesCache
Qzj:_NativeMethodAttribute_set_HasExplicitThis_m2961870915
K1e:_Vector3_get_zero_m1409827619
GWb:__ZN6Shader16GetDefaultOrNullEv
kq:__ZN4AABB8TransferI14SafeBinaryReadEEvRT_
vah:_Array_InternalArray__ICollection_Contains_TisX509ChainStatus_t133602714_m795171973_gshared
p1j:__ZN6il2cpp2vm8Liveness8FromRootEP12Il2CppObjectPv
Z0a:__ZN12MeshRenderer23VirtualRedirectTransferER19StreamedBinaryWriteILb0EE
Dcc:__Z11MD5ToStringPh
NJj:__ZN23InterfaceActionInvoker4IixxbE6InvokeEjP11Il2CppClassP12Il2CppObjectixxb
vrc:__Z38Input_Get_Custom_PropCompositionStringv
g0:__GLOBAL__sub_I_artifacts_WebGL_codegenerator_0_cpp_862
CW:__ZN19AudioSampleProvider7AcquireEjRNS_6HandleE
iof:_Text_get_alignment_m1496827807
TSh:_ContentInfo_get_ASN1_m1776225219
jne:__ZL82NativeContainerNeedsThreadIndexAttribute_t764917452_CustomAttributesCacheGeneratorP21CustomAttributesCache
TY:__ZN9JSONWrite8TransferIN4core12basic_stringIcNS1_20StringStorageDefaultIcEEEEEEvRT_PKc17TransferMetaFlags
ZXa:__ZN10SpriteBone8TransferI19StreamedBinaryWriteILb0EEEEvRT_
y1g:_Convert_ToSingle_m2533452644
Kpk:__ZNSt3__212basic_stringIcNS_11char_traitsIcEENS_9allocatorIcEEE6resizeEjc
b2a:__ZN14PlayerSettings16CheckConsistencyEv
FV:__ZN11AudioModule30GetOrCreateDSPFromCustomFilterEP17AudioCustomFilter
fAa:__ZN19AtomicPageAllocatorD2Ev
Ztd:_EventTrigger_OnPointerEnter_m986348926
M1j:__ZN6il2cpp6icalls8mscorlib6System13GlobalizationL20culture_lcid_locatorEPKvS5_
uQg:_X509Certificate__ctor_m1413707489
q1h:_ReadOnlyCollection_1_System_Collections_Generic_ICollectionU3CTU3E_Remove_m2211264472_gshared
JQa:__ZNK12CubemapArray16ExtractImageImplEP14ImageReferenceNS0_8BlitModeEbi
RBc:__ZN10systeminfo24GetSystemLanguageCultureEi
Zjb:__ZN9GfxDevice24RequestAsyncReadbackDataEP20GfxAsyncReadbackDataRK27GfxAsyncReadbackRequestDesc
poi:__Z240RuntimeInvoker_RuntimeObject_Int16_t2552820387_RuntimeObject_Int32_t2950945753_Int32_t2950945753_Int32_t2950945753_SByte_t1669577662_SByte_t1669577662_SByte_t1669577662_SByte_t1669577662_Int16_t2552820387_SByte_t1669577662_SByte_t1669577662PFvvEPK10MethodInfoPvPS4_
o2a:__ZN10VRSettings8TransferI14SafeBinaryReadEEvRT_
Zpa:__ZN9Scripting11UnityEngine12Experimental18GlobalIllumination11LightDataGI9InitProxyEv
Srh:_Type_IsMarshalByRefImpl_m914778231
cbb:__ZNK17FileSystemHandler10IsReadOnlyERK13FileEntryData
F_c:_UNITY_FT_Outline_Get_CBox
fGc:__Z56Register_UnityEngine_SystemInfo_GetOperatingSystemFamilyv
Vxg:_Hashtable__ctor_m2302711321
ja:invoke_viifiiii
Lsg:_Byte_TryParse_m1467448483
Xtj:_DelegatePInvokeWrapper_OnCommandSentHandler_t613111342
SAa:__ZN22PerThreadPageAllocator14AcquireNewPageEj
w5h:_Func_2_Invoke_m3516477887_gshared
vle:__ZL65SelectionBaseAttribute_t3493465804_CustomAttributesCacheGeneratorP21CustomAttributesCache
UVg:_String_ToString_m3872792296
rub:__Z18Transfer_BlittableI24GenerateTypeTreeTransferLb1E9BoundsIntEvRK29SerializationCommandArgumentsR31RuntimeSerializationCommandInfo
Vyg:_FileStream_GetSecureFileName_m449783930
R4e:_RectOffset_t1369453676_marshal_pinvoke
CZf:_UnexceptionalStreamWriter_Flush_m82278468
hLa:__ZNK15PlayableMethods21CanInvokeProcessFrameEv
YHf:_InternalEnumerator_1_get_Current_m3911557813_gshared
GFj:__ZNK15dense_hashtableI10KeyWrapperIPK17Il2CppGenericInstES4_N6il2cpp8metadata21Il2CppGenericInstHashEN14dense_hash_setIS4_S7_NS4_14EqualsComparerINS6_24Il2CppGenericInstCompareEEENSt3__29allocatorIS4_EEE8IdentityESB_SE_E12test_deletedEj
Gsd:_BaseInput_get_touchCount_m1263753282
Lqf:_ASN1Convert_FromOid_m3844102704
kzj:_CustomEventData_Internal_Create_m4267220301
SHe:_RemotingSurrogate_SetObjectData_m2713731796
fjh:_DecoderReplacementFallbackBuffer_Reset_m3943028589
Yle:__ZL56RenderTexture_t2108887433_CustomAttributesCacheGeneratorP21CustomAttributesCache
ZRb:__ZN18GfxFramebufferGLES10InvalidateEv
LFh:_Enumerator_System_Collections_IEnumerator_get_Current_m282279808_AdjustorThunk
Jef:_LayoutRebuilder_MarkLayoutRootForRebuild_m1241498911
pnh:_CompressedStack_CreateCopy_m2591279216
ZNg:_RSAPKCS1KeyExchangeFormatter_CreateKeyExchange_m1611814432
V3:__ZN10MemoryPoolD2Ev
QKc:__ZNSt3__26__treeINS_12__value_typeIN4core12basic_stringIcNS2_20StringStorageDefaultIcEEEEN5IMGUI12NamedControlEEENS_19__map_value_compareIS6_S9_NS_4lessIS6_EELb1EEENS_9allocatorIS9_EEE7destroyEPNS_11__tree_nodeIS9_PvEE
$dg:_AsnEncodedData_KeyUsageExtension_m1792651780
q7j:__ZN6il2cpp2os5posix15PosixWaitObjectD2Ev
qlb:__ZN14GfxDeviceStats19EndClientFrameStatsEv
tok:___mmap
ilc:__ZN9Scripting26RaiseArgumentNullExceptionEPKc
$Bk:b120
i2:__ZL18InternalLogConsolePKcz
CFf:_InternalEnumerator_1_get_Current_m685192625_gshared
wZf:_UnexceptionalStreamReader_Read_m16956299
nOd:_ResourceReader_ReadValueVer1_m183253382
o8:__Z37scripting_method_get_nth_argumenttype18ScriptingMethodPtri
sR:__ZN11AudioSource16UpdatePauseStateEv
Uca:__ZL52StaticUnregisterSceneLoadedCallback_LightmapSettingsPv
uUe:_Camera_get_main_m3643453163
BEc:__Z48Register_UnityEngine_MonoBehaviour_StopCoroutinev
_kk:__ZN6il2cpp5utils25NativeDelegateMethodCache17AddNativeDelegateEPFvvEPK10MethodInfo
igf:_LayoutRebuilder_U3CRebuildU3Em__5_m1288787547
s0b:__ZN27DeviceViewProjMatricesStateD2Ev
O6e:_SendMouseEvents__cctor_m2378365934
DZh:_ReadOnlyCollection_1_System_Collections_IList_set_Item_m3582274843_gshared
x_e:_Mathf_Pow_m856735666
uga:__ZL39CreateRegisteredMessageIdentifiersArrayPv
cub:__Z18Transfer_BlittableI24GenerateTypeTreeTransferLb0E8Vector3fEvRK29SerializationCommandArgumentsR31RuntimeSerializationCommandInfo
WMh:_SimpleCollator_FilterExtender_m72900315
cXc:__ZNK13TextRendering4Font22GetTypeVirtualInternalEv
vxe:__ZL61CertificateHandler_t2739891000_CustomAttributesCacheGeneratorP21CustomAttributesCache
wma:__ZL46__ManagedRegistrationHelperFunction_Vector3IntPv
x5a:__ZN19StreamedBinaryWriteILb0EE21TransferSTLStyleArrayINSt3__26vectorIN15ResourceManager10DependencyE13stl_allocatorIS5_L18MemLabelIdentifier52ELi16EEEEEEvRT_17TransferMetaFlags
tlf:_ScrollRect_EnsureLayoutHasRebuilt_m3415112783
V$f:_Binder_FindMostDerivedMatch_m239579024
Uhj:_GUIUtility_EndContainerGUIFromException_m530164245
zXc:__ZNSt3__26vectorINS_4pairINS1_IttEEfEENS_9allocatorIS3_EEE8__appendEj
zwj:_RectTransformUtility_INTERNAL_CALL_RectangleContainsScreenPoint_m1214874141
BI:__ZZN8Animator15InitializeClassEvEN37FunctorImpl_439kDidModifyOverrideClip4CallEPviR11MessageData
ZOa:__ZN6prcoreL10inner_flipILj2EEEvPhS1_j
LHj:__ZN6il2cpp2vm13MetadataCache14GetPointerTypeEP11Il2CppClass
POa:__ZNK14Texture2DArray16ExtractImageImplEP14ImageReferenceNS0_8BlitModeEbi
ulh:_StringBuilder_Append_m2383614642
oOc:__ZN9JSONWrite8TransferIbEEvRT_PKc17TransferMetaFlags
Gua:__ZN12TLSAllocatorI14StackAllocatorED0Ev
o1a:__ZN11TimeManager16CheckConsistencyEv
n1h:_ReadOnlyCollection_1_System_Collections_Generic_ICollectionU3CTU3E_Add_m2451728105_gshared
AZb:__ZN21GfxDeviceAsyncCommand10ArgScratch15ThreadedCleanupEv
uzc:__Z14DoubleToStringd
CWg:_StringComparer_GetHashCode_m2080455020
Dtb:__ZN12NativeBufferI27Converter_UnityEngineObjectE15SetupForWritingER9ArrayInfo
DOi:_List_1_CheckCollection_m2118769249_gshared
oe:_glTexImage3D
NBd:_DefaultControls_SetDefaultColorTransitionValues_m2033775311
$yg:_Path_IsPathRooted_m3515805419
BFi:_Array_InternalArray__set_Item_TisChar_t3634460470_m741842250_gshared
P3i:_TlsServerSettings_set_RsaParameters_m853026166
A4j:__ZN6il2cpp2vm5Field22StaticGetValueInternalEP9FieldInfoPvS4_
V3g:_DateTime_AddMilliseconds_m3713972790_AdjustorThunk
TP:__ZN11AudioSource12ApplyFiltersEv
R7i:_RC2_Create_m2052783340
dEg:_Guid__ctor_m3421080095_AdjustorThunk
xe:_JS_SystemInfo_GetCurrentCanvasWidth
Nbk:__ZN6il2cpp8metadataL22FormatGenericArgumentsEPK17Il2CppGenericInst
_mc:__ZL34GetComponentsImplementationRecurseILb1ELi0ELi1EEbR10GameObjectbRK17CompareParametersRK39GetComponentsImplementation_ReturnValue
WCa:__ZNK17InstancingBatcher15RenderInstancesERK15RenderNodeQueuePK17BatchInstanceDataj16VertexInputMasksPFbPvS6_iR11MeshBuffersR16DrawBuffersRangeRiSC_E
n8g:_Double_Equals_m1674752021
Gcf:_InputField_OnDisable_m1824300767
aMh:_CodePointIndexer_ToIndex_m1008730487
XDc:__Z37Texture_CUSTOM_get_texelSize_InjectedP12Il2CppObjectR13Vector2fIcall
DHg:_Int64_System_IConvertible_ToUInt64_m2815650160_AdjustorThunk
M2a:__ZN10VRSettings8TransferI18StreamedBinaryReadILb0EEEEvRT_
Ey:__ZN22AnimationMixerPlayable12MixerProcessEP35AnimationPlayableEvaluationConstantP32AnimationPlayableEvaluationInputP33AnimationPlayableEvaluationOutputM17AnimationPlayableFvS1_S3_S5_EPFvS1_S3_S5_ESA_PFvS5_S1_S3_S5_PN7mecanim16ValueArrayWeightEfEPFvS1_S3_S5_SD_fE
bbb:__ZN22LocalFileSystemHandler4NameEv
$Zf:_Math_Abs_m3912393749
Gxf:_TlsClientFinished_ProcessAsSsl3_m3094597606
DUe:_Camera_get_allCamerasCount_m528453758
Lxb:__Z19TransferField_ArrayI19StreamedBinaryWriteILb0EE27Converter_SimpleNativeClassI8GradientEEvRK23StaticTransferFieldInfoR31RuntimeSerializationCommandInfoRT0_
_Ya:__ZNK13ScreenManager12IsFullscreenEv
ohc:__ZN24GenerateTypeTreeTransfer8TransferINSt3__26vectorIN9ShaderLab20SerializedSubProgram15VectorParameterENS1_9allocatorIS5_EEEEEEvRT_PKc17TransferMetaFlags
mQc:__Z18Transfer_BlittableI8JSONReadLb0E12PropertyNameEvRK29SerializationCommandArgumentsR31RuntimeSerializationCommandInfo
Fyk:_glGetUniformBlockIndex__wrapper
tpg:_Array_CreateInstance_m2696293787
Hlh:_UnicodeEncoding__ctor_m1074918879
PXa:__ZN7SubMesh8TransferI18StreamedBinaryReadILb0EEEEvRT_
I9f:_OpCode_Equals_m1376200488_AdjustorThunk
AAd:_ColorBlock_op_Inequality_m2718216889
c0g:_Convert_ToInt16_m2763665794
bf:_emscripten_glIsEnabled
Inc:__Z45Register_UnityEngine_GameObject_get_transformv
w6f:_DerivedType_GetConstructors_m483065502
v7:__Z29scripting_class_instance_size17ScriptingClassPtr
JRc:__Z29Transfer_Blittable_ArrayFieldI8JSONRead5RectTIiEEvRT_R9ArrayInfoRK23StaticTransferFieldInfo
dle:__ZL82RectOffset_t1369453676_CustomAttributesCacheGenerator_RectOffset__ctor_m2718275157P21CustomAttributesCache
pDi:__Z68RuntimeInvoker_Boolean_t97287965_SByte_t1669577662_SByte_t1669577662PFvvEPK10MethodInfoPvPS4_
wti:__Z165RuntimeInvoker_Void_t1185182177_RuntimeObject_Int32_t2950945753_Int32_t2950945753_RuntimeObject_Int32_t2950945753_Single_t1397266774_Single_t1397266774_RuntimeObjectPFvvEPK10MethodInfoPvPS4_
vGd:_Image_set_preserveAspect_m769358756
DZe:_Input_INTERNAL_get_compositionCursorPos_m177109014
t_e:_Mathf_Min_m1073399594
u7e:_StackTraceUtility_ExtractStringFromExceptionInternal_m2686726792
j3c:_otv_Coverage_get_last
X_:__ZN11UnityEngine15CloudWebService19SessionEventManager37OnTimerExpiredPerformArchiveJobStaticEPv
fNc:__Z18Transfer_BlittableI9JSONWriteLb1E9BoundsIntEvRK29SerializationCommandArgumentsR31RuntimeSerializationCommandInfo
$ih:_DecoderReplacementFallbackBuffer__ctor_m1669699347
mdj:_Group_GetWidth_m3299755715
u$g:_Decimal_op_Implicit_m1920400487
ali:__Z253RuntimeInvoker_Int32_t2950945753_RuntimeObject_Int32_t2950945753_Int32_t2950945753_RuntimeObject_Int32_t2950945753_UInt32U26_t3735378166_UInt32U26_t3735378166_RuntimeObject_DecoderFallbackBufferU26_t3866396827_ByteU5BU5DU26_t4057885439_SByte_t1669577662PFvvEPK10MethodInfoPvPS4_
kHa:__ZN10builtintex15GetWhiteTextureEv
IHe:_MonoMethodMessage_get_TypeName_m3758247133
_Wg:_Enumerator_get_Entry_m2184304359
g1g:_Convert_ToSByte_m2653811524
emk:__ZN6il2cpp6icalls8mscorlib6System10Reflection4Emit11DerivedType21create_unmanaged_typeEP20Il2CppReflectionType
xGd:_Image_set_fillCenter_m3776786491
Qmk:_printf_core
Okb:__ZN9GfxDevice19BeginRenderPassImplERK15RenderPassSetup
Blc:__Z39Register_UnityEngine_Sprite_get_texturev
uyj:__ZL10rescale128PyS_Piiiii
XS:__ZN9AudioClip7WWWSeekEPvjS0_
kZd:__ZL63FixedBufferAttribute_t3759792648_CustomAttributesCacheGeneratorP21CustomAttributesCache
l3:__ZL32StaticInitializeIUnityInterfacesPv
fZb:__Z13CameraProjectRK8Vector3fRK10Matrix4x4fS4_RK5RectTIiERS_b
Rda:__Z22CreateMutexLockedStackv
RJb:__ZNSt3__27__sort5IRNS_4lessIN22BuiltinResourceManager8ResourceEEEPS3_EEjT0_S7_S7_S7_S7_T_
U1f:_NumberFormatter_FormatNumber_m1763569482
$6e:_Sprite_get_rect_m2575211689
yWb:__ZN9ShaderLab11ShaderStateD2Ev
R6c:_Ins_DELTAP
WFb:__Z23TransferScriptingObjectI24GenerateTypeTreeTransferEvRT_18ScriptingObjectPtr17ScriptingClassPtrPK15MonoScriptCache
taj:_PatternLinkStack_GetOffset_m3697714525
nJj:_AnalyticsEvent__cctor_m3994162614
qIc:__Z19GetSpecificGUIStatei
dJc:__ZN12GUIClipState5ApplyER10InputEvent
olg:_X509Certificate_GetUnsignedBigInteger_m1025066663
rxb:__ZL17Transfer_GUIStyleI19StreamedBinaryWriteILb0EELb0EEvRK29SerializationCommandArgumentsR31RuntimeSerializationCommandInfo
q1b:__ZN10TextureRef4InitEP7Textureb
O2e:_PlayerConnectionInternal_UnityEngine_IPlayerEditorConnectionNative_Initialize_m2565175798
WJg:_MonoIO_GetFileType_m101289143
yDa:__Z19ScheduleJobInternalR8JobFencePFvPvES1_11JobPriority
fpa:__ZN9Scripting11UnityEngine12Experimental9Rendering12VisibleLight9InitProxyEv
bbg:_KeysCollection_get_Count_m3943311735
Mvh:_Version__ctor_m1550720073
jJj:__ZNSt3__211__tree_nextIPNS_16__tree_node_baseIPvEEEET_S5_
M4j:__ZN15dense_hashtableI10KeyWrapperIP18Il2CppGenericClassES3_N6il2cpp8metadata22Il2CppGenericClassHashEN14dense_hash_setIS3_S6_NS3_14EqualsComparerINS5_25Il2CppGenericClassCompareEEENSt3__29allocatorIS3_EEE8IdentityESA_SD_E14squash_deletedEv
dia:__ZN6prcoreL17RemapGenericFloatI17TexFormatRGBAHalf17TexFormatRGBFloatEEvPKNS_9InnerInfoE
ifi:__Z52RuntimeInvoker_Double_t594665363_Decimal_t2948259380PFvvEPK10MethodInfoPvPS4_
cJf:_InternalEnumerator_1_get_Current_m784835552_gshared
MGc:__Z35Sprite_Get_Custom_PropPixelsPerUnitP12Il2CppObject
JFj:__ZNSt3__26__sortIRN6il2cpp5utils11collections13ArrayValueMapIPK10Il2CppType17Il2CppInteropData26InteropDataToTypeConverterNS1_8metadata14Il2CppTypeLessENSA_26Il2CppTypeEqualityComparerEE12SortComparerEPS8_EEvT0_SH_T_
i8a:__ZN11PreloadDataD2Ev
kqd:__ZN15DownloadHandler14ProcessHeadersERK9HeaderMap
uXc:__ZNSt3__26vectorINS_4pairIifEE13stl_allocatorIS2_L18MemLabelIdentifier35ELi16EEE6assignINS_11__wrap_iterIPS2_EEEENS_9enable_ifIXaasr21__is_forward_iteratorIT_EE5valuesr16is_constructibleIS2_NS_15iterator_traitsISC_E9referenceEEE5valueEvE4typeESC_SC_
Vb:invoke_iifi
htg:_Char_System_IConvertible_ToInt16_m975497224_AdjustorThunk
X6g:_Delegate_CreateDelegate_m995503480
Tzk:_emscripten_glGetObjectParameterivARB__wrapper
VMj:__ZNK6il2cpp5utils10StringViewIcE5RFindEc
I6f:_DerivedType_get_Module_m3032466746
KHa:__ZN15SharedLightData15UpdateTransformERK9Transform
GBe:__ZL71InputField_t3762917431_CustomAttributesCacheGenerator_m_OnValidateInputP21CustomAttributesCache
hib:__ZN9GfxDevice24CreateRenderDepthSurfaceE9TextureIDiiii16TextureDimension17DepthBufferFormat18SurfaceCreateFlags
U8b:__ZL30CollectComponentsWithoutAddingR10GameObjectPKN5Unity4TypeE17ScriptingClassPtrR13dynamic_arrayI16AddComponentDataLj0EES9_PN4core12basic_stringIcNSA_20StringStorageDefaultIcEEEE
bK:__ZN18AssetBundleManagerD2Ev
z8e:_Transform_get_forward_m747522392
poc:__Z44Register_UnityEngine_RectOffset_get_verticalv
$gf:_MaskableGraphic_set_maskable_m243551751
usa:__ZN5Unity9Component8TransferI14SafeBinaryReadEEvRT_
lKh:_List_1_System_Collections_IList_Remove_m2702745770_gshared
eh:_JS_SystemInfo_GetCurrentCanvasHeight
DBf:_ArrayReadOnlyList_1_IndexOf_m1911574180_gshared
Kgf:_Mask_OnEnable_m2186824439
jbf:_InputField_SetCaretVisible_m2216480850
Ghg:_X509EnhancedKeyUsageExtension_CopyFrom_m3750050754
kMa:__ZNK8Material22GetTypeVirtualInternalEv
LJc:__Z34GUIStyle_Get_Custom_PropFixedWidthP12Il2CppObject
N$h:_ReadOnlyCollection_1_System_Collections_IList_Clear_m1076810235_gshared
FIh:_Enumerator_System_Collections_IEnumerator_get_Current_m3405349194_AdjustorThunk
kpg:_Array_SetValue_m3412648248
_8j:__ZN6il2cpp2gc16GarbageCollector11GetWeakLinkEPPv
v9j:__GLOBAL__sub_I_Console_cpp
Vha:__ZN6prcoreL17RemapGenericFloatI14TexFormatRHalf17TexFormatRGBAHalfEEvPKNS_9InnerInfoE
bpf:_BigInteger_GetBytes_m1259701831
jNj:__ZN6il2cpp2vm7Runtime11InvokeArrayEPK10MethodInfoPvP11Il2CppArrayPP15Il2CppException
lWg:_String_memcpy_m2826223007
i8i:_RijndaelManaged_CreateDecryptor_m1421727258
W6c:_Dual_Project
njb:__ZN9GfxDevice15BeginFrameStatsEv
wIh:_Enumerator_MoveNext_m2407049913_gshared
plh:_StringBuilder_Replace_m1682610486
ARb:__ZN4gles20EnsureTextureCreatedEP7ApiGLESP17RenderSurfaceGLES
Nra:__ZN9Scripting5Unity11Collections8LowLevel6Unsafe48NativeDisableContainerSafetyRestrictionAttribute9InitProxyEv
QZb:__ZN15ReplacementPass13PrepareSubsetEjRK10RenderNodeifRK17ShaderReplaceData
XP:__Z32AudioMeasurement_GetTimeConstantff
Pbk:__ZN6il2cpp8metadata11FieldLayout12LayoutFieldsEjjjRKNSt3__26vectorIPK10Il2CppTypeNS2_9allocatorIS6_EEEERNS1_15FieldLayoutDataE
Ncb:__ZNK20LocalFileSystemPosix9EnumerateEPKcP19dynamic_block_arrayI13FileEntryInfoLj32EEbPPv19FileEnumerationFlag
kKd:_MethodInfo_MakeGenericMethod_m1996785325
Wsd:_BaseInputModule_DetermineMoveDirection_m770437496
DSd:_Context_get_HasGlobalDynamicSinks_m3672814609
g9i:_Match__ctor_m2464595873
i6b:__ZL27PrepareSceneNodesJobCombineP25ScheduleSceneNodesJobData
_D:__ZN9BlobWrite8TransferIN7mecanim12statemachine18StateMachineMemoryEEEvRT_PKc17TransferMetaFlags
L6i:_X509CertificateEnumerator_Reset_m1825523691
rqb:__Z22TransferField_NonArrayI14SafeBinaryRead27Converter_SimpleNativeClassI8GUIStyleEEvRK23StaticTransferFieldInfoR31RuntimeSerializationCommandInfoRT0_
ETj:__ZN14dense_hash_mapI10KeyWrapperIPK10Il2CppTypeEjN6il2cpp8metadata14Il2CppTypeHashENS4_14EqualsComparerINS6_26Il2CppTypeEqualityComparerEEENSt3__29allocatorINSB_4pairIKS4_jEEEEEC2EjRKS7_RKSA_
UKb:__ZN13GfxDeviceGLESD2Ev
uec:__ZNSt3__26vectorIN9ShaderLab26SerializedShaderDependencyENS_9allocatorIS2_EEE6resizeEj
nKi:_Activator_CreateInstance_TisRuntimeObject_m729575857_gshared
Lda:__ZN18AsyncUploadManager13StaticDestroyEPv
WWc:__ZN9Scripting11UnityEngine4Font9InitProxyEv
Xdc:__ZN6Shader7SetNameEPKc
$9b:__ZN19CustomRenderTexture22HandleBoundaryWrappingERKNS_14UpdateZoneInfoEj
wuj:_TextGenerationSettings_CompareColors_m3051734236
dJj:__ZN6il2cpp2vm13MetadataCache32GenerateCustomAttributeTypeCacheEi
TTg:_Single_Equals_m438106747
$le:__ZL101Time_t2420636075_CustomAttributesCacheGenerator_Time_t2420636075____realtimeSinceStartup_PropertyInfoP21CustomAttributesCache
Lpd:__ZN20UnityWebRequestProtoI24UnityWebRequestTransport16AtomicRefCounter14RedirectHelper14ResponseHelper15DownloadHandler13UploadHandler18CertificateHandler12HeaderHelper14AsyncOperationE35Task_FinalizeAfterDHCompleteContentEPv
WOd:_RuntimeResourceSet__ctor_m2765575100
Nic:__ZN9ShaderLab9SubShader31UpdateLightModeToPassIndexTableEv
wxf:_TlsClientCertificate_ProcessAsSsl3_m3265529850
GC:__ZNK11UnityEngine9Animation30GenericBindingValueArrayUniqueclERKNS0_14GenericBindingES4_
NWg:_ASCIIEncoding_GetChars_m2543669481
_Oh:_BigInteger_IsProbablePrime_m567194283
a9f:_MethodBuilder_GetCustomAttributes_m731278908
$6c:_Direct_Move_Y
Z6c:_Direct_Move_X
$li:__Z51RuntimeInvoker_Single_t1397266774_Double_t594665363PFvvEPK10MethodInfoPvPS4_
Bi:_glClearDepthf
bBc:__ZN19SkinnedMeshRenderer7GetMeshEv
AHa:__ZN19RuntimeSceneManager14GetActiveSceneEv
Zqk:_memcpy
SJb:__ZNSt3__218__insertion_sort_3IRNS_4lessIN22BuiltinResourceManager8ResourceEEEPS3_EEvT0_S7_T_
LMe:_MultiArrayFixupRecord_FixupImpl_m1721674130
GMj:__ZN6il2cpp6icalls8mscorlib6SystemL8IsStaticEPK9EventInfo
W2c:_otv_LookupList_validate
a3d:__ZL49_Module_t135161706_CustomAttributesCacheGeneratorP21CustomAttributesCache
EFh:_GenericEqualityComparer_1_Equals_m687841776_gshared
tqc:__Z57Register_UnityEngine_Transform_INTERNAL_get_localPositionv
n4b:__ZNSt3__27__sort4IR15ReflProbeSorterPP15ReflectionProbeEEjT0_S6_S6_S6_T_
ZEa:__ZN16GraphicsSettings10SmartResetEv
Bkc:__ZN19StreamedBinaryWriteILb0EE4InitE24TransferInstructionFlags20BuildTargetSelection
Fif:_DelegatePInvokeWrapper_GetRayIntersectionAllCallback_t3913627115
EAj:__ZN15dense_hashtableINSt3__24pairIK10KeyWrapperIPK22Il2CppGenericParameterEP11Il2CppClassEES6_N6il2cpp5utils11PointerHashIS4_EEN14dense_hash_mapIS6_S9_SE_NS6_14EqualsComparerINS0_8equal_toIS5_EEEENS0_9allocatorISA_EEE9SelectKeyESJ_SL_E9copy_fromERKSO_j
eQh:_ASN1Convert_ToInt32_m254930636
Tad:__GLOBAL__sub_I_artifacts_WebGL_codegenerator_0_cpp_6461
cx:__ZN7mecanim8skeleton25SkeletonPoseComputeGlobalIN4math4trsXEEEvPKNS0_8SkeletonEPKNS0_13SkeletonPoseTIT_EEPS9_ii
Vuh:_UInt64_ToString_m1529093114
ysc:__ZNK28RectTransformPropertyBinding9BindValueER6ObjectRKN11UnityEngine9Animation14GenericBindingERNS3_10BoundCurveE
x4:__ZL33TransformAccessArray_CleanupClassPv
o_e:_Material_SetInt_m1783799378
Sog:_Array_GetLength_m2178203778
nZe:_Input_GetMouseButtonDown_m2081676745
fFg:_Int16_System_IConvertible_ToDouble_m1661805412_AdjustorThunk
B0a:__ZN4Mesh14UploadMeshDataEb
gCk:_emscripten_glCreateProgram__wrapper
yGb:__ZN18ScreenManagerWebGL17RestoreCursorLockEv
wvc:__ZN14RenderSettings12CleanupClassEv
xlc:__Z43DataUtility_CUSTOM_INTERNAL_CALL_GetPaddingP12Il2CppObjectR8Vector4f
RT:__ZN21AudioScriptingClasses26InvokeOnAudioManagerUpdateEP21ScriptingExceptionPtr
elb:__ZN18AsyncUploadManager15DoDeCruncherJobEP26FileAssetUploadInstruction
cjb:__ZN9GfxDevice15ImmediateNormalEfff
Z8e:_Enumerator__ctor_m1351041375
usd:_BaseInput_get_compositionString_m1887614380
tvb:__ZN13GUIStyleState8TransferI24GenerateTypeTreeTransferEEvRT_
ryk:_emscripten_glGetActiveAttrib__wrapper
tZa:__ZN9Texture3D23VirtualRedirectTransferER14SafeBinaryRead
Eqd:__Z33CertificateHandler_CUSTOM_ReleaseP12Il2CppObject
zGi:_Array_InternalArray__set_Item_TisVector2_t2156229523_m2671087464_gshared
uLi:_Array_InternalArray__get_Item_TisVector4_t3319028937_m1117939728_gshared
Tfc:__ZNSt3__26vectorIN9ShaderLab20SerializedSubProgram16TextureParameterENS_9allocatorIS3_EEE8__appendEj
D6i:_X509CertificateCollection_Contains_m743657353
rJg:_DirectoryInfo_Initialize_m1389772934
ZSa:__ZN9Texture2D13UploadTextureEi
OQb:__ZN7ApiGLES9MapBufferEjN2gl12BufferTargetEllj
XO:__ZN4FMOD6System19setSoftwareChannelsEi
vkb:__ZN9GfxDevice19SetSinglePassStereoE16SinglePassStereo
Xqk:_bitshift64Lshr
bDa:__Z40BuildSingleStreamChannelInfoWithDefaultsP11ChannelInfoRK20VertexChannelsLayout17ShaderChannelMaskS4_S4_
_xg:_Hashtable_System_Collections_IEnumerable_GetEnumerator_m2751657639
rGc:__Z62ScriptableObject_CUSTOM_CreateScriptableObjectInstanceFromTypeP12Il2CppObject
JUd:_HeaderHandler_Invoke_m3513051789
VDe:__ZL77CanvasScaler_t2767979955_CustomAttributesCacheGenerator_m_ReferenceResolutionP21CustomAttributesCache
hgi:__Z144RuntimeInvoker_RuntimeObject_RuntimeObject_Int32_t2950945753_RuntimeObject_RuntimeObject_RuntimeObject_RuntimeObject_RuntimeObject_RuntimeObjectPFvvEPK10MethodInfoPvPS4_
hrh:_Type_get_IsPointer_m4067542339
aof:_Text_get_supportRichText_m1837499160
Orc:__Z60Register_UnityEngine_Input_INTERNAL_set_compositionCursorPosv
J1e:_Vector3_Magnitude_m3447562852
kTe:_Component__ctor_m1928064382
usk:dynCall_viiiii
Ask:dynCall_viiiif
N5b:__Z59ProcessShadowCasterNodeVisibilityAndCullWithoutUmbra_KernelILN17CullingParameters9LayerCullE1ELi12EEvR9IndexListRK22SceneCullingParametersPK9SceneNodePK4AABBjjPKN4math7_float4E
Y8c:_Cubic_To
Qvf:_Context_get_Protocol_m1078422015
lFc:__Z44Register_UnityEngine_Camera_get_farClipPlanev
jr:__Z25InverseTransformDirection23TransformAccessReadOnlyRKN4math7_float3Eb
iW:__ZNK12AudioManager15GetDSPBlockSizeEv
Ixf:_TlsClientHello_Update_m3773127362
Elj:_ToggleGroup_SetAllTogglesOff_m4184050071
O6j:__ZN6il2cpp2gc16GarbageCollector14GetOrCreateCCWEP12Il2CppObjectRK10Il2CppGuid
W3j:__ZN6il2cpp2vm5Image21FromTypeNameParseInfoEPK11Il2CppImageRKNS0_17TypeNameParseInfoEb
b$f:_MonoCustomAttrs_IsDefined_m2996012389
_Nb:__ZN17BufferManagerGLES13AcquireBufferEjN14DataBufferGLES11BufferUsageEb
Xuj:_TextGenerator_PopulateAlways_m1922695746
L0g:_Decimal__ctor_m3650533794
ghf:_MaskableGraphic_UpdateClipParent_m2605828397
oQg:_TripleDESTransform_GetStrongKey_m292426577
ond:__ZN16UnityAdsSettingsD0Ev
cQb:__ZNK7ApiGLES10DebugLabelEN2gl10ObjectTypeEjPKc
yoa:__ZN9Scripting11UnityEngine9Matrix4x412CleanupProxyEv
CJg:_DirectoryNotFoundException__ctor_m4004339866
Hqk:__ZNK10__cxxabiv121__vmi_class_type_info16search_below_dstEPNS_19__dynamic_cast_infoEPKvib
Guj:_TextGenerator__ctor_m1349784994
r1i:_Collection_1_System_Collections_IList_set_Item_m876512695_gshared
zlc:__Z38DataUtility_CUSTOM_Internal_GetMinSizeP12Il2CppObjectP13Vector2fIcall
Azc:__ZN8PlayableC2E17ScriptingClassPtr18DirectorPlayerType
faf:_Vector3_Distance_m886789632
QLe:_ObjectReader_ReadObjectGraph_m1689734232
l0e:_MonoBehaviour_StopCoroutine_m907039165
LWj:_il2cpp_class_has_attribute
MQh:_DSAManaged_get_KeySize_m2738463749
DG:__ZN14SafeBinaryRead21TransferSTLStyleArrayI13dynamic_arrayIjLj0EEEEvRT_17TransferMetaFlags
Daf:_Vector4_op_Subtraction_m1632208160
T7:__Z27FindOrCreateMonoScriptCache17ScriptingClassPtr22InitScriptingCacheTypeP6Objecti
qBb:__Z18Transfer_BlittableI18StreamedBinaryReadILb0EELb1E8Vector3fEvRK29SerializationCommandArgumentsR31RuntimeSerializationCommandInfo
wgd:__ZN2UI14CanvasRenderer13SyncVertexPtrER8JobFenceNS0_8SyncFlagE
KBg:_CultureInfo_GetFormat_m732021304
j8:__Z35scripting_method_get_argument_count18ScriptingMethodPtr
mli:__Z46RuntimeInvoker_RuntimeObject_Double_t594665363PFvvEPK10MethodInfoPvPS4_
ujh:_EncoderReplacementFallback__ctor_m2980727890
Rug:_ArrayList_Synchronized_m1327684267
lmc:__Z20Gradient_CUSTOM_InitP12Il2CppObject
aKd:_MethodBase_get_IsPublic_m2180846589
pKc:__Z48Register_UnityEngine_GUIUtility_Internal_ExitGUIv
pBh:_DefaultComparer_Equals_m2574572657_gshared
bKg:_FileStream_get_CanWrite_m1199612770
m6b:__ZL21CullDynamicObjectsJobP14CullingJobDataj
Dcd:__ZN2UI15ClearCanvasDataER8JobFenceRNS_10CanvasDataE
bJd:_TypeBuilder_get_IsGenericParameter_m1751799710
Aac:__ZN14ManagerContext17InitializeClassesEv
e$:__ZNSt3__26__treeINS_12__value_typeIN19CloudServiceHandler11ServiceTypeEPS2_EENS_19__map_value_compareIS3_S5_NS_4lessIS3_EELb1EEE13stl_allocatorIS5_L18MemLabelIdentifier88ELi16EEE25__emplace_unique_key_argsIS3_JRKNS_21piecewise_construct_tENS_5tupleIJRKS3_EEENSI_IJEEEEEENS_4pairINS_15__tree_iteratorIS5_PNS_11__tree_nodeIS5_PvEEiEEbEERKT_DpOT0_
pK:__ZN19StreamedBinaryWriteILb0EE21TransferSTLStyleArrayINSt3__26vectorI14ConstantStringNS2_9allocatorIS4_EEEEEEvRT_17TransferMetaFlags
Fzb:__ZN18StreamedBinaryReadILb1EE21TransferSTLStyleArrayI31ArrayOfManagedObjectsTransfererEEvRT_17TransferMetaFlags
BUh:_Collection_1_System_Collections_ICollection_CopyTo_m787979241_gshared
u2h:_ReadOnlyCollection_1_System_Collections_Generic_ICollectionU3CTU3E_Clear_m1551418550_gshared
XB:__ZN8Animator24SetupAnimationClipsCacheEv
lsk:dynCall_viiiiiiiiii
y8c:_t1_hints_open
j0f:_MonoType_get_AssemblyQualifiedName_m2662925380
jZe:_GUILayer_INTERNAL_CALL_HitTest_m1069802956
Vof:_BigInteger_GenerateRandom_m3872771375
Qwc:__Z43InitializeRendererAnimationBindingInterfacev
yEi:__Z75RuntimeInvoker_RuntimeObject_Single_t1397266774_RuntimeObject_RuntimeObjectPFvvEPK10MethodInfoPvPS4_
xN:__ZN4FMOD7Channel11getUserDataEPPv
CIi:_Array_swap_TisBoolean_t97287965_TisBoolean_t97287965_m1115288271_gshared
U3c:_UNITY_tt_face_load_gasp
nof:_Text_set_fontSize_m3617617524
e_c:_ft_ansi_stream_close
im:_JS_Sound_SetPitch
moh:_Thread_FreeLocalSlotValues_m1195763560
PSg:_String_IndexOf_m1977622757
zXj:_il2cpp_runtime_invoke_convert_args
Jxd:_TouchInputModule_Process_m3715678669
ohi:__Z114RuntimeInvoker_Int32_t2950945753_RuntimeObject_Int32_t2950945753_Int32_t2950945753_RuntimeObject_Int32_t2950945753PFvvEPK10MethodInfoPvPS4_
kug:_ArrayList__cctor_m3052737821
r9:__ZN4core8hash_mapIiP4RTTIN11TypeManager27HashFunctorPersistentTypeIDENSt3__28equal_toIiEEE6insertERKiRKS2_
D$j:__ZN6il2cpp6icalls8mscorlib6System2IO6MonoIO11GetFileStatEP12Il2CppStringPNS3_8FileStatEPi
Mjb:__ZN9GfxDevice33InsertCustomMarkerCallbackAndDataEPFviPvEiS0_j
SZb:__ZNK9ShaderLab9IntShader6GetTagE11ShaderTagIDb
v3b:__Z25CalculateShadowCasterCullbPK5PlaneRK10Matrix4x4fRK8Vector3fff9LightTypeS7_R16ShadowCasterCullPKb
iqa:__ZN9Scripting11UnityEngine8EnumInfo12CleanupProxyEv
ged:__ZN2UI14CanvasRenderer11SetMaterialEP8Materiali
oUg:_String__ctor_m229724522
W0d:__ZL54AssemblyName_t270931938_CustomAttributesCacheGeneratorP21CustomAttributesCache
VJa:__ZNK13RenderTexture37IsBoundMultisampledOnSecondaryTextureEv
Zek:_GC_freehblk
B3i:_X509ExtensionCollection__ctor_m551870633
Qsc:__ZZL31RegisterRectTransformPropertiesR22GenericPropertyBindingEN32Wrapper_RectTransformAnchorMinx013GetFloatValueEPv
h9f:_MethodBuilder_MakeGenericMethod_m2175748754
Q$b:__Z28RenderSceneShaderReplacementRK13dynamic_arrayI16RenderObjectDataLj0EERK19SharedRendererSceneP6ShaderRKN4core12basic_stringIcNS9_20StringStorageDefaultIcEEEER17ShaderPassContext
Eaj:_QuickSearch_Search_m3063517397
qQf:_Enumerator_Reset_m2443320674_gshared
J7c:_ft_var_get_value_pointer
Ed:_glClearColor
RYe:_GameObject__ctor_m1350607670
Eqg:_AsyncCallback_Invoke_m3156993048
m7b:__ZNK6Camera48AreVRStereoViewMatricesWithinSingleCullToleranceEv
Bz:__ZN7mecanim5human25HumanPoseAddAdditiveLayerERNS0_9HumanPoseERKS1_fRKNS_6bitsetILj83EEE
Wyk:_glGetRenderbufferParameteriv__wrapper
NSh:_SymmetricTransform_FinalDecrypt_m1677319445
IGg:_Int32_Equals_m3996243976_AdjustorThunk
thc:__ZN24GenerateTypeTreeTransfer8TransferINSt3__26vectorIN9ShaderLab20SerializedSubProgram12UAVParameterENS1_9allocatorIS5_EEEEEEvRT_PKc17TransferMetaFlags
nc:invoke_iiiiiiiiiiiiiii
T9j:__ZN6il2cpp2os6Thread33UnregisterCurrentThreadForCleanupEv
wBk:_emscripten_glIsRenderbuffer__wrapper
i3c:_otv_Coverage_get_first
ubd:__ZN2UI11CanvasGroup8TransferI19StreamedBinaryWriteILb0EEEEvRT_
yJg:_DirectoryInfo__ctor_m1000259829
LAa:__ZNK20IntermediateRenderer8GetLayerEv
uAg:_CultureInfo_ConstructInvariant_m3774343375
WXb:__ZN10Instancing10SetKeywordER16ShaderKeywordSetNS_7KeywordE
CTa:__ZN15QualitySettings8TransferI14SafeBinaryReadEEvRT_
Epg:_Array_ClearInternal_m532048538
O_g:_DateTime__ctor_m12900168
Dbi:_IndexedSet_1_Insert_m1432638049_gshared
E0f:_MulticastDelegate_GetInvocationList_m4256593605
pKi:_Array_FindLast_TisRuntimeObject_m1088586648_gshared
Qgf:_Mask_GetModifiedMaterial_m2692272647
Pid:__ZN9Scripting11UnityEngine14RemoteSettings12CleanupProxyEv
iEc:__Z44Register_UnityEngine_RenderTexture_get_widthv
BVe:_CullingGroup_t2096318768_marshal_pinvoke_back
f4j:__ZNSt3__26vectorIN6il2cpp2vm5Image20EmbeddedResourceDataENS_9allocatorIS4_EEE21__push_back_slow_pathIS4_EEvOT_
ikk:__ZN6il2cpp2os9FastMutexD2Ev
Qsk:dynCall_viiiiiif
Rhj:_GUIUtility_EndGUIFromException_m3524906492
g4e:_Rect_get_yMax_m743455479
Kcj:_Expression_GetFixedWidth_m945658
hUi:_List_1_RemoveAll_m818254423_gshared
pdj:_Literal_Compile_m2228022079
VJb:__ZN14dynamic_bitset6resizeEjb
T7c:_tt_property_get
$9g:_Array_InternalArray__ICollection_Contains_TisSlot_t3975888750_m58971838_gshared
oZ:__ZN11UnityEngine15CloudWebService10RestClientINS0_23WebRequestRestHeaderMapEE7SetDataEPKhj
iE:__ZN7mecanim8skeleton16SkeletonPoseCopyIN4math4trsXES3_EEvPKNS0_13SkeletonPoseTIT_EEPNS4_IT0_EE
WCj:__ZN14dense_hash_mapI10KeyWrapperIPK11Il2CppClassEPKcN6il2cpp5utils11PointerHashIS1_EENS4_14EqualsComparerINSt3__28equal_toIS3_EEEENSC_9allocatorINSC_4pairIKS4_S6_EEEEE15set_deleted_keyERSI_
hhb:__ZN9GfxDevice34SetStencilRefWhenStencilWasSkippedEi
wfg:_X509Certificate2_Reset_m3988214799
mc:invoke_fi
_ik:__ZN6il2cpp6icalls8mscorlib6System10Reflection4Emit11TypeBuilder20create_runtime_classEP27Il2CppReflectionTypeBuilderS7_
HQc:__ZL17Transfer_GUIStyleI8JSONReadLb1EEvRK29SerializationCommandArgumentsR31RuntimeSerializationCommandInfo
h2:__ZL21InternalAssertConsolePKcz
kc:invoke_ff
eSh:_RSAManaged_add_KeyGenerated_m3688329863
VQf:_Enumerator_get_CurrentKey_m3735262888_gshared
aRe:_HashAlgorithm_TransformFinalBlock_m3005451348
GEg:_Guid_NewGuid_m923091018
xd:_emscripten_glVertexAttrib3f
MQj:__ZN30dense_hashtable_const_iteratorINSt3__24pairIK10KeyWrapperINS1_IPK11Il2CppImageP11Il2CppClassEEEjEES9_17ReflectionMapHashIS8_EN14dense_hash_mapIS9_jSD_NS9_14EqualsComparerINS0_8equal_toIS8_EEEENS0_9allocatorISB_EEE9SelectKeyESI_SK_EppEv
Odk:__ZThn8_N6il2cpp2vm13CachedCCWBaseINS0_13ManagedObjectEE7DestroyEv
hOg:_RSAPKCS1SignatureDeformatter_SetKey_m614724234
Klh:_UnicodeEncoding_GetByteCount_m3498858619
m9g:_Enum_ToObject_m26687919
Jai:_UnityEvent_1_FindMethod_Impl_m555893253_gshared
cYc:__ZN20TextRenderingPrivate8TextMesh11ApplyToMeshEv
fbh:_Array_InternalArray__ICollection_Remove_TisSlot_t384495010_m635565498_gshared
Ouk:_emscripten_glDrawRangeElements__wrapper
yza:__Z28scripting_class_is_valuetype17ScriptingClassPtr
Bna:__ZN9Scripting11UnityEngine9Rendering13CommandBuffer9InitProxyEv
Ycc:__ZNSt3__25dequeI10InputEventNS_9allocatorIS1_EEE19__add_back_capacityEv
pQb:__ZL18ProgramUniform3uivPK7ApiGLESjiihPKv
u8i:_RijndaelTransform_Encrypt128_m1940909042
q$f:_MonoEnumInfo_get_Cache_m752167006
aed:__Z47CanvasRenderer_Set_Custom_PropHasPopInstructionP12Il2CppObjecth
v$e:_Mesh_get_uv3_m3614955461
ASa:__ZN5Image8SetImageEii13TextureFormatb
A8:__ZN17MessageIdentifier21GetRegisteredMessagesEv
L7j:__ZN6il2cpp2vm5Array3NewEP11Il2CppClassj
MFf:_InternalEnumerator_1_get_Current_m3900374024_gshared
Q8i:_DelegatePInvokeWrapper_CostDelegate_t1722821004
lwg:_SynchronizedArrayListWrapper_CopyTo_m2886332653
dag:_HybridDictionary_Remove_m2295600623
U2j:__GLOBAL__sub_I_Image_cpp
iPg:_SHA512Managed__ctor_m330347986
KNa:__ZNSt3__27__sort5IRPFbRKNS_4pairIN9ShaderLab16FastPropertyNameEfEES6_EPS4_EEjT0_SB_SB_SB_SB_T_
bF:__ZN11UnityEngine9Animation23SetMotionXProperyValuesERKNS0_30AnimatorGenericBindingConstantERKN7mecanim9animation14AvatarConstantERKNS5_12AvatarOutputE15TransformAccessy
sw:__ZN7mecanim9animation17GetClipCurveCountERKNS0_18ClipMuscleConstantE
Pkk:__ZNSt3__26vectorINS_12basic_stringIDsNS_11char_traitsIDsEENS_9allocatorIDsEEEENS4_IS6_EEE8__appendEj
NOh:_Kernel_LeftShift_m3302851050
dbk:__ZN14dense_hash_mapI10KeyWrapperIPK19Il2CppGenericMethodEP10MethodInfoN6il2cpp8metadata23Il2CppGenericMethodHashENS4_14EqualsComparerINS8_26Il2CppGenericMethodCompareEEENSt3__29allocatorINSD_4pairIKS4_S6_EEEEE15set_deleted_keyERSG_
Lrb:__Z29Transfer_Blittable_ArrayFieldI14SafeBinaryRead4AABBEvRT_R9ArrayInfoRK23StaticTransferFieldInfo
QRc:__ZN8JSONRead21TransferSTLStyleArrayI13dynamic_arrayI8Vector4fLj0EEEEvRT_17TransferMetaFlags
Qhd:__ZN14UnityAnalytics15SendCustomEventEPN11UnityEngine9Analytics15UserCustomEventE
Myf:_RecordProtocol_SendRecord_m515492272
NRd:_ConfigHandler_ReadProvider_m3620509535
xzj:_UnityAnalyticsHandler_Internal_Destroy_m2102025341
Axe:__ZL56g_UnityEngine_UI_Assembly_CustomAttributesCacheGeneratorP21CustomAttributesCache
l3f:_Random__ctor_m4122933043
ooc:__Z46Register_UnityEngine_RectOffset_get_horizontalv
rOa:__ZN18DelayedCallManager8ClearAllEv
Nei:__Z180RuntimeInvoker_RuntimeObject_RuntimeObject_Int32_t2950945753_RuntimeObject_Int32U26_t1369213839_BooleanU26_t4125257963_BooleanU26_t4125257963_Int32U26_t1369213839_SByte_t1669577662PFvvEPK10MethodInfoPvPS4_
CFc:__Z22Mesh_CUSTOM_HasChannelP12Il2CppObject30InternalScriptingShaderChannel
Mqf:_ASN1Convert_ToInt32_m2228176117
Ovj:_CanvasGroup_get_interactable_m1362547832
Q4b:__ZNK25RenderPrePassObjectSorterclERK16RenderObjectDataS2_
OOd:_ResourceSet_Dispose_m1823973062
FMf:_InternalEnumerator_1_System_Collections_IEnumerator_get_Current_m3537550566_AdjustorThunk
Qzb:__Z22TransferField_NonArrayI18StreamedBinaryReadILb1EE27Converter_SimpleNativeClassI8GUIStyleEEvRK23StaticTransferFieldInfoR31RuntimeSerializationCommandInfoRT0_
le:_Mix_LoadWAV_RW
gsf:_EncryptedPrivateKeyInfo__ctor_m25839594
fie:__ZL81Mesh_t3648964284_CustomAttributesCacheGenerator_Mesh_get_subMeshCount_m3992802841P21CustomAttributesCache
Ox:__ZN7mecanim6memory16MecanimAllocator8AllocateEjj
KRb:__Z13IsFloatFormat14GraphicsFormat
cBe:__ZL84GraphicRaycaster_t2999697109_CustomAttributesCacheGenerator_m_IgnoreReversedGraphicsP21CustomAttributesCache
Z8f:_MethodBuilder_Invoke_m3837446660
sC:__ZNSt3__27__sort4IRNS_6__lessIN11UnityEngine9Animation13CachedBindingES4_EEPS4_EEjT0_S8_S8_S8_T_
y1h:_ReadOnlyCollection_1_System_Collections_IList_Clear_m12445504_gshared
M5j:__ZN6il2cpp2gcL12alloc_handleEPNS0_10HandleDataEP12Il2CppObjectb
Hpa:__ZN9Scripting11UnityEngine12Experimental10PlayerLoop14Initialization9InitProxyEv
W8i:_Enumerator_MoveNext_m55255603
Ske:__ZL57SpaceAttribute_t3956583069_CustomAttributesCacheGeneratorP21CustomAttributesCache
Kdg:_WebRequest_AddDynamicPrefix_m4246631209
Ggh:_Array_InternalArray__ICollection_Add_TisRefEmitPermissionSet_t484390987_m1720891963_gshared
C9:__ZL16ReadTypeTreeImplILb1EEbR8TypeTreeRK16TypeTreeIteratorRPKhS6_i
Rjk:__ZN6il2cpp6icalls8mscorlib6System11Diagnostics10StackTrace9get_traceEP15Il2CppExceptionib
EAf:_Action_3_Invoke_m1376317295_gshared
ywh:_Dictionary_2_set_Item_m3327106492_gshared
De:_glBlendEquationSeparate
sm:_emscripten_glDeleteVertexArrays
eNb:__ZN13GfxDeviceGLES17SetComputeUniformE12ObjectHandleI18ComputeProgram_TagPvER18ComputeShaderParamjPKv
fBk:b95
zbj:_Parser_IsNameChar_m698176442
GOi:_List_1_RemoveAt_m3459335427_gshared
LAk:_emscripten_glValidateProgram__wrapper
hBc:__ZN13MeshScripting27PrintErrorCantAccessChannelEPK4Mesh30InternalScriptingShaderChannel
iaf:_Vector3_get_sqrMagnitude_m1474274574_AdjustorThunk
M4i:_GeneralNames_ToString_m489778282
Ke:_emscripten_glUniform3fv
Kah:_Array_InternalArray__ICollection_Contains_TisRaycastHit2D_t2279581989_m2733133723_gshared
IZg:_Convert_ToByte_m1442000130
INg:_RSACryptoServiceProvider_get_KeySize_m2654153358
y0j:__ZN6il2cpp2vm9Exception20GetArgumentExceptionEPKcS3_
BSc:__Z29Transfer_Blittable_ArrayFieldI8JSONReadiEvRT_R9ArrayInfoRK23StaticTransferFieldInfo
$Jh:_Enumerator_MoveNext_m625797905_AdjustorThunk
mHi:_Array_Resize_TisCustomAttributeTypedArgument_t2723150157_m3021884250_gshared
Vyk:_glDrawArrays__wrapper
_V:__ZN9AudioClip27IsFormatSupportedByPlatformERKN4core12basic_stringIcNS0_20StringStorageDefaultIcEEEE
amb:__ZN16GeometryJobTasks20ScheduleGeometryJobsER9GfxDevicePFvP15GeometryJobDataEPK22GeometryJobInstructionjb
ghc:__ZN9ShaderLab26SerializedShaderDependency8TransferI24GenerateTypeTreeTransferEEvRT_
Q8h:_InvokableCall_3_Invoke_m3141788616_gshared
jaj:_PatternCompiler_EmitUntil_m3644194775
i4c:_UNITY_FT_Match_Size
jy:__ZN7mecanim20CreateValueArrayMaskEPKNS_18ValueArrayConstantERNS_6memory9AllocatorE
tRh:_KeyPairPersistence_ToXml_m812591779
P$f:_MonoType_GetFields_internal_m776921855
ikd:__ZN11UnityEngine7Connect14AppUpdateEventC2Ev
jOd:_ResourceReader_Dispose_m3597121875
fza:__ZN12ImageFilters17RemoveImageFilterERK11ImageFilter
oTe:_BootConfigData__ctor_m4255151374
K2e:_PlayerConnectionInternal_UnityEngine_IPlayerEditorConnectionNative_RegisterInternal_m1817895617
JCf:_InternalEnumerator_1_get_Current_m3073360606_AdjustorThunk
Idk:__ZThn4_N6il2cpp2vm13ManagedObject14QueryInterfaceERK10Il2CppGuidPPv
Njb:__ZN9GfxDevice31InsertCustomBlitCallbackAndDataEPFviPvER33UnityRenderingExtCustomBlitParams
MUb:__Z32AddPathRemapsForBuiltinResourcesRKN4core12basic_stringIcNS_20StringStorageDefaultIcEEEE
TGa:__ZN14RenderSettings23VirtualRedirectTransferER24GenerateTypeTreeTransfer
btb:__ZL26Transfer_SimpleNativeClassI17RemapPPtrTransfer17AnimationCurveTplIfELb0EEvRK29SerializationCommandArgumentsR31RuntimeSerializationCommandInfo
Zsi:__Z82RuntimeInvoker_Single_t1397266774_RuntimeObject_TextGenerationSettings_t1351628751PFvvEPK10MethodInfoPvPS4_
Hbf:_InputField_set_caretWidth_m707310868
um:_glDeleteTransformFeedbacks
S5h:_U3CCreateWhereIteratorU3Ec__Iterator1D_1_MoveNext_m612748497_gshared
pf:_JS_WebRequest_Send
Sdk:__ZN6il2cpp2os4Time31GetTicks100NanosecondsMonotonicEv
Gak:__ZNSt3__26__treeINS_12basic_stringIcNS_11char_traitsIcEENS_9allocatorIcEEEENS_4lessIS6_EENS4_IS6_EEE16__construct_nodeIJRKS6_EEENS_10unique_ptrINS_11__tree_nodeIS6_PvEENS_22__tree_node_destructorINS4_ISH_EEEEEEDpOT_
xJg:_MonoIO_GetFileSystemEntries_m37351365
l1g:_Convert_ToSByte_m516918950
txk:_emscripten_glGenRenderbuffers__wrapper
r0e:_MonoBehaviour_print_m330341231
H5e:_ReapplyDrivenProperties_Invoke_m1151937880
t8i:_RijndaelTransform_ECB_m670662322
fJj:__ZN6il2cpp2vm13MetadataCache21GetFieldInfoFromIndexEj
Wte:__ZL62EventType_t3528516131_CustomAttributesCacheGenerator_mouseDragP21CustomAttributesCache
rrg:_Boolean_System_IConvertible_ToDouble_m2859188631_AdjustorThunk
kX:__ZN5physx14PxLightCpuTaskD2Ev
Oq:__ZNSt3__26vectorIN4core12basic_stringIcNS1_20StringStorageDefaultIcEEEENS_9allocatorIS5_EEE6assignINS_11__wrap_iterIPS5_EEEENS_9enable_ifIXaasr21__is_forward_iteratorIT_EE5valuesr16is_constructibleIS5_NS_15iterator_traitsISE_E9referenceEEE5valueEvE4typeESE_SE_
a6e:_Vector2_get_zero_m540426400
aWj:_il2cpp_init
Hji:__Z105RuntimeInvoker_RuntimeObject_RuntimeObject_StreamingContext_t3711869237_ISurrogateSelectorU26_t3801502798PFvvEPK10MethodInfoPvPS4_
ebd:__ZNSt3__26__treeIPN2UI14CanvasRendererENS_4lessIS3_EENS_9allocatorIS3_EEE7destroyEPNS_11__tree_nodeIS3_PvEE
O$b:__ZL25UpdateCameraDepthTexturesRK17RenderLoopContextP13RenderTextureS3_RK13dynamic_arrayI16RenderObjectDataLj0EEbbbR17ShaderPassContext
iMb:__ZN13GfxDeviceGLES22UploadTextureSubData2DE9TextureIDPKhiiiiii14GraphicsFormat
LNf:_DefaultComparer_Compare_m3648806637_gshared
ZGc:__Z35Register_UnityEngine_Screen_get_dpiv
TQc:__ZN8JSONRead8TransferIxEEvRT_PKc17TransferMetaFlagsb
iWc:__ZN13SpeedTreeWind7AdvanceEbd
ZDf:_InternalEnumerator_1_get_Current_m923139215_AdjustorThunk
sGj:__ZN15dense_hashtableINSt3__24pairIK10KeyWrapperIN6il2cpp5utils13dynamic_arrayIPK10Il2CppTypeLj4EEEEPFvvEEESA_NS3_8metadata19Il2CppSignatureHashEN14dense_hash_mapISA_SD_SG_NSA_14EqualsComparerINSF_22Il2CppSignatureCompareEEENS0_9allocatorISE_EEE9SelectKeyESK_SM_E12expand_arrayEjN21dense_hash_map_traits17integral_constantIbLb0EEE
ueh:_Array_FindLastIndex_TisRuntimeObject_m2929523835_gshared
Rpc:__ZN9Transform16SetLocalPositionERK8Vector3f
Edc:__ZN10BootConfig4Data12InitFromFileEPPKcjS2_
WSc:__ZL62__ManagedRegistrationHelperFunction_ParticleSystemVertexStreamPv
DO:__ZN12SoundManagerC2Ev
S3c:_UNITY_tt_face_free_name
lH:__ZNSt3__26__sortIRNS_6__lessI4PPtrI13AnimationClipES4_EEPS4_EEvT0_S8_T_
Z$c:_cff_random
LQb:__ZN14DataBufferGLES3MapEjjj
Co:FUNCTION_TABLE_fidi
Rja:__ZL77__ManagedRegistrationHelperFunction_NativeContainerIsAtomicWriteOnlyAttributePv
QBf:_ArrayReadOnlyList_1_Contains_m2459654648_gshared
wNa:__ZN18UnityPropertySheet11UnityTexEnv8TransferI19StreamedBinaryWriteILb0EEEEvRT_
Pxa:__ZNK6Camera33CalculateFarPlaneWorldSpaceLengthEv
Jsd:_BaseInput_GetButtonDown_m3789908809
GTi:_List_1_System_Collections_IList_Insert_m2401407093_gshared
R6f:_EnumBuilder_get_BaseType_m1707640163
KQj:__ZNK15dense_hashtableINSt3__24pairIK10KeyWrapperINS1_IPK11Il2CppImageP11Il2CppClassEEEjEES9_17ReflectionMapHashIS8_EN14dense_hash_mapIS9_jSD_NS9_14EqualsComparerINS0_8equal_toIS8_EEEENS0_9allocatorISB_EEE9SelectKeyESI_SK_E5beginEv
L$c:_cf2_stack_setReal
JJ:__ZL60__ManagedRegistrationHelperFunction_MeshReconstructionConfigPv
y0:__GLOBAL__sub_I_Runtime_Graphics_3_cpp
LL:__ZN4FMOD3DSP8getInputEiPPS0_PPNS_13DSPConnectionE
NR:__ZN11SoundHandle8Instance13CreateChannelERS_b
p2f:_NumberFormatter_NumberToString_m2529982306
YS:__ZN13AudioListenerD2Ev
U9c:_UNITY_FT_Done_Library
bkk:__ZN6il2cpp2os5MutexC2Eb
D5i:_PKCS12__cctor_m3271060407
gPf:_Comparer_1__cctor_m2282308543_gshared
Cfd:__ZN2UI13CanvasManager17EmitDataForCameraEP6Camera
brf:_ARC4Managed_CheckInput_m1562172012
UIh:_Enumerator_MoveNext_m4018122760_gshared
rzj:_CustomEventData_Dispose_m4023815755
n3i:_TlsStream_ReadBytes_m2334803179
dGc:__Z44Register_UnityEngine_Material_GetTextureImplv
f3h:_ReadOnlyCollection_1_System_Collections_IList_Add_m2445024939_gshared
UVe:_Debug_Log_m4051431634
kzk:_glUniform3uiv__wrapper
wKg:_FileStream_EndRead_m3904255625
cHb:__ZL8MainLoopv
blc:__ZN17TransformInternal25CopyTransformSubhierarchyER18TransformHierarchyjS1_yyjb
dse:__ZL59AnimatorStateInfo_t509032636_CustomAttributesCacheGeneratorP21CustomAttributesCache
kUd:_CallContextRemotingData_Clone_m14303327
Ned:__Z47Register_UnityEngine_CanvasRenderer_SetMaterialv
yBk:_emscripten_glIsShader__wrapper
STc:__ZN11UnityEngine9Analytics16StartupTimeEvent23SetAssembliesTimingInfoEyy
Brc:__Z45Register_UnityEngine_Input_GetMouseButtonDownv
NQh:_DSAManaged_get_PublicOnly_m3575594967
sLa:__ZN9ShaderLabL15GetSizedTextureEPK6CameraRKNS_16FastPropertyNameEbbRb
rad:__Z26CleanupTextRenderingModulev
urd:__GLOBAL__sub_I_artifacts_WebGL_codegenerator_0_cpp_7676
eT:__ZN13AudioListener23VirtualRedirectTransferER24GenerateTypeTreeTransfer
fcb:__ZNK12HandlerChain9EnumerateEPKcP19dynamic_block_arrayI13FileEntryInfoLj32EEbPPv19FileEnumerationFlag
h1a:__ZThn32_N12MeshRendererD1Ev
BJa:__ZN13RenderTexture23VirtualRedirectTransferER19StreamedBinaryWriteILb0EE
Lck:__ZN6il2cpp2vm13ComObjectBase17GetMarshalSizeMaxERK10Il2CppGuidPvjS5_jPj
epk:_truncate
Vhc:__ZN9ShaderLab27SerializedShaderVectorValue8TransferI18StreamedBinaryReadILb0EEEEvRT_
BUa:__ZN8Renderer21RendererBecameVisibleEv
Bnb:__ZN10Instancing11DrawAPIArgsD2Ev
r4:__ZN10MemoryPool16StaticInitializeEPv
dga:__ZN11TypeManager21CleanupGlobalInstanceEv
v9g:_Enum_ToString_m2240012010
N:Math_atan
xa:invoke_iifii
MN:__ZNK10SampleClip11GetResourceEv
cLd:_MonoEvent_get_Name_m3774595291
phb:__ZN9GfxDevice15GetStereoMatrixE21MonoOrStereoscopicEye24BuiltinShaderMatrixParamR10Matrix4x4f
Web:__ZN4core12basic_stringIcNS_20StringStorageDefaultIcEEE6resizeEj
LIc:__Z43Register_UnityEngine_Event_set_displayIndexv
LUc:__GLOBAL__sub_I_CmEventProfiler_cpp
xsi:__Z128RuntimeInvoker_RuntimeObject_RuntimeObject_SByte_t1669577662_SByte_t1669577662_SByte_t1669577662_SByte_t1669577662_RuntimeObjectPFvvEPK10MethodInfoPvPS4_
Ulh:_UnicodeEncoding_GetMaxByteCount_m3053620432
STd:_ArgInfo__ctor_m1950205784
d6h:_Nullable_1_Equals_m4046255732_AdjustorThunk
dwa:__ZN17GlobalGameManager23VirtualRedirectTransferER24GenerateTypeTreeTransfer
Ald:__ZN19UnityConnectServiceD0Ev
jlj:_ToggleGroup_ValidateToggleIsInGroup_m3201190739
aNj:__ZN6il2cpp2vm7Runtime17GetDelegateInvokeEP11Il2CppClass
vMd:_MonoProperty_get_PropertyType_m4138957578
L0:___cxx_global_var_init_123
Wkd:__ZN11UnityEngine15PlatformWrapper21GetCopyTextureSupportEv
F3g:_DateTime_get_Month_m1566006993_AdjustorThunk
H9g:_Array_get_swapper_TisRaycastResult_t3360306849_m1267000905_gshared
Lzf:_SslClientStream__ctor_m3478574780
EV:__ZN11AudioModule27IsFormatSupportedByPlatformEPKc
NYc:_UNITY_FT_Render_Glyph
Otd:_EventSystem_OnDisable_m3820258344
UQa:__ZN9Texture2D5ResetEv
tSc:__Z19TransferField_ArrayI8JSONRead16Converter_StringEvRK23StaticTransferFieldInfoR31RuntimeSerializationCommandInfoRT0_
PRe:_MACTripleDES_Setup_m560957914
pvc:__ZZN10MeshFilter15InitializeClassEvEN31FunctorImpl_108kDidAddComponent4CallEPviR11MessageData
RGj:__ZN15dense_hashtableINSt3__24pairIK10KeyWrapperIPK19Il2CppGenericMethodEPK26Il2CppGenericMethodIndicesEES6_N6il2cpp8metadata23Il2CppGenericMethodHashEN14dense_hash_mapIS6_SA_SE_NS6_14EqualsComparerINSD_26Il2CppGenericMethodCompareEEENS0_9allocatorISB_EEE9SelectKeyESI_SK_E6insertERKSB_
Z4b:__Z19SetupShadowCullDataRK27ScriptableCullingParametersRK17ShaderReplaceDataPK22SceneCullingParametersf16ShadowProjectionR14ShadowCullData
Wma:__ZN9Scripting11UnityEngine14UnityException12CleanupProxyEv
S_c:_cff_size_request
gLa:__ZN15DirectorManager14ConnectionPool12SwitchBucketEP14ConnectionList
xcd:__ZN2UI11CompareFuncEPNS_6CanvasES1_
qN:__ZN4FMOD7Channel11set3DSpreadEf
xkk:__ZN6il2cpp2os6Memory14AlignedReAllocEPvjj
W:Math_fround
G8c:_pshinter_get_t1_funcs
UPa:__ZN24GenerateTypeTreeTransfer16TransferTypelessEPjPKc17TransferMetaFlags
Ifh:_Array_InternalArray__IndexOf_TisPlayableBinding_t354260709_m3544096311_gshared
tPg:_SHA512Managed_processLength_m2162821715
qQb:__ZL18ProgramUniform4uivPK7ApiGLESjiihPKv
E3e:_Vector3_get_normalized_m2454957984
Wnh:_Mutex_CreateMutex_internal_m3763633491
yDe:__ZL74SpriteState_t1362986479_CustomAttributesCacheGenerator_m_HighlightedSpriteP21CustomAttributesCache
Rm:FUNCTION_TABLE_viiiiiiiiiiiiiii
KAc:__ZNK4Mesh19CanAccessFromScriptEv
zsa:__ZN17PersistentManager43LocalSerializedObjectIdentifierToInstanceIDERK31LocalSerializedObjectIdentifierRiNS_9LockFlagsE
d4:__Z15GetGraphicsCapsv
_Rb:__ZN7ApiGLES15BindVertexArrayEN2gl6HandleILNS0_10ObjectTypeE3EEE
bxh:_Dictionary_2_System_Collections_IDictionary_Remove_m316877720_gshared
J_b:__Z20IntersectionAABBAABBRK10MinMaxAABBS1_PS_
Zsc:__ZZL31RegisterRectTransformPropertiesR22GenericPropertyBindingEN32Wrapper_RectTransformSizeDeltax013SetFloatValueEPvf
A2i:_SslStreamBase_get_SecurityProtocol_m596101988
HVj:__ZNSt3__212basic_stringIcNS_11char_traitsIcEENS_9allocatorIcEEE6__initIPKcEENS_9enable_ifIXsr21__is_forward_iteratorIT_EE5valueEvE4typeESA_SA_
njc:__ZN9ShaderLab20SerializedSubProgram14AddMatrixParamEPKcii15ShaderParamTypei
Ini:__Z121RuntimeInvoker_Void_t1185182177_Int32_t2950945753_Int32_t2950945753_Int32_t2950945753_Int32_t2950945753_Int32_t2950945753PFvvEPK10MethodInfoPvPS4_
R7c:_ft_var_load_item_variation_store
Tkg:_DeriveBytes_set_Salt_m441577179
dbi:_UnityEvent_3_FindMethod_Impl_m1640458315_gshared
X$d:__ZL61ConstructorBuilder_t2813524108_CustomAttributesCacheGeneratorP21CustomAttributesCache
nbd:__ZN2UI11CanvasGroup23VirtualRedirectTransferER24GenerateTypeTreeTransfer
oob:__Z18Transfer_BlittableI14SafeBinaryReadLb1EhEvRK29SerializationCommandArgumentsR31RuntimeSerializationCommandInfo
pof:_Text_get_verticalOverflow_m2420459396
Tga:__ZNSt3__224__buffered_inplace_mergeIRNS_4lessIN4core12basic_stringIcNS2_20StringStorageDefaultIcEEEEEENS_11__wrap_iterIPS6_EEEEvT0_SC_SC_T_NS_15iterator_traitsISC_E15difference_typeESG_PNSF_10value_typeE
u_d:__ZL51HashKeys_t1568156503_CustomAttributesCacheGeneratorP21CustomAttributesCache
v_b:__ZNK6Camera19GetStereoSeparationEv
t6:__Z22DestroyObjectHighLevelP6Objectb
SPe:_KeySizes__ctor_m3113946058
b$b:__Z26BeginRenderQueueExtractionR15RenderNodeQueuePK16RendererCullDataRK13CullingOutputPK12LODDataArray15ExtractionFlagsP18JobBatchDispatcher
uYc:__ZNK13TextRendering4Font10GetTextureEv
nj:_emscripten_glVertexAttrib3fv
RTd:_LifetimeServices__cctor_m2128864873
E6e:_ScriptableObject_CreateScriptableObjectInstanceFromType_m2783367459
eth:_UInt16_TryParse_m3193697465
d$j:__ZN6il2cpp6icalls8mscorlib6System9Threading6Thread16SetName_internalEP12Il2CppThreadP12Il2CppString
rj:_glBeginTransformFeedback
O6g:_Decimal_op_Division_m2407964042
pcf:_InputField_get_asteriskChar_m965956856
_Ha:__ZN18JobBatchDispatcherC2E11JobPriorityi
XQe:_HashAlgorithm_Create_m644612360
U1e:_Playable_get_Null_m3556999077
oOh:_BigInteger_TestBit_m1507066813
ZIc:__ZN8GUIStyle14GetBuiltinFontEv
ojb:__ZN9GfxDevice13EndFrameStatsEv
ewc:__Z7Empty2DP9Texture2DPhiiii
ZFi:_Array_InternalArray__set_Item_TisRefEmitPermissionSet_t484390987_m3786305619_gshared
ptj:_DisplayBuffer_GetAllDisplayLines_m956916978
sYj:__ZN6il2cpp2vm6Thread16RequestInterruptEP12Il2CppThread
OK:__ZL34StaticDestroyAudioCustomFilterRootPv
Xna:__ZN9Scripting11UnityEngine9Profiling7Sampler9InitProxyEv
h9a:__ZN19ComputeShaderKernelD2Ev
k_a:__ZN10DynamicVBO9DrawChunkERK21DynamicVBOChunkHandleP17VertexDeclarationPKNS_10DrawParamsEi
oBj:__ZN6il2cpp2vmL17SetupEventsLockedEP11Il2CppClassRKNS_2os12FastAutoLockE
opc:__ZN10systeminfo21GetTemporaryCachePathEv
Cjj:_AnalyticsEventTracker_Start_m1087627554
Rdk:__ZN6il2cpp2os4Time29GetTicksMillisecondsMonotonicEv
UFd:_GridLayoutGroup_CalculateLayoutInputVertical_m357562599
qnh:_CompressedStack_Capture_m3327262890
olh:_StringBuilder_Replace_m1968561789
w9a:__ZN12ScriptMapper8TransferI14SafeBinaryReadEEvRT_
Iub:__Z18Transfer_BlittableI24GenerateTypeTreeTransferLb1E10Matrix4x4fEvRK29SerializationCommandArgumentsR31RuntimeSerializationCommandInfo
_wd:_StandaloneInputModule_get_repeatDelay_m1143359059
dnh:_UTF8Encoding_GetMaxByteCount_m420651053
$re:__ZL73AnimationMotionXToDeltaPlayable_t272231551_CustomAttributesCacheGeneratorP21CustomAttributesCache
QOc:__ZN9JSONWrite8TransferI10Matrix4x4fEEvRT_PKc17TransferMetaFlags
v0c:_cf2_hintmap_map
Y3g:_DateTime_Compare_m2855073242
POi:_List_1_get_Item_m1651423686_gshared
frh:_Type_get_IsExplicitLayout_m1182254884
wrb:__ZN15SerializeTraitsI5RectTIfEE8TransferI14SafeBinaryReadEEvRS1_RT_
Dkh:_UnicodeEncoding__ctor_m3604373700
dEc:__Z41Register_UnityEngine_Texture_get_wrapModev
WZc:_UNITY_FT_Raccess_Get_DataOffsets
Czc:__ZN14PlayableOutputC2EjP13PlayableGraph
RUa:__ZThn32_NK8Renderer11GetMaterialEi
HAd:_ContentSizeFitter_get_rectTransform_m3297799590
kek:__ZN6il2cpp6icalls8mscorlib6System7Runtime15InteropServices8GCHandle15GetTargetHandleEP12Il2CppObjectii
wUe:_CameraCallback_Invoke_m3308824940
W1a:__ZN9InputAxis8TransferI18StreamedBinaryReadILb0EEEEvRT_
OQg:_X509Certificate_Import_m3563119820
k1:__ZN13MemoryManager12GetAllocatorE10MemLabelId
cpf:_BigInteger_ToString_m3260066955
ghb:__ZN9GfxDevice29GetMinimumNodesPerGraphicsJobEv
tge:__ZL63RuntimePlatform_t4159857903_CustomAttributesCacheGenerator_NaClP21CustomAttributesCache
e5h:_Func_1_Invoke_m370346740_gshared
Yrc:__Z13RegisterClassI4MeshEvPKc
yqb:__ZN14SafeBinaryRead8TransferIyEEvRT_PKc17TransferMetaFlags
Pmf:_Slider__ctor_m873361617
LYf:_SynchronizedWriter__ctor_m495278869
bqc:__ZN2UI13RectTransform13GetWorldSpaceER8Vector3fR8Vector2f
EPd:_GCHandle__ctor_m2690474163_AdjustorThunk
lfa:__ZN15DirectorManager17OnSampleFixedTimeEv
B6b:__ZNK13RendererScene21GetDynamicObjectCountEv
S$g:_Double_Parse_m1135962389
C3i:_X509Extension__ctor_m710637961
kBg:_CultureInfo_get_CurrentCulture_m1632690660
HRh:_PKCS1_OS2IP_m65970018
Dk:_Mix_HaltMusic
t$h:_ReadOnlyCollection_1_System_Collections_IList_set_Item_m70952451_gshared
p4a:__ZNSt3__26vectorIN30RuntimeInitializeOnLoadManager9ClassInfoE13stl_allocatorIS2_L18MemLabelIdentifier13ELi16EEE8__appendEj
ovb:__ZN24GenerateTypeTreeTransfer32TransferSTLStyleArrayWithElementI23ManagedObjectTransfererEEvRT_17TransferMetaFlags
Rak:__ZN6il2cpp6icalls8mscorlib6System11Environment12get_PlatformEv
acg:_HttpWebRequest__cctor_m1467954389
Ruf:_CipherSuiteCollection_System_Collections_IList_Remove_m2463347416
KZe:_DefaultValueAttribute_GetHashCode_m3368187153
Dag:_DictionaryNodeEnumerator_get_Value_m1345533116
mTc:__ZN27PerformanceReportingManager19ConfigChangedStaticEPS_RKN4core12basic_stringIcNS1_20StringStorageDefaultIcEEEER8JSONReadb
smc:__Z42Register_UnityEngine_Behaviour_get_enabledv
i2i:_SslStreamBase_EndNegotiateHandshake_m1124299797
U1i:_SslStreamBase__ctor_m3009266308
OUj:__ZN6il2cpp2vm14TypeNameParser23ParseNestedTypeOptionalERi
R5a:__ZN17PersistentManager22CheckInstanceIDsLoadedEPiiNS_9LockFlagsE
hkk:__ZN6il2cpp2os13FastMutexImplC2Ev
jPd:_RuntimeHelpers_InitializeArray_m4077124945
L_e:_Mathf_Repeat_m1502810009
kpf:_BigInteger_op_Equality_m1194739960
Amh:_UTF7Encoding_GetCharCount_m2792854727
TJ:__ZN9Scripting11UnityEngine2XR5Tango24MeshReconstructionConfig9InitProxyEv
D2b:__ZL13RenderCastersiRK8Vector3fS1_RK13ShadowJobDataR17ShaderPassContextRKNSt3__26vectorI16ShadowCasterData13stl_allocatorIS9_L18MemLabelIdentifier2ELi16EEEERKNS8_I20ShadowCasterPartDataSA_ISG_LSB_2ELi16EEEERK15RenderNodeQueuebPKj
nl:_emscripten_glGetShaderInfoLog
oof:_Text_get_horizontalOverflow_m4155575610
lMe:_ObjectReader_RecordFixup_m4125245357
l4c:_UNITY_ft_glyphslot_set_bitmap
DJi:_Dictionary_2_Do_ICollectionCopyTo_TisRuntimeObject_m1362949338_gshared
Cl:_glUniform1i
Xcf:_InputField_Validate_m4147207871
pIa:__ZN6prcoreL11inner_clearILj3EEEvPhjjj
eAg:_CCGregorianCalendar_dmy_from_fixed_m494173177
NRi:_List_1_System_Collections_IList_IndexOf_m3211997095_gshared
zsg:_Byte_System_IConvertible_ToUInt64_m371883985_AdjustorThunk
z6c:_Read_CVT_Stretched
eMj:__ZN6il2cpp6icalls8mscorlib6System18CollectTypeMethodsINS_5utils10functional10TrueFilterEEEvP11Il2CppClassPKS7_jRKT_RNSt3__26vectorIPK10MethodInfoNSE_9allocatorISI_EEEERA65535_b
lHb:__Z14SetPlayerPause11PlayerPauseb
Dka:__ZL48__ManagedRegistrationHelperFunction_CullingGroupPv
axg:_CollectionBase_System_Collections_ICollection_CopyTo_m2850099809
z_h:_ReadOnlyCollection_1_System_Collections_IEnumerable_GetEnumerator_m3042843502_gshared
mxd:_StandaloneInputModule_ActivateModule_m2232892298
MPd:_GCHandle_Free_m1457699368_AdjustorThunk
woh:_Thread_get_CurrentUICulture_m1397429997
j1c:_cff_done_blend
hFd:_Graphic_RegisterDirtyLayoutCallback_m1235519898
y5:__Z30scripting_stack_trace_info_for21ScriptingExceptionPtrR14StackTraceInfo
Q9e:_Vector2_op_Inequality_m3858779880
Otk:_glCompressedTexSubImage3D__wrapper
Hmf:_Selectable_Select_m1465131241
K0b:__ZN15SkyboxGenerator18GetSixFaceSkyboxVBEv
jRj:__ZN15dense_hashtableINSt3__24pairIK10KeyWrapperINS1_IPK12PropertyInfoP11Il2CppClassEEEjEES9_17ReflectionMapHashIS8_EN14dense_hash_mapIS9_jSD_NS9_14EqualsComparerINS0_8equal_toIS8_EEEENS0_9allocatorISB_EEE9SelectKeyESI_SK_EC2ERKSN_j
AM:__ZN15AudioReverbZone7CleanupEv
JTb:__ZN10BufferGLESD0Ev
TGb:__Z20scripting_gc_disablev
Oqg:_Attribute_IsDefined_m1430686743
F8i:_IntervalCollection_Optimize_m161975983
TKj:__ZN6il2cpp2vm10ThreadPool5QueueEP14Il2CppDelegatePPvS3_P12Il2CppObject
Nvh:_Version__ctor_m417728625
Jja:__ZN16memory_pool_implILi68EE15AutoPoolWrapper10InitializeEPv
NZg:_Convert_ToByte_m3567528984
a8h:_InvokableCall_1_Invoke_m3497872319_gshared
HFb:__ZN9Scripting35ErrorMessageForUnsupportedEnumFieldE17ScriptingFieldPtr
iMh:_Level2MapComparer__cctor_m1866197409
$Ab:__Z29Transfer_Blittable_ArrayFieldI18StreamedBinaryReadILb1EEfEvRT_R9ArrayInfoRK23StaticTransferFieldInfo
uia:__ZN6prcoreL26RemapGenericIntegerToFloatI17TexFormatARGB888818TexFormatARGBFloatEEvPKNS_9InnerInfoE
EPf:_Enumerator_get_CurrentKey_m2230405065_AdjustorThunk
vwg:_BitArray__ctor_m2765908219
zWg:_StringComparer_get_InvariantCultureIgnoreCase_m2404489191
huj:_Font_get_material_m1471867149
Vdk:__ZN6il2cpp6icalls8mscorlib6System7Runtime16CompilerServices14RuntimeHelpers15InitializeArrayEP11Il2CppArrayi
KSd:_Context_Freeze_m2594571993
hod:__ZZN18UnityConnectClient23RegisterGlobalCallbacksEvEN46EarlyUpdateUnityConnectClientUpdateRegistrator7ForwardEv
_hd:__ZNSt3__26__treeINS_12__value_typeIjN4core12basic_stringIcNS2_20StringStorageDefaultIcEEEEEENS_19__map_value_compareIjS7_NS_4lessIjEELb1EEE13stl_allocatorIS7_L18MemLabelIdentifier6ELi16EEE25__emplace_unique_key_argsIjJNS_4pairIjS6_EEEEENSH_INS_15__tree_iteratorIS7_PNS_11__tree_nodeIS7_PvEEiEEbEERKT_DpOT0_
mab:__ZN12ImmediatePtrI9TransformE8TransferI18StreamedBinaryReadILb0EEEEvRT_
Bhh:_Array_InternalArray__ICollection_CopyTo_TisInt32_t2950945753_m3102754797_gshared
t3e:_Quaternion_ToString_m2203056442
_5f:_ModuleBuilder_GetTokenGenerator_m4177350090
TXa:__ZN10Matrix4x4f8TransferI18StreamedBinaryReadILb0EEEEvRT_
Coh:_Thread_Start_m2860771284
GWi:_List_1_AddEnumerable_m2295992518_gshared
g_g:_DateTime_YearMonthDayFormats_m827415370
TQ:__ZN4FMOD7Channel19getReverbPropertiesEP29FMOD_REVERB_CHANNELPROPERTIES
F5b:__ZL23NormalizeRobustInternalRK8Vector3fRfS2_f
Rbf:_InputField_get_selectionColor_m2548343601
Wfh:_Array_LastIndexOf_TisRuntimeObject_m2701366436_gshared
WLj:__ZN6il2cpp6icalls8mscorlib6System8MonoType13GetInterfacesEP20Il2CppReflectionType
YZ:__ZN11UnityEngine15CloudWebService25WebRequestDownloadHandler7OnAbortEv
zXb:__ZN6Camera12CustomRenderER11CullResultsR17ShaderPassContextPK21CameraRenderingParamsNS_10RenderFlagEPNS_21PerformRenderFunctionEPFvvE
Neg:_PublicKey_GetUnsignedBigInteger_m3873409673
R9j:__ZN6il2cpp2os6Thread22SetNativeThreadCleanupEPFvPvE
gFh:_GenericEqualityComparer_1_Equals_m2669134646_gshared
VMf:_DefaultComparer_Compare_m1649892577_gshared
XNe:_RuntimeMethodHandle__ctor_m2867240657
Vih:_DecoderFallback_get_StandardSafeFallback_m2130338133
J$a:__ZN14SafeBinaryRead21TransferSTLStyleArrayI13dynamic_arrayI10BlendShapeLj0EEEEvRT_17TransferMetaFlags
cn:FUNCTION_TABLE_vdd
nub:__Z18Transfer_BlittableI24GenerateTypeTreeTransferLb1E10ColorRGBAfEvRK29SerializationCommandArgumentsR31RuntimeSerializationCommandInfo
Cha:__ZN6prcoreL17RemapGenericFloatI18TexFormatRGBAFloat16TexFormatRGFloatEEvPKNS_9InnerInfoE
vLj:__ZN6il2cpp6icalls8mscorlib6System8MonoType8get_NameEP20Il2CppReflectionType
BNh:_SimpleCollator_LastIndexOf_m2130553617
Kqb:__ZNSt3__26vectorI10RectOffset13stl_allocatorIS1_L18MemLabelIdentifier1ELi16EEE8__appendEj
FMd:_MonoProperty_GetCustomAttributes_m2723308902
Aqh:_TimeSpan_op_Equality_m1999885032
C2i:_SslStreamBase_get_ServerCertificates_m2154373069
D3j:__ZN6il2cpp2vmL29AddTypeToNametoClassHashTableEPK11Il2CppImagei
Po:FUNCTION_TABLE_ff
Ro:FUNCTION_TABLE_fi
Uja:__ZL93__ManagedRegistrationHelperFunction_NativeContainerSupportsDeallocateOnJobCompletionAttributePv
mlg:_X509Certificate_get_DSA_m1760272844
voh:_Thread_get_CurrentCulture_m349116646
ooh:_Thread_Thread_internal_m4184414727
Xrc:__Z13RegisterClassI12MeshRendererEvPKc
qd:_emscripten_glGetAttribLocation
OVb:__ZZ23InitPlayerLoopCallbacksvEN39PostLateUpdateResetInputAxisRegistrator7ForwardEv
SP:__ZN4FMOD12ChannelGroup14getParentGroupEPPS0_
ud:_emscripten_set_blur_callback
X_i:_Collection_1_IsValidItem_m1475436662_gshared
pSa:__ZNK14ImageReference9ClipImageEiiii
Yuc:__ZN4MeshC2E10MemLabelId18ObjectCreationMode
p3b:__ZN10Matrix4x4f30SetPositionAndOrthoNormalBasisERK8Vector3fS2_S2_S2_
hua:__ZN5RectTIfE8TransferI24GenerateTypeTreeTransferEEvRT_
sAd:_ColorBlock_Equals_m518833916
A7j:__ZN6il2cpp6icalls8mscorlib6System4Enum8ToObjectEP20Il2CppReflectionTypeP12Il2CppObject
g5b:__ZL30FrustumCullReflectionProbesJobP26ReflectionProbeCullJobDataj
YGi:_Array_qsort_TisUIVertex_t4057497605_m4120916435_gshared
WYb:__ZN12FlareManager6UpdateEv
u1j:__ZN6il2cpp6icalls8mscorlib6System4Type29GetGenericTypeDefinition_implEP20Il2CppReflectionType
MTc:__ZNSt3__26__treeINS_12__value_typeIN4core12basic_stringIcNS2_20StringStorageDefaultIcEEEEiEENS_19__map_value_compareIS6_S7_NS_4lessIS6_EELb1EEE13stl_allocatorIS7_L18MemLabelIdentifier1ELi16EEE25__emplace_unique_key_argsIS6_JNS_4pairIKS6_iEEEEENSH_INS_15__tree_iteratorIS7_PNS_11__tree_nodeIS7_PvEEiEEbEERKT_DpOT0_
L4a:__ZN27GenericSlowGarbageCollector16ProcessReferenceEi
rna:__ZN9Scripting11UnityEngine10Resolution9InitProxyEv
qxh:_Dictionary_2_get_Item_m1749337561_gshared
BRc:__ZN8JSONRead21TransferSTLStyleArrayI13dynamic_arrayI8BitFieldLj0EEEEvRT_17TransferMetaFlags
Ema:__ZN35ScriptingManagedObjectProxyRegistry13RegisterProxyEPKcPFvvES3_
_Rd:_LifetimeServices_set_SponsorshipTimeout_m2538334028
VIj:__ZN15dense_hashtableINSt3__24pairIK10KeyWrapperIP9FieldInfoEiEES5_N6il2cpp5utils11PointerHashIS3_EEN14dense_hash_mapIS5_iSB_NS5_14EqualsComparerINS0_8equal_toIS4_EEEENS0_9allocatorIS7_EEE9SelectKeyESG_SI_E4findERS6_
_Hi:_Array_Sort_TisCustomAttributeTypedArgument_t2723150157_m3248988944_gshared
sla:__ZL43__ManagedRegistrationHelperFunction_Hash128Pv
Wnk:_fopen
ymb:__ZN20GpuProgramParameters15AddTextureParamEPKciib16TextureDimensionP16PropertyNamesSet
A_c:__ZN20TextRenderingPrivate8FontImplD2Ev
b0:__ZN19CloudServiceHandler8SaveFileERKN4core12basic_stringIcNS0_20StringStorageDefaultIcEEEEPKvj
Hek:_GC_init
a0f:_MonoType_IsPointerImpl_m3340652279
mwk:_glFramebufferTexture2D__wrapper
Alk:__ZN6il2cpp6icalls8mscorlib6System7Runtime8Remoting7Proxies9RealProxy27InternalGetTransparentProxyEP12Il2CppObjectP12Il2CppString
X7j:__ZN6il2cpp2vm6Method10IsInflatedEPK10MethodInfo
Ydk:__ZNK6il2cpp8metadata14Il2CppTypeLessclEPK10Il2CppTypeS4_
bfk:_GC_remove_header
xDa:__ZL17InstanceBufferJobIN10Instancing14RenderLoopArgsEEvP21InstanceBufferJobDataIT_E
e4a:__ZNSt3__26vectorIi13stl_allocatorIiL18MemLabelIdentifier13ELi16EEE8__appendEj
Xqd:__GLOBAL__sub_I_artifacts_WebGL_legacybindings_VR_0_cpp
jIe:_ReturnMessage_get_OutArgs_m1641976511
DTd:_SynchronizationAttribute_IsContextOK_m324067792
E5j:__ZN6il2cpp2vm6Object6IsInstEP12Il2CppObjectP11Il2CppClass
oAf:_Action_1_BeginInvoke_m1817882028_gshared
Axb:__Z19TransferField_ArrayI19StreamedBinaryWriteILb0EE27Converter_UnityEngineObjectEvRK23StaticTransferFieldInfoR31RuntimeSerializationCommandInfoRT0_
CGa:__Z16GetMSAALevelDesc9MSAALevel
nzg:_Environment_GetMachineConfigPath_m43519138
eCe:__ZL65Mask_t1803652131_CustomAttributesCacheGenerator_m_ShowMaskGraphicP21CustomAttributesCache
jHf:_InternalEnumerator_1_System_Collections_IEnumerator_get_Current_m4203917072_gshared
k6g:_Decimal_decimal2Int64_m2102545213
RXb:__ZN8Renderer27EnsureTransformInfoUpToDateEv
XAk:_emscripten_glFrontFace__wrapper
Ja:invoke_fiffi
w9:__ZN14SerializedFile14SerializedType8ReadTypeILb1EEEbibRPKhS3_Pi
J8h:_InvokableCall_1_Invoke_m1160628299_gshared
_sd:_ExecuteEvents_get_pointerEnterHandler_m1185301724
g2i:_InternalAsyncResult__ctor_m2194591319
DIa:__ZN8Playable7SetTimeEd
g5:__ZN13RuntimeStaticI12GraphicsCapsLb0EE16StaticInitializeEPv
KJg:_FileLoadException__ctor_m3879680456
bQc:__Z18Transfer_BlittableI8JSONReadLb1E8Vector4fEvRK29SerializationCommandArgumentsR31RuntimeSerializationCommandInfo
r5c:_tt_cmap2_validate
z1c:_cff_cmap_unicode_done
uQd:_ActivationServices_CreateProxyFromAttributes_m3864561181
gRg:_SecurityPermission_Cast_m2392017566
Idc:__ZN9Scripting20SendScriptingMessageER10GameObjectPKc18ScriptingObjectPtr
Nsi:__Z67RuntimeInvoker_Void_t1185182177_Scene_t2348375561_Int32_t2950945753PFvvEPK10MethodInfoPvPS4_
hHb:__Z26IsSplashScreenFadeCompletev
pFc:__Z42Register_UnityEngine_Camera_get_clearFlagsv
AEb:__ZN13MonoBehaviour13AwakeFromLoadE17AwakeFromLoadMode
YLj:__ZNSt3__26__treeIP11Il2CppClassNS_4lessIS2_EENS_9allocatorIS2_EEED2Ev
Cnf:_Slider_FindSelectableOnRight_m3576909722
oac:__ZN13RenderManager27UpdatePreviousFrameMatricesEv
Pyb:__Z35Transfer_Blittable_FixedBufferFieldI18StreamedBinaryReadILb1EExEvRK29SerializationCommandArgumentsR31RuntimeSerializationCommandInfo
tKi:_Array_InternalArray__get_Item_TisByte_t1134296376_m3566214066_gshared
Eba:__Z22SetManagerPtrInContextiP6Object
P2a:__ZN14PlayerSettings8TransferI19StreamedBinaryWriteILb0EEEEvRT_
NPc:__Z18Transfer_BlittableI8JSONReadLb0E10ColorRGBAfEvRK29SerializationCommandArgumentsR31RuntimeSerializationCommandInfo
GAg:_NumberFormatInfo_set_NumberNegativePattern_m1999304795
CUi:_List_1_System_Collections_IList_Insert_m2238786360_gshared
K7f:_GenericTypeParameterBuilder_IsSubclassOf_m2266644074
LSh:_SymmetricTransform_ThrowBadPaddingException_m2926778011
dBg:_CompareInfo_ToString_m2684143229
Wda:__ZN15DirectorManagerD2Ev
bnf:_Slider_get_maxValue_m414465787
$Pj:__ZN15dense_hashtableINSt3__24pairIK10KeyWrapperINS1_IPK10MethodInfoP11Il2CppClassEEEjEES9_17ReflectionMapHashIS8_EN14dense_hash_mapIS9_jSD_NS9_14EqualsComparerINS0_8equal_toIS8_EEEENS0_9allocatorISB_EEE9SelectKeyESI_SK_E9copy_fromERKSN_j
Ugg:_X509CertificateEnumerator_System_Collections_IEnumerator_get_Current_m4218613192
zkd:__ZN11UnityEngine15PlatformWrapper12GetInfoFlagsEv
wjf:_Scrollbar_set_direction_m473480640
amh:_UTF32Encoding__ctor_m1635603592
Nuh:_UInt64_Equals_m1879425698_AdjustorThunk
hej:_Uri_IsPredefinedScheme_m1188665625
G1j:__ZN6il2cpp6icalls8mscorlib6System13Globalization11CultureInfo45construct_internal_locale_from_current_localeEP17Il2CppCultureInfo
jih:_Array_InternalArray__ICollection_CopyTo_TisUIVertex_t4057497605_m487823430_gshared
jdg:_ServicePointManager_get_CheckCertificateRevocationList_m1645465614
KJj:_SessionStateChanged_Invoke_m1365949269
bTb:__ZN15TextureTFMethod16BindForRenderingEj
cUc:__ZN11UnityEngine9Analytics33PerformanceReportingRenderingInfoC2Ev
$ve:__ZL49Canvas_t3310196443_CustomAttributesCacheGeneratorP21CustomAttributesCache
hIb:__ZN14GraphicsHelper20IsViewportFullscreenERK9GfxDevice
BIe:_SoapMethodAttribute_SetReflectionObject_m503748123
CEg:_Guid_Equals_m3683678873_AdjustorThunk
E3j:__ZN15dense_hashtableINSt3__24pairIK10KeyWrapperINS1_IPKcS4_EEEiEES6_24NamespaceAndNamePairHashN14dense_hash_mapIS6_iS9_NS6_14EqualsComparerI26NamespaceAndNamePairEqualsEENS0_9allocatorIS8_EEE9SelectKeyESD_SF_E4findERS7_
TXc:__ZN20TextRenderingPrivate8FontImpl13CharacterInfo8TransferI19StreamedBinaryWriteILb0EEEEvRT_
pJj:__ZN6il2cpp2os19SocketHandleWrapper7ReleaseEv
NAa:__ZNK20IntermediateRenderer11GetMaterialEi
EUc:__ZN9Scripting11UnityEngine11Collision2D12CleanupProxyEv
xSe:_BeforeRenderHelper_Invoke_m50072094
YUd:_MethodCall_get_MethodBase_m550047245
v3a:__ZNSt3__27__sort4IRNS_6__lessINS_4pairIPKN5Unity4TypeE7Hash128EES8_EEPS8_EEjT0_SC_SC_SC_T_
zua:__ZNK11NamedObject22GetTypeVirtualInternalEv
gWa:__ZN15SerializeTraitsI13dynamic_arrayI28EnlightenRendererInformationLj0EEE19ResizeSTLStyleArrayERS2_i
Zdj:_Uri_EscapeString_m2061933484
cTe:_AttributeHelperEngine_GetDefaultExecutionOrderFor_m2255077112
kKc:__ZN5IMGUI16GetFocusedWindowER8GUIState
F$g:_Convert_ToDecimal_m3815908452
WUe:_Color_op_Equality_m1112359053
MUe:_Color__ctor_m286683560_AdjustorThunk
tWc:__ZN9Scripting11UnityEngine13TreePrototype9InitProxyEv
VKg:_DelegatePInvokeWrapper_ReadDelegate_t714865915
qlg:_CollectionBase_Clear_m1509125218
iLc:__ZN11IMGUIModule21QueryGUIDisplayTargetE17ScriptingClassPtr
MFj:__ZNSt3__27__sort4IRN6il2cpp5utils11collections13ArrayValueMapIPK10Il2CppType17Il2CppInteropData26InteropDataToTypeConverterNS1_8metadata14Il2CppTypeLessENSA_26Il2CppTypeEqualityComparerEE12SortComparerEPS8_EEjT0_SH_SH_SH_T_
ZTc:__ZN27PerformanceReportingManager43UpdateCoreStatsCountForPerformanceReportingEv
wrk:dynCall_vidi
mld:__ZN11UnityEngine15PlatformWrapper14GetCloudUserIdEv
SMg:_StreamReader_ReadToEnd_m371831293
E_e:_Mathf_RoundToInt_m1874334613
__f:_MonoCustomAttrs_GetCustomAttributes_m1775925192
Fpc:__Z42NoAllocHelpers_CUSTOM_ExtractArrayFromListP12Il2CppObject
Muk:_glVertexAttribPointer__wrapper
tRe:_HMAC_Create_m2148924157
hrk:___udivdi3
xzg:_Exception__ctor_m1406832249
sIh:_Enumerator_System_Collections_IEnumerator_get_Current_m2339378585_gshared
uoc:__ZN11PlayerPrefs9SetStringERKN4core12basic_stringIcNS0_20StringStorageDefaultIcEEEES6_
DVc:__ZN9Scripting11UnityEngine7Physics9InitProxyEv
mfd:__Z13RegisterClassIN2UI11CanvasGroupEEvPKc
Yhk:__ZN6il2cpp6icalls8mscorlib6System8Delegate18SetMulticastInvokeEP14Il2CppDelegate
mPf:_Enumerator_VerifyCurrent_m2197239943_gshared
IZ:__ZN11UnityEngine15CloudWebService20WebRequestRestClient5BeginEv
iok:_fseek
lWc:__ZN16memory_pool_implILi40EE15AutoPoolWrapper10InitializeEPv
Ktb:__Z22TransferField_NonArrayI17RemapPPtrTransfer27Converter_SimpleNativeClassI10RectOffsetEEvRK23StaticTransferFieldInfoR31RuntimeSerializationCommandInfoRT0_
Jlg:_PKCS12_AddCertificate_m3618696508
XQ:__ZN20SoundChannelInstance11set3DSpreadEf
AHg:_Int64_System_IConvertible_ToUInt32_m109903525
fGh:_HashSet_1_Init_m2976925848_gshared
AC:__ZNSt3__26__sortIRN11UnityEngine9Animation11BindingSortEPNS_4pairINS2_14GenericBindingEPNS2_10BoundIndexEEEEEvT0_SB_T_
rma:__ZL50__ManagedRegistrationHelperFunction_UnityExceptionPv
Ayf:_HttpsClientStream_U3CHttpsClientStreamU3Em__0_m2058474197
b2g:_Convert_ToUInt32_m2215525276
F2a:__ZN24GenerateTypeTreeTransfer32TransferSTLStyleArrayWithElementI16SplashScreenLogoEEvRT_17TransferMetaFlags
zOj:__ZN15dense_hashtableINSt3__24pairIK10KeyWrapperINS1_IPK9FieldInfoP11Il2CppClassEEEjEES9_17ReflectionMapHashIS8_EN14dense_hash_mapIS9_jSD_NS9_14EqualsComparerINS0_8equal_toIS8_EEEENS0_9allocatorISB_EEE9SelectKeyESI_SK_E6insertERKSB_
IGf:_InternalEnumerator_1_get_Current_m2680116177_gshared
rDj:__ZN14dense_hash_mapI10KeyWrapperIPKcEP11Il2CppClassN6il2cpp5utils11StringUtils12StringHasherIS2_EENS3_14EqualsComparerINS7_13VmStringUtils21CaseSensitiveComparerEEENSt3__29allocatorINSF_4pairIKS3_S5_EEEEEC2EjRKSA_RKSE_
Ada:__Z37InitializeIntermediateRendererManagerPv
pVg:_String_IndexOfOrdinal_m962178384
hHj:__ZN6il2cpp2vm13MetadataCache34GetTypeInfoFromTypeDefinitionIndexEi
uRe:_HMACMD5__ctor_m3129799368
ana:__ZN9Scripting11UnityEngine9Texture2D12CleanupProxyEv
CId:_TypeBuilder_GetEvent_m2166527753
dFd:_Graphic_CrossFadeColor_m678806803
izb:__ZL26Transfer_SimpleNativeClassI18StreamedBinaryReadILb1EE8GradientLb1EEvRK29SerializationCommandArgumentsR31RuntimeSerializationCommandInfo
Vki:__Z102RuntimeInvoker_Int32_t2950945753_RuntimeObject_Int32_t2950945753_CharU26_t1697032762_SByte_t1669577662PFvvEPK10MethodInfoPvPS4_
s0f:_MonoType_get_Namespace_m2015358851
Ebi:_IndexedSet_1_RemoveAt_m3002732320_gshared
gXg:_HashKeys_CopyTo_m4219627824
qbf:_InputField_GetLineStartPosition_m2947412579
oh:_glBlendEquation
C2g:_Convert_ToType_m2406080310
N1h:_ReadOnlyCollection_1_IndexOf_m2659941036_gshared
qid:__Z38CustomEventData_CUSTOM_Internal_CreateP12Il2CppObjectP12Il2CppString
f1h:_ReadOnlyCollection_1_System_Collections_IList_set_Item_m3570269385_gshared
xKh:_List_1_AddEnumerable_m2043754576_gshared
aBe:__ZL85Graphic_t1660335611_CustomAttributesCacheGenerator_Graphic_OnPopulateMesh_m2916877004P21CustomAttributesCache
XBd:_DefaultControls_CreateToggle_m1236643913
mQh:_BitConverterLE_ToSingle_m1153793442
ekk:__ZN6il2cpp2os5Mutex7TryLockEjb
YEg:_Int16_System_IConvertible_ToByte_m3161982419
Y3:__Z20IsVectorBuiltinParamPKcPi
o4j:__ZN6il2cpp2vm5Field8GetFlagsEP9FieldInfo
dSe:_MD5CryptoServiceProvider_HashFinal_m2625727830
RGi:_Array_qsort_TisRaycastResult_t3360306849_m3861320071_gshared
KTg:_Single_System_IConvertible_ToUInt32_m289030200
J_j:__ZN6il2cpp6icalls8mscorlib6System10ReflectionL16LoadResourceFileEP24Il2CppReflectionAssembly
V7g:_Double_System_IConvertible_ToDouble_m3692611612
HW:__Z83Register_UnityEngine_Experimental_Audio_AudioSampleProvider_InternalSetScriptingPtrv
_8:__Z13IsFileCreatedRKN4core12basic_stringIcNS_20StringStorageDefaultIcEEEE
Aof:_Text_OnPopulateMesh_m1525268284
fKg:_FileStream_FlushBuffer_m914568182
TVa:__ZN16LightmapSettings18TransferDeprecatedI14SafeBinaryReadEEvRT_
$_a:__ZN8Renderer11SetMaterialE4PPtrI8MaterialEi
zlh:_StringBuilder_AppendFormat_m921870684
V6j:__ZN15dense_hashtableINSt3__24pairIK10KeyWrapperIP12Il2CppObjectEN6il2cpp2gc9CachedCCWEEES5_NS7_5utils11PointerHashIS3_EEN14dense_hash_mapIS5_S9_SD_NS5_14EqualsComparerINS0_8equal_toIS4_EEEENS0_9allocatorISA_EEE9SelectKeyESI_SK_E5eraseE30dense_hashtable_const_iteratorISA_S5_SD_SM_SI_SK_E
Qxg:_Hashtable__ctor_m1684344284
HA:__ZThn152_NK26AnimatorControllerPlayable41GetStateMachineBehaviourVectorDescriptionEv
vng:_Activator_CheckAbstractType_m2015247896
SNg:_RSACryptoServiceProvider_ImportParameters_m614616705
T1i:_SslHandshakeHash_CreateSignature_m1634235041
mTf:_ShimEnumerator_get_Current_m3504536618_gshared
hra:__ZN9Scripting11UnityEngine21AttributeHelperEngine9InitProxyEv
HTc:__ZN27PerformanceReportingManager29CheckForTargetFrameRateChangeEv
g4f:_AssemblyName_ComputePublicKeyToken_m824893834
VR:__ZN11AudioSource8TransferI14SafeBinaryReadEEvRT_
RJg:_FileNotFoundException__ctor_m2477162036
ABh:_EqualityComparer_1__cctor_m149356781_gshared
iZc:__ZNSt3__26__treeINS_12__value_typeIN20TextRenderingPrivate7FontRefEP11FT_FaceRec_EENS_19__map_value_compareIS3_S6_NS_4lessIS3_EELb1EEENS_9allocatorIS6_EEE25__emplace_unique_key_argsIS3_JRKNS_21piecewise_construct_tENS_5tupleIJRKS3_EEENSI_IJEEEEEENS_4pairINS_15__tree_iteratorIS6_PNS_11__tree_nodeIS6_PvEEiEEbEERKT_DpOT0_
Bx:__ZN7mecanim9animation23TransformDeltasFromClipEiiiRKNS0_18ClipMuscleConstantERKNS0_12ClipBindingsERKNS_14ValueArrayMaskERN4math4trsXESC_SC_
_Bb:__Z18Transfer_BlittableI18StreamedBinaryReadILb0EELb0E12PropertyNameEvRK29SerializationCommandArgumentsR31RuntimeSerializationCommandInfo
nrk:___divdi3
g9f:_MethodBuilder_get_next_table_index_m2755473113
Cic:__ZN9ShaderLab9IntShader26CreateFromSerializedShaderERKNS_16SerializedShaderERNSt3__26vectorI4PPtrI6ShaderENS4_9allocatorIS8_EEEEbPS7_
k9i:_Match_get_Empty_m2060287462
vnb:__ZN19ShaderPropertySheet16SetComputeBufferEN9ShaderLab16FastPropertyNameE15ComputeBufferIDNS_8SetFlagsE
l1e:_U3CInvokeMessageIdSubscribersU3Ec__AnonStorey0_U3CU3Em__0_m444206473
Exh:_Dictionary_2_ContainsValue_m256968015_gshared
nbk:__ZNK15dense_hashtableINSt3__24pairIK10KeyWrapperIPK19Il2CppGenericMethodEP10MethodInfoEES6_N6il2cpp8metadata23Il2CppGenericMethodHashEN14dense_hash_mapIS6_S9_SD_NS6_14EqualsComparerINSC_26Il2CppGenericMethodCompareEEENS0_9allocatorISA_EEE9SelectKeyESH_SJ_E5beginEv
uBf:_ArrayReadOnlyList_1_get_Item_m1974867852_gshared
_Gd:_Image_AddQuad_m969836764
wMh:_MSCompatUnicodeTable_IsIgnorableNonSpacing_m47098938
WVh:_Collection_1_IsSynchronized_m2655903966_gshared
wGg:_Int32_System_IConvertible_ToSingle_m896140682_AdjustorThunk
A0:__GLOBAL__sub_I_Runtime_Graphics_7_cpp
Fx:__ZN7mecanim21CreateFloatValueArrayEPKNS_18ValueArrayConstantERNS_6memory9AllocatorE
T6b:__ZL12CullGroupJobP20CullingGroupsJobDataj
zfk:_GC_remove_dangling_disappearing_links
z_:__ZN11UnityEngine15CloudWebService14RestDownloader9IsAbortedEv
QA:__ZN7mecanim12statemachine28DestroyStateMachineWorkspaceEPNS0_21StateMachineWorkspaceERNS_6memory9AllocatorE
QJc:__Z30GUIStyle_CUSTOM_SetDefaultFontP12Il2CppObject
ho:FUNCTION_TABLE_f
Uo:FUNCTION_TABLE_i
jcj:_AnchorInfo_get_Position_m1133366486
QMg:_StreamReader_FindNextEOL_m2574298119
iga:__ZN11TypeManager12RegisterTypeERK20TypeRegistrationDesc
LJ:__ZL44__ManagedRegistrationHelperFunction_PoseDataPv
xn:FUNCTION_TABLE_v
P$a:__ZNSt3__26vectorI17BlendShapeChannelNS_9allocatorIS1_EEE8__appendEj
UVb:__ZZ23InitPlayerLoopCallbacksvEN43PostLateUpdateUpdateAllRenderersRegistrator7ForwardEv
a7a:__ZN21LightProbeProxyVolume13GetRenderDataER27LightProbeProxyVolumeSample
nSd:_Context_get_ContextProperties_m3283598326
I0i:_Collection_1_System_Collections_IList_set_Item_m4249768453_gshared
cuj:_Keyboard_PlayRandomSound_m629210842
y1a:__ZN11TimeManager8TransferI24GenerateTypeTreeTransferEEvRT_
YSf:_KeyCollection_System_Collections_ICollection_get_SyncRoot_m3900096134_gshared
uMc:__ZN8JSONRead8TransferItEEvRT_PKc17TransferMetaFlagsb
nC:__ZNK11UnityEngine9Animation28GenericAnimationBindingCache10BindCustomERKNS0_14GenericBindingER9TransformRNS0_10BoundCurveE
fVj:__ZN6il2cpp2vm17TypeNameParseInfoC2ERKS1_
omd:__ZN18UnityConnectClient17InitConnectClientEv
Kmk:_memcmp
jnd:__ZN22UnityAnalyticsSettings5ResetEv
Jve:__ZL57GUILayoutEntry_t3214611570_CustomAttributesCacheGeneratorP21CustomAttributesCache
hld:__ZN11UnityEngine7Connect18ConnectSessionInfo8TransferER9JSONWrite
KU:__Z74Register_UnityEngine_AudioListener_INTERNAL_CALL_ReadExtensionPropertyNamev
tGi:_Array_InternalArray__set_Item_TisHitInfo_t3229609740_m1576844560_gshared
aba:__ZN9Scripting32GetCachedPtrFromScriptingWrapperE18ScriptingObjectPtr
aAf:_SslClientStream_OnBeginNegotiateHandshake_m3734240069
Zfd:__ZN2UI29ScheduleUIJobsForInstructionsERNS_7BatchesEjPKNS_13UIInstructionEfjjPNS_13CanvasJobDataE
DP:__ZN5audio5mixer22CreateAudioMixerMemoryERKNS0_18AudioMixerConstantEPN4FMOD6SystemERN7mecanim6memory9AllocatorEib
fKi:_LayoutGroup_SetProperty_TisInt32_t2950945753_m3911895589_gshared
DLe:_BinaryFormatter__ctor_m971003555
qtk:dynCall_iiid
zei:__Z121RuntimeInvoker_Void_t1185182177_Int32_t2950945753_Int32_t2950945753_Int32_t2950945753_SByte_t1669577662_SByte_t1669577662PFvvEPK10MethodInfoPvPS4_
rtk:dynCall_iiif
ami:__Z52RuntimeInvoker_Single_t1397266774_Single_t1397266774PFvvEPK10MethodInfoPvPS4_
Beh:_Array_IndexOf_TisRuntimeObject_m828474689_gshared
Ssc:__ZZL31RegisterRectTransformPropertiesR22GenericPropertyBindingEN32Wrapper_RectTransformAnchorMiny113GetFloatValueEPv
Gvg:_FixedSizeArrayListWrapper_InsertRange_m1706982628
hvh:_UIntPtr_ToString_m984583492_AdjustorThunk
rJb:__ZL20ShaderWarmupFuncImplP6ShaderiPN9ShaderLab4PassERK16ShaderKeywordSetP10DynamicVBOPvR17ShaderPassContext
rKb:__ZN13GfxDeviceGLESC2E10MemLabelId
Auj:_TextGenerationSettings_Equals_m3618607189
CFj:__ZN15dense_hashtableI10KeyWrapperIPK17Il2CppGenericInstES4_N6il2cpp8metadata21Il2CppGenericInstHashEN14dense_hash_setIS4_S7_NS4_14EqualsComparerINS6_24Il2CppGenericInstCompareEEENSt3__29allocatorIS4_EEE8IdentityESB_SE_E6insertERKS4_
QNj:__ZN15dense_hashtableINSt3__24pairIK10KeyWrapperINS1_IPK14Il2CppAssemblyP11Il2CppClassEEEjEES9_17ReflectionMapHashIS8_EN14dense_hash_mapIS9_jSD_NS9_14EqualsComparerINS0_8equal_toIS8_EEEENS0_9allocatorISB_EEE9SelectKeyESI_SK_E3endEv
Cnh:_NativeEventCalls_ResetEvent_internal_m885886540
p$f:_MonoEnumInfo_get_enum_info_m1661176095
Jfj:_GUIUtility_CheckOnGUI_m3924092168
sPb:__ZN14DataBufferGLES12RecordUpdateEv
fZc:__ZN20TextRenderingPrivate15DynamicFontData28GetFaceForFontRefFromOSFontsERKNS_7FontRefE
mEc:__Z34MonoBehaviour_CUSTOM_StopCoroutineP12Il2CppObjectP12Il2CppString
IVg:_String_Remove_m562998446
I3e:_Ray_GetPoint_m1852405345
X6j:__ZN6il2cpp2vm12GenericClass12SetupMethodsEP11Il2CppClass
gka:__ZL50__ManagedRegistrationHelperFunction_AnimationCurvePv
Qcb:__ZNK20LocalFileSystemPosix18GetApplicationPathEv
kWi:_List_1_set_Item_m658432263_gshared
vFb:__ZN9Scripting30IsSystemCollectionsGenericListE17ScriptingClassPtr
rid:__Z39CustomEventData_CUSTOM_Internal_DestroyPv
L0e:_PlayerEditorConnectionEvents_AddAndCreate_m3046878154
Qrd:__ZN9Scripting11UnityEngine12Experimental2XR14PlaneAlignment9InitProxyEv
vyh:_Dictionary_2_Add_m1279427033_gshared
gKc:__Z14GetDefaultSkini
Jfd:__ZN2UI23InitializeCanvasManagerEv
swa:__ZN10GameObject16CheckConsistencyEv
nwd:_PointerInputModule_GetMousePointerEventData_m4273240034
uvc:__ZN14RenderSettings15InitializeClassEv
jyd:_AspectRatioFitter_set_aspectMode_m4140288987
Mnc:__Z46Register_UnityEngine_GameObject_get_activeSelfv
jPa:__ZL35stbir__resample_horizontal_upsampleP11stbir__infoPf
rEi:__Z82RuntimeInvoker_RuntimeObject_RaycastResult_t3360306849_RuntimeObject_RuntimeObjectPFvvEPK10MethodInfoPvPS4_
XXi:_Enumerator__ctor_m3419056812_AdjustorThunk
TIf:_InternalEnumerator_1_System_Collections_IEnumerator_get_Current_m1299775605_gshared
iag:_DictionaryNodeEnumerator_Reset_m2226320064
Nrk:dynCall_iifii
Jbd:__ZN2UI16GetCanvasManagerEv
und:__ZN11UnityEngine9Analytics22EventLimitReachedEventD2Ev
jBc:__ZN15GUIEventManager8PopEventER10InputEvent
Vnc:__Z31RectOffset_Get_Custom_PropRightP12Il2CppObject
J9c:__Z54Register_UnityEngine_TextGenerator_GetVerticesInternalv
Dhd:__ZNSt3__26__treeINS_12__value_typeIN4core12basic_stringIcNS2_20StringStorageDefaultIcEEEEN11UnityEngine9Analytics15UserCustomEvent11CustomValueEEENS_19__map_value_compareIS6_SB_NS_4lessIS6_EELb1EEE13stl_allocatorISB_L18MemLabelIdentifier6ELi16EEE25__emplace_unique_key_argsIS6_JRKNS_21piecewise_construct_tENS_5tupleIJOS6_EEENSO_IJEEEEEENS_4pairINS_15__tree_iteratorISB_PNS_11__tree_nodeISB_PvEEiEEbEERKT_DpOT0_
qVg:__Z3BoxP11Il2CppClassPv
yZe:_Input_get_touchSupported_m1480684970
UR:__ZN20SoundChannelInstance9isPlayingEPb
g0e:_MonoBehaviour_StartCoroutine_m3411253000
gTb:__ZN21UniformBufferTFMethodD2Ev
d6a:__ZN18LoadSceneOperation21PostLoadSceneAdditiveEv
rIf:_InternalEnumerator_1_System_Collections_IEnumerator_get_Current_m1096730143_AdjustorThunk
P7b:__Z36CreateScriptingArrayFromUnityObjectsI13dynamic_arrayIP6CameraLj0EEE17ScriptingArrayPtrRKT_17ScriptingClassPtr
Smc:__ZL34GetComponentsImplementationRecurseILb1ELi1ELi2EEbR10GameObjectbRK17CompareParametersRK39GetComponentsImplementation_ReturnValue
_ia:__ZN6prcoreL12RemapGenericI15TexFormatRGB56515TexFormatRGB888EEvPKNS_9InnerInfoE
tik:__ZN6il2cpp5utils10MemoryPool9AddRegionEj
dfg:_X509Certificate2__ctor_m3336405942
UEd:_Graphic_get_workerMesh_m997382591
qJc:__ZN13dynamic_arrayI7GUIClipLj0EE9push_backERKS0_
UEc:__Z38PlayableHandle_CUSTOM_IsValid_InjectedP9HPlayable
AYj:__ZNSt3__214__split_bufferIP12Il2CppThreadRN6il2cpp2gc9AllocatorIS2_EEED2Ev
Rgd:__ZN5Umbra16FileOutputStreamD0Ev
Mog:_Array_System_Collections_IList_RemoveAt_m41405158
upe:__ZL89GameObject_t1113636619_CustomAttributesCacheGenerator_GameObject_GetComponent_m1027872079P21CustomAttributesCache
Zti:__Z64RuntimeInvoker_Boolean_t97287965_RuntimeObject_Int64_t3736567304PFvvEPK10MethodInfoPvPS4_
LGc:__Z52Register_UnityEngine_Object_FindObjectFromInstanceIDv
Ndd:__Z41CanvasGroup_Get_Custom_PropBlocksRaycastsP12Il2CppObject
qdk:__ZN6il2cpp2os11Environment17GetProcessorCountEv
vec:__ZNSt3__26vectorIN9ShaderLab26SerializedShaderDependencyENS_9allocatorIS2_EEE8__appendEj
Taa:__ZN32TransformHierarchyChangeDispatch26DispatchSelfAndAllChildrenE15TransformAccessNS_12InterestTypeE
QU:__Z46Register_UnityEngine_AudioSource_get_isPlayingv
fkd:__ZN11UnityEngine15PlatformWrapper21GetVRDeviceMirrorModeEv
Ntd:_EventSystem_OnEnable_m3237278246
mca:__ZN13RuntimeStaticI22VirtualJoystickManagerLb0EE13StaticDestroyEPv
cjg:_Interpreter_Balance_m1978770534
oM:__ZN13AudioListener12ApplyFiltersEv
Ana:__ZN9Scripting11UnityEngine9Rendering8GPUFence12CleanupProxyEv
Rrd:__ZN9Scripting11UnityEngine12Experimental2XR14PlaneAlignment12CleanupProxyEv
sWi:_List_1_System_Collections_IList_Contains_m353431064_gshared
xnj:_AudioConfigurationChangeHandler_BeginInvoke_m4104069447
akk:__ZN6il2cpp8metadata27Il2CppGenericContextCompare7CompareEPK20Il2CppGenericContextS4_
tsk:dynCall_viiii
goi:__Z243RuntimeInvoker_Void_t1185182177_Int16_t2552820387_RuntimeObject_Int32_t2950945753_Int32_t2950945753_Int32_t2950945753_SByte_t1669577662_SByte_t1669577662_SByte_t1669577662_SByte_t1669577662_Int16_t2552820387_SByte_t1669577662_SByte_t1669577662PFvvEPK10MethodInfoPvPS4_
$Ag:_CompareInfo_IsPrefix_m796715920
cBj:__ZNK15dense_hashtableINSt3__24pairIK10KeyWrapperIPK22Il2CppGenericParameterEP11Il2CppClassEES6_N6il2cpp5utils11PointerHashIS4_EEN14dense_hash_mapIS6_S9_SE_NS6_14EqualsComparerINS0_8equal_toIS5_EEEENS0_9allocatorISA_EEE9SelectKeyESJ_SL_E23find_position_with_hashERS7_j
fqf:_PrimalityTest_Invoke_m2948246884
eYb:__Z11CopyTextureP7TextureiiS0_ii
Kxe:__ZL65EventTrigger_t1076084509_CustomAttributesCacheGenerator_delegatesP21CustomAttributesCache
jVj:__ZNSt3__214__split_bufferIN6il2cpp2vm17TypeNameParseInfoERNS_9allocatorIS3_EEED2Ev
GNb:__ZThn10632_N13GfxDeviceGLES26EnableScissorRectsPlatformEv
wVi:_List_1_System_Collections_IList_Contains_m3717811284_gshared
ZKd:_MonoEvent_get_Attributes_m3048829315
rfa:__ZN15DirectorManager14ConnectionPool16GrowEmptyBucketsEv
Zwg:_CaseInsensitiveHashCodeProvider_AreEqual_m3534448780
E6:__ZN17PersistentManager32CopyToAwakeFromLoadQueueInternalER18AwakeFromLoadQueue
Vni:__Z104RuntimeInvoker_Boolean_t97287965_Int32_t2950945753_Int64U5BU5DU26_t194432655_StringU5BU5DU26_t2154486980PFvvEPK10MethodInfoPvPS4_
Ymi:__Z106RuntimeInvoker_RuntimeObject_Int16_t2552820387_RuntimeObject_BooleanU26_t4125257963_BooleanU26_t4125257963PFvvEPK10MethodInfoPvPS4_
KXb:__ZNK6Camera16SetActiveVRUsageEv
qjf:_Scrollbar_set_handleRect_m1170237786
rQc:__ZL26Transfer_SimpleNativeClassI8JSONRead8GradientLb1EEvRK29SerializationCommandArgumentsR31RuntimeSerializationCommandInfo
lnk:_open
q7i:_X509CrlEntry_get_SerialNumber_m3627212772
T$j:__ZN6il2cpp6icalls8mscorlib6System5Array5CloneEP11Il2CppArray
uac:__Z30GetPlayerShouldRunInBackgroundv
N_e:_Mathf__cctor_m1175545152
eLd:_MonoEvent_IsDefined_m10931749
ibg:_NameValueCollection_AsSingleString_m3776180906
Uia:__ZN6prcoreL12RemapGenericI11TexFormatI815TexFormatRGB565EEvPKNS_9InnerInfoE
rGg:_Int32_System_IConvertible_ToInt64_m3520470966
fAc:__ZN16StreamedResource8TransferI19StreamedBinaryWriteILb0EEEEvRT_
NKb:__ZNK13TranslateGLES17FramebufferTargetEN2gl17FramebufferTargetE
J8j:__ZL11on_gc_event11GCEventType
EYf:_ObjectDisposedException__ctor_m1034312941
lJf:_InternalEnumerator_1_System_Collections_IEnumerator_get_Current_m1612699335_gshared
Wvf:_TlsServerHello__ctor_m3887266572
ved:__ZN13dynamic_arrayIN2UI8UIVertexELj0EEC2Ej10MemLabelId
Fwk:b62
Ewk:b61
Bwk:b60
Uxk:b67
Txk:b66
Sxk:b65
Zxk:b69
V8i:_Enumerator_get_Current_m359737019
Vza:__ZNSt3__26__treeINS_12__value_typeIi17ShadowCachingDataEENS_19__map_value_compareIiS3_NS_4lessIiEELb1EEE13stl_allocatorIS3_L18MemLabelIdentifier66ELi16EEE7destroyEPNS_11__tree_nodeIS3_PvEE
$qg:_BitConverter_ToInt64_m349022421
uBc:__Z9SetIIMGUIP6IIMGUI
LRi:_List_1_System_Collections_IList_Add_m1142950911_gshared
vwi:__Z68RuntimeInvoker_Boolean_t97287965_Double_t594665363_Double_t594665363PFvvEPK10MethodInfoPvPS4_
Z4c:_tt_cmap10_get_info
RHb:__Z28SetupPixelCorrectCoordinatesi
WOb:__Z5SplitRKN4core12basic_stringIcNS_20StringStorageDefaultIcEEEEcRNSt3__26vectorIS3_NS6_9allocatorIS3_EEEEi
nFj:__ZN15dense_hashtableI10KeyWrapperIPK19Il2CppGenericMethodES4_N6il2cpp8metadata23Il2CppGenericMethodHashEN14dense_hash_setIS4_S7_NS4_14EqualsComparerINS6_26Il2CppGenericMethodCompareEEENSt3__29allocatorIS4_EEE8IdentityESB_SE_E9copy_fromERKSH_j
MRh:_PKCS1_Sign_v15_m2719206817
Lij:_AesTransform__ctor_m3143546745
e9h:_UnityAction_1_Invoke_m2929687399_gshared
nbh:_Array_InternalArray__ICollection_Remove_TisRuntimeObject_m2110193223_gshared
Zte:__ZL64EventType_t3528516131_CustomAttributesCacheGenerator_scrollWheelP21CustomAttributesCache
A$e:_Mesh_SetTangents_m1615111656
Ozc:__ZN13PlayableGraph16DestroyRecursiveEP8Playable
u0j:__ZN6il2cpp2vm9Exception20GetArgumentExceptionERKNS_5utils10StringViewIDsEES6_
$Wa:__ZNSt3__26vectorI13dynamic_arrayI8Vector2fLj0EENS_9allocatorIS3_EEE7reserveEj
_Ge:_MethodCallDictionary__cctor_m2213329406
UL:__ZN12AudioManagerD0Ev
Jbf:_InputField_set_textComponent_m2547304131
a3a:__Z13ConvertPixelsPKh13TextureFormatPhS1_j
rkk:__ZN6il2cpp5utils35RegisterRuntimeInitializeAndCleanupC2EPFvvES3_i
$Mh:_SortKeyBuffer_Initialize_m3786111493
YKi:_Array_InternalArray__get_Item_TisX509ChainStatus_t133602714_m2237651489_gshared
sFe:__ZL58IVertexModifier_t3404627876_CustomAttributesCacheGeneratorP21CustomAttributesCache
K3a:__ZNK22GenericPropertyBinding13SetFloatValueERKN11UnityEngine9Animation10BoundCurveEf
Y8e:_Transform_GetEnumerator_m2717073726
Njh:_Encoding__cctor_m1936558127
yTi:_List_1__ctor_m163821521_gshared
BDe:__ZL90StencilMaterial_t3850132571_CustomAttributesCacheGenerator_StencilMaterial_Add_m3183845017P21CustomAttributesCache
g3e:_QualitySettings_set_vSyncCount_m3131636076
LQg:_X509Certificate_get_Subject_m2638144878
IZc:_raccess_guess_darwin_ufs_export
ZSe:_AsyncOperation_Finalize_m1841265672
nVb:__ZN11TypeManager18InitializeAllTypesEv
lqa:__ZN9Scripting11UnityEngine16DiagnosticSwitch9InitProxyEv
kbf:_InputField_MarkGeometryAsDirty_m817808086
Fff:_LayoutGroup_get_isRootLayoutGroup_m1082645254
pS:__ZN9AudioClipD0Ev
uWj:_il2cpp_class_from_name
pif:_RectMask2D_OnDisable_m809267607
Yx:__ZN17AnimationPlayable16AllocateBindingsEPK35AnimationPlayableEvaluationConstant
NXi:_Queue_1__ctor_m1971992302_gshared
vz:__ZN27AnimationLayerMixerPlayable26ProcessAnimationLayerBeginEP35AnimationPlayableEvaluationConstantP32AnimationPlayableEvaluationInputP33AnimationPlayableEvaluationOutput
I7e:_Texture2D_get_whiteTexture_m2176011403
N$f:_MonoType_GetEvent_m28975240
SQb:__ZN14GfxContextGLES11MakeCurrentER7ApiGLESN2gl13ContextHandleE
CKg:_MonoIO_Write_m3999708352
Itk:dynCall_viffffi
$sc:__ZZL31RegisterRectTransformPropertiesR22GenericPropertyBindingEN32Wrapper_RectTransformSizeDeltay113SetFloatValueEPvf
nhh:_Array_InternalArray__ICollection_CopyTo_TisChar_t3634460470_m3599063464_gshared
Bmh:_UTF7Encoding_InternalGetChars_m2722395139
s_g:_DateTime_get_Today_m2788644320
oJb:__ZN16GraphicsSettings22WarmupPreloadedShadersEv
_cd:__Z34Canvas_Set_Custom_PropSortingOrderP12Il2CppObjecti
COe:_SByte_System_IConvertible_ToSingle_m1083054891
G8i:_CostDelegate_Invoke_m898648402
umh:_UTF7Encoding_Equals_m227704363
BWe:_DisplaysUpdatedDelegate_Invoke_m3203573844
Qic:__ZN9ShaderLab4Pass6RetainEv
dRh:_KeyPairPersistence_get_ContainerName_m4274536094
ky:__ZN7mecanim9animation22CopyAnimationNodeStateEPKNS0_18AnimationNodeStateEPS1_bbRKNS_6bitsetILj83EEE
Ya:invoke_iiiiiiffiiiiiiiiiffffiii
K4e:_Rect_op_Equality_m3986168348
Cpd:__ZN20UnityWebRequestProtoI24UnityWebRequestTransport16AtomicRefCounter14RedirectHelper14ResponseHelper15DownloadHandler13UploadHandler18CertificateHandler12HeaderHelper14AsyncOperationE25Job_RedirectTo_MainThreadEPS9_
afh:_Array_InternalArray__IndexOf_TisSlot_t384495010_m3224390719_gshared
wQf:_Enumerator_System_Collections_IDictionaryEnumerator_get_Key_m4039922590_AdjustorThunk
ncd:__ZN2UI6Canvas8TransferI14SafeBinaryReadEEvRT_
rRf:_Enumerator_get_Current_m35296194_AdjustorThunk
aPj:__ZN6il2cpp2gc19AppendOnlyGCHashMapIPK10Il2CppTypeP20Il2CppReflectionTypeNS_8metadata14Il2CppTypeHashENS7_26Il2CppTypeEqualityComparerEE3AddERKS4_S6_
PX:__ZN11UnityEngine15CloudWebService17CloudJobScheduler11ScheduleJobEPFvPvES2_
PK:__ZN13RuntimeStaticINSt3__23mapIjP19AudioSampleProviderNS0_4lessIjEE13stl_allocatorINS0_4pairIKjS3_EEL18MemLabelIdentifier27ELi16EEEELb0EE13StaticDestroyEPv
MY:__ZN11UnityEngine15CloudWebService17CloudServiceEvent12ToJsonStringER9JSONWrite
uvf:_TlsClientHello__ctor_m1986768336
Pca:__ZNK18VertexChannelsInfoltERKS_
tpi:__Z89RuntimeInvoker_Boolean_t97287965_Int32_t2950945753_Int32U26_t1369213839_Int32_t2950945753PFvvEPK10MethodInfoPvPS4_
xpc:__Z18SetTargetFrameRatei
Wsg:_Char_System_IConvertible_ToType_m4138905176_AdjustorThunk
pMc:__ZN9JSONWrite8TransferIfEEvRT_PKc17TransferMetaFlags
n5g:_DBNull_System_IConvertible_ToUInt16_m643477279
mfb:__ZN10MemoryFileD0Ev
eVh:_Collection_1_SetItem_m774004841_gshared
Uyj:_Analytics_GetUnityAnalyticsHandler_m2772482435
rak:__ZN6il2cpp2os10ThreadImpl22SetNativeThreadCleanupEPFvPvE
G4g:_DateTimeOffset__cctor_m3610253033
Bsg:_Byte_CompareTo_m4285128861_AdjustorThunk
WRd:_ConfigHandler_ExtractAssembly_m2143791058
p5j:__ZN6il2cpp8metadataL24RecursiveGenericDepthForEPK17Il2CppGenericInst
_8e:_Transform_GetChild_m1092972975
kqb:__ZN13GUIStyleState8TransferI14SafeBinaryReadEEvRT_
Ld:_glDrawArrays
tX:__ZN9Scripting11UnityEngine23ClothSphereColliderPair12CleanupProxyEv
unj:_AudioSource_get_clip_m1234340632
vOd:_ResourceCacheItem_t51292791_marshal_pinvoke_back
rmb:__ZNSt3__26vectorIN20GpuProgramParameters15StructParameterENS_9allocatorIS2_EEE21__push_back_slow_pathIS2_EEvOT_
Cdd:__Z46Register_UnityEngine_Canvas_set_sortingLayerIDv
Tt:__ZN23AnimatedPropertyBuilder5BuildEP13AnimationClip18ScriptingObjectPtr
mPc:__ZN9JSONWrite8TransferI13dynamic_arrayI8Vector3fLj0EEEEvRT_PKc17TransferMetaFlags
d0a:__ZN14BlendShapeData8TransferI18StreamedBinaryReadILb0EEEEvRT_
G6c:_Round_To_Grid
nZc:_UNITY_FT_Stream_Close
dud:_EventTrigger_OnPointerClick_m1385968891
cuh:_UInt32_ToString_m4293943134_AdjustorThunk
f6e:_Renderer_get_sortingLayerID_m3902855301
kkg:_Interval_CompareTo_m3282557545_AdjustorThunk
YNf:_Comparer_1__cctor_m1018589532_gshared
F8c:_pshinter_get_globals_funcs
Lga:__ZL20FormatOrderedProcessPKcP17FormatOrderedDataPc
Nhh:_Array_InternalArray__ICollection_CopyTo_TisResourceCacheItem_t51292791_m766230259_gshared
Fih:_Decoder_set_Fallback_m3834517714
ODc:__Z35DebugLogHandler_CUSTOM_Internal_Log7LogTypeP12Il2CppStringP12Il2CppObject
ywk:_emscripten_glShaderBinary__wrapper
tQb:__ZL17ProgramUniform3ivPK7ApiGLESjiihPKv
vug:_ArrayList_Shift_m395607654
qib:__ZN9GfxDevice25GetBackBufferColorSurfaceEv
xxa:__ZN23TransformChangeDispatch37InitTransformHierarchyTRSChangedMasksER18TransformHierarchy
xkc:__Z29AwakeAndActivateClonedObjectsPP6ObjectRK10vector_mapIiiNSt3__24lessIiEE13stl_allocatorINS3_4pairIiiEEL18MemLabelIdentifier1ELi16EEE
QTj:__ZN15dense_hashtableINSt3__24pairIK10KeyWrapperINS1_IPK10MethodInfoP11Il2CppClassEEEjEES9_17ReflectionMapHashIS8_EN14dense_hash_mapIS9_jSD_NS9_14EqualsComparerINS0_8equal_toIS8_EEEENS0_9allocatorISB_EEE9SelectKeyESI_SK_E14squash_deletedEv
JQh:_KeyGeneratedEventHandler_Invoke_m4131555809
tWg:_String_CharCopyReverse_m1548661297
f$e:_Mesh_PrintErrorCantAccessChannel_m2109128075
qrd:__ZN13RuntimeStaticI11WindManagerLb0EE13StaticDestroyEPv
